 msvcr80

 Timestamp is 3f60fe13 (Thu Sep 11 15:58:27 2003)

 Preferred load address is 7d000000

 Start         Length     Name                   Class
 0001:00000000 0003d152H .text                   CODE
 0001:0003d152 0000000aH .text$x                 CODE
 0002:00000000 00000278H .idata$5                DATA
 0002:00000280 0000a228H .rdata                  DATA
 0002:0000a4a8 00000024H .rdata$debug            DATA
 0002:0000a4cc 000001f0H .rdata$r                DATA
 0002:0000a6c0 00000014H .rdata$sxdata           DATA
 0002:0000a6d4 00000004H .rtc$IAA                DATA
 0002:0000a6d8 00000004H .rtc$IZZ                DATA
 0002:0000a6dc 00000004H .rtc$TAA                DATA
 0002:0000a6e0 00000004H .rtc$TZZ                DATA
 0002:0000a6e8 00000d78H .xdata$x                DATA
 0002:0000b460 00000014H .idata$2                DATA
 0002:0000b474 00000014H .idata$3                DATA
 0002:0000b488 00000278H .idata$4                DATA
 0002:0000b700 00000b50H .idata$6                DATA
 0002:0000c250 00004fd9H .edata                  DATA
 0003:00000000 00000004H .CRT$XCA                DATA
 0003:00000004 00000004H .CRT$XCAA               DATA
 0003:00000008 00000004H .CRT$XCZ                DATA
 0003:0000000c 00000004H .CRT$XIA                DATA
 0003:00000010 00000010H .CRT$XIC                DATA
 0003:00000020 00000004H .CRT$XIY                DATA
 0003:00000024 00000004H .CRT$XIZ                DATA
 0003:00000028 00000004H .CRT$XPA                DATA
 0003:0000002c 00000008H .CRT$XPX                DATA
 0003:00000034 00000004H .CRT$XPXA               DATA
 0003:00000038 00000004H .CRT$XPZ                DATA
 0003:0000003c 00000004H .CRT$XTA                DATA
 0003:00000040 00000004H .CRT$XTB                DATA
 0003:00000044 00000004H .CRT$XTZ                DATA
 0003:00000050 00004930H .data                   DATA
 0003:00004980 00002288H .bss                    DATA
 0004:00000000 00000058H .rsrc$01                DATA
 0004:00000060 00000368H .rsrc$02                DATA

  Address         Publics by Value              Rva+Base     Lib:Object

 0000:00000000       __except_list              00000000     <absolute>
 0000:00000005       ___safe_se_handler_count   00000005     <absolute>
 0001:00000000       ?_set_new_handler@@YAP6AHI@ZP6AHI@Z@Z 7d001000 f   handler.obj
 0001:00000024       ?_query_new_handler@@YAP6AHI@ZXZ 7d001024 f   handler.obj
 0001:0000002a       __callnewh                 7d00102a f   handler.obj
 0001:00000045       ?set_new_handler@@YAP6AXXZP6AXXZ@Z 7d001045 f   setnewh.obj
 0001:0000006b       ?_set_new_mode@@YAHH@Z     7d00106b f   new_mode.obj
 0001:00000088       ?_query_new_mode@@YAHXZ    7d001088 f   new_mode.obj
 0001:0000008e       __set_error_mode           7d00108e f   errmode.obj
 0001:000000b6       ___set_app_type            7d0010b6 f   errmode.obj
 0001:000000c0       ___setusermatherr          7d0010c0 f   matherr.obj
 0001:000000d1       __matherr                  7d0010d1 f   matherr.obj
 0001:00000274       ___setargv                 7d001274 f   _setargv.obj
 0001:00000480       ___wsetargv                7d001480 f   _wstargv.obj
 0001:00000520       __alloca_probe             7d001520     chkstk.obj
 0001:00000520       __chkstk                   7d001520 f   chkstk.obj
 0001:0000056b       __amsg_exit                7d00156b f   crt0dat.obj
 0001:00000587       ___crtExitProcess          7d001587 f   crt0dat.obj
 0001:000005b7       __lockexit                 7d0015b7 f   crt0dat.obj
 0001:000005c0       __unlockexit               7d0015c0 f   crt0dat.obj
 0001:000005c9       __initterm                 7d0015c9 f   crt0dat.obj
 0001:000005e3       __cinit                    7d0015e3 f   crt0dat.obj
 0001:000006d9       ___crtdll_callstaticterminators 7d0016d9 f   crt0dat.obj
 0001:000006fb       _exit                      7d0016fb f   crt0dat.obj
 0001:0000070c       __exit                     7d00170c f   crt0dat.obj
 0001:0000071d       __cexit                    7d00171d f   crt0dat.obj
 0001:0000072c       __c_exit                   7d00172c f   crt0dat.obj
 0001:0000073b       __fptrap                   7d00173b f   crt0fp.obj
 0001:00000744       __NMSG_WRITE               7d001744 f   crt0msg.obj
 0001:0000085c       __FF_MSGBANNER             7d00185c f   crt0msg.obj
 0001:00000895       ___wgetmainargs            7d001895 f   crtlib.obj
 0001:00000902       ___getmainargs             7d001902 f   crtlib.obj
 0001:00000948       __CRTDLL_INIT@12           7d001948 f   crtlib.obj
 0001:00000b19       ___p__acmdln               7d001b19 f   crtlib.obj
 0001:00000b1f       ___p__wcmdln               7d001b1f f   crtlib.obj
 0001:00000b25       ___p__amblksiz             7d001b25 f   crtlib.obj
 0001:00000b2b       ___p___argc                7d001b2b f   crtlib.obj
 0001:00000b31       ___p___argv                7d001b31 f   crtlib.obj
 0001:00000b37       ___p___wargv               7d001b37 f   crtlib.obj
 0001:00000b3d       ___p__commode              7d001b3d f   crtlib.obj
 0001:00000b43       ___p__daylight             7d001b43 f   crtlib.obj
 0001:00000b49       ___p__dstbias              7d001b49 f   crtlib.obj
 0001:00000b4f       ___p__environ              7d001b4f f   crtlib.obj
 0001:00000b55       ___p__wenviron             7d001b55 f   crtlib.obj
 0001:00000b5b       ___p__fmode                7d001b5b f   crtlib.obj
 0001:00000b61       ___p__fileinfo             7d001b61 f   crtlib.obj
 0001:00000b67       ___p___initenv             7d001b67 f   crtlib.obj
 0001:00000b6d       ___p___winitenv            7d001b6d f   crtlib.obj
 0001:00000b73       ___iob_func                7d001b73 f   stdio:_file.obj
 0001:00000b73       ___p__iob                  7d001b73 f   crtlib.obj
 0001:00000b79       ___p__mbctype              7d001b79 f   crtlib.obj
 0001:00000b7f       ___p__mbcasemap            7d001b7f f   crtlib.obj
 0001:00000b85       ___p___mb_cur_max          7d001b85 f   crtlib.obj
 0001:00000bad       ___p__osver                7d001bad f   crtlib.obj
 0001:00000bb3       ___p__pctype               7d001bb3 f   crtlib.obj
 0001:00000bdb       ___p__pwctype              7d001bdb f   crtlib.obj
 0001:00000be1       ___p__pgmptr               7d001be1 f   crtlib.obj
 0001:00000be7       ___p__wpgmptr              7d001be7 f   crtlib.obj
 0001:00000bed       ___p__timezone             7d001bed f   crtlib.obj
 0001:00000bf3       ___p__tzname               7d001bf3 f   crtlib.obj
 0001:00000bf9       ___p__winmajor             7d001bf9 f   crtlib.obj
 0001:00000bff       ___p__winminor             7d001bff f   crtlib.obj
 0001:00000c05       ___p__winver               7d001c05 f   crtlib.obj
 0001:00000c0b       __mtinitlocks              7d001c0b f   mlock.obj
 0001:00000c54       __mtdeletelocks            7d001c54 f   mlock.obj
 0001:00000ca9       __unlock                   7d001ca9 f   mlock.obj
 0001:00000cbe       __mtinitlocknum            7d001cbe f   mlock.obj
 0001:00000d7e       __lock                     7d001d7e f   mlock.obj
 0001:00000f1b       __setargv                  7d001f1b f   stdargv.obj
 0001:00000faf       __setenvp                  7d001faf f   stdenvp.obj
 0001:0000105d       __endthread                7d00205d f   thread.obj
 0001:00001129       __beginthread              7d002129 f   thread.obj
 0001:000011c2       __endthreadex              7d0021c2 f   threadex.obj
 0001:00001282       __beginthreadex            7d002282 f   threadex.obj
 0001:00001315       ___crtTlsAlloc@4           7d002315 f   tidtable.obj
 0001:0000131e       __mtterm                   7d00231e f   tidtable.obj
 0001:0000133b       __initptd                  7d00233b f   tidtable.obj
 0001:000013b7       __getptd_noexit            7d0023b7 f   tidtable.obj
 0001:00001419       __getptd                   7d002419 f   tidtable.obj
 0001:00001431       __freefls@4                7d002431 f   tidtable.obj
 0001:0000154b       __freeptd                  7d00254b f   tidtable.obj
 0001:0000157a       ___threadid                7d00257a f   tidtable.obj
 0001:00001580       ___threadhandle            7d002580 f   tidtable.obj
 0001:00001586       __mtinit                   7d002586 f   tidtable.obj
 0001:000018bc       __cwild                    7d0028bc f   wild.obj
 0001:00001ae5       __wsetargv                 7d002ae5 f   wstdargv.obj
 0001:00001b7a       __wsetenvp                 7d002b7a f   wstdenvp.obj
 0001:00001e84       __wcwild                   7d002e84 f   wwild.obj
 0001:00001f4e       __setdefaultprecision      7d002f4e f   fp8.obj
 0001:00001f60       __errno                    7d002f60 f   dos:dosmap.obj
 0001:00001f73       ___doserrno                7d002f73 f   dos:dosmap.obj
 0001:00001f86       __dosmaperr                7d002f86 f   dos:dosmap.obj
 0001:00001fed       __set_malloc_crt_max_wait  7d002fed f   heap:crtheap.obj
 0001:00001ffd       @_malloc_crt@4             7d002ffd f   heap:crtheap.obj
 0001:0000203e       @_calloc_crt@8             7d00303e f   heap:crtheap.obj
 0001:00002085       @_realloc_crt@8            7d003085 f   heap:crtheap.obj
 0001:000020d0       _free                      7d0030d0 f   heap:free.obj
 0001:00002199       __GetLinkerVersion         7d003199 f   heap:heapinit.obj
 0001:000021c6       ___heap_select             7d0031c6 f   heap:heapinit.obj
 0001:00002336       __heap_init                7d003336 f   heap:heapinit.obj
 0001:00002393       __heap_term                7d003393 f   heap:heapinit.obj
 0001:0000243c       __get_heap_handle          7d00343c f   heap:heapinit.obj
 0001:00002442       _V6_HeapAlloc              7d003442 f   heap:malloc.obj
 0001:0000248e       _V5_HeapAlloc              7d00348e f   heap:malloc.obj
 0001:000024ec       __heap_alloc               7d0034ec f i heap:malloc.obj
 0001:0000256e       _malloc                    7d00356e f   heap:malloc.obj
 0001:00002620       _calloc                    7d003620 f   heap:calloc.obj
 0001:0000273e       _realloc                   7d00373e f   heap:realloc.obj
 0001:00002a49       __get_sbh_threshold        7d003a49 f   heap:sbheap.obj
 0001:00002a68       ___sbh_heap_init           7d003a68 f   heap:sbheap.obj
 0001:00002ab0       ___sbh_find_block          7d003ab0 f   heap:sbheap.obj
 0001:00002adb       ___sbh_free_block          7d003adb f   heap:sbheap.obj
 0001:00002def       ___sbh_alloc_new_region    7d003def f   heap:sbheap.obj
 0001:00002e9d       ___sbh_alloc_new_group     7d003e9d f   heap:sbheap.obj
 0001:00002fa3       ___sbh_resize_block        7d003fa3 f   heap:sbheap.obj
 0001:00003282       ___sbh_heapmin             7d004282 f   heap:sbheap.obj
 0001:0000334f       ___sbh_heap_check          7d00434f f   heap:sbheap.obj
 0001:00003665       ___old_sbh_new_region      7d004665 f   heap:sbheap.obj
 0001:000037a5       ___old_sbh_release_region  7d0047a5 f   heap:sbheap.obj
 0001:000037fb       ___old_sbh_decommit_pages  7d0047fb f   heap:sbheap.obj
 0001:000038bd       ___old_sbh_find_block      7d0048bd f   heap:sbheap.obj
 0001:00003913       ___old_sbh_free_block      7d004913 f   heap:sbheap.obj
 0001:00003958       ___old_sbh_alloc_block_from_page 7d004958 f   heap:sbheap.obj
 0001:00003a78       ___old_sbh_resize_block    7d004a78 f   heap:sbheap.obj
 0001:00003b28       ___old_sbh_heap_check      7d004b28 f   heap:sbheap.obj
 0001:00003c8d       __set_sbh_threshold        7d004c8d f   heap:sbheap.obj
 0001:00003d42       ___sbh_alloc_block         7d004d42 f   heap:sbheap.obj
 0001:0000402b       ___old_sbh_alloc_block     7d00502b f   heap:sbheap.obj
 0001:00004226       __ioinit                   7d005226 f   lowio:ioinit.obj
 0001:00004436       __ioterm                   7d005436 f   lowio:ioinit.obj
 0001:000046ca       ___updatetmbcinfo          7d0056ca f   mbstring:mbctype.obj
 0001:000048c4       __getmbcp                  7d0058c4 f   mbstring:mbctype.obj
 0001:000048d4       __setmbcp                  7d0058d4 f   mbstring:mbctype.obj
 0001:000049e0       ___initmbctable            7d0059e0 f   mbstring:mbctype.obj
 0001:000049eb       __mbsicmp                  7d0059eb f   mbstring:mbsicmp.obj
 0001:00004b52       __mbsnbcpy                 7d005b52 f   mbstring:mbsnbcpy.obj
 0001:00004be5       __mbscmp                   7d005be5 f   mbstring:mbscmp.obj
 0001:00004c81       __mbsdec                   7d005c81 f   mbstring:mbsdec.obj
 0001:00004cd0       ___mbspbrk_mt              7d005cd0 f   mbstring:mbspbrk.obj
 0001:00004d4c       __mbspbrk                  7d005d4c f   mbstring:mbspbrk.obj
 0001:00004d8d       __wassert                  7d005d8d f   misc:wassert.obj
 0001:00005360       ___onexitinit              7d006360 f   misc:onexit.obj
 0001:00005387       __onexit                   7d006387 f   misc:onexit.obj
 0001:000053bf       _atexit                    7d0063bf f   misc:onexit.obj
 0001:000053d1       ___dllonexit               7d0063d1 f   misc:onexit.obj
 0001:00005468       __SEH_prolog               7d006468 f   misc:sehprolg.obj
 0001:000054a3       __SEH_epilog               7d0064a3 f   misc:sehprolg.obj
 0001:000054bc       __except_handler3          7d0064bc f   misc:exsup3.obj
 0001:000055a2       __seh_longjmp_unwind@4     7d0065a2 f   misc:exsup3.obj
 0001:000055bd       ___crtMessageBoxA          7d0065bd f   misc:crtmbox.obj
 0001:000056bc       ___mbtow_environ           7d0066bc f   misc:mbtowenv.obj
 0001:0000573d       ___crtGetEnvironmentStringsW 7d00673d f   misc:w_env.obj
 0001:000058a5       ___crtGetCommandLineW      7d0068a5 f   misc:aw_com.obj
 0001:00005942       ___crtGetEnvironmentStringsA 7d006942 f   misc:a_env.obj
 0001:00005a64       ____setlc_active_func      7d006a64 f   misc:setlocal.obj
 0001:00005a6a       ____unguarded_readlc_active_add_func 7d006a6a f   misc:setlocal.obj
 0001:00005a70       ___freetlocinfo            7d006a70 f   misc:setlocal.obj
 0001:00005b85       ___addlocaleref            7d006b85 f   misc:setlocal.obj
 0001:00005c0b       ___removelocaleref         7d006c0b f   misc:setlocal.obj
 0001:00005cd5       ___updatetlocinfo          7d006cd5 f   misc:setlocal.obj
 0001:00005d3a       __configthreadlocale       7d006d3a f   misc:setlocal.obj
 0001:00005e04       __strcats                  7d006e04 f   misc:setlocal.obj
 0001:00005e28       ___lc_strtolc              7d006e28 f   misc:setlocal.obj
 0001:00005f04       ___lc_lctostr              7d006f04 f   misc:setlocal.obj
 0001:0000609b       __expandlocale             7d00709b f   misc:setlocal.obj
 0001:00006661       _setlocale                 7d007661 f   misc:setlocal.obj
 0001:00006787       ___pwctype_func            7d007787 f   misc:ctype.obj
 0001:0000678d       ___pctype_func             7d00778d f   misc:ctype.obj
 0001:000067c6       ___crtInitCritSecAndSpinCount 7d0077c6 f   misc:initcrit.obj
 0001:0000685c       __global_unwind2           7d00785c f   misc:exsup.obj
 0001:000068b7       __local_unwind2            7d0078b7 f   misc:exsup.obj
 0001:00006917       __NLG_Return2              7d007917     misc:exsup.obj
 0001:00006927       __abnormal_termination     7d007927 f   misc:exsup.obj
 0001:0000694a       __NLG_Notify1              7d00794a f   misc:exsup.obj
 0001:00006953       __NLG_Notify               7d007953 f   misc:exsup.obj
 0001:00006969       __NLG_Dispatch             7d007969     misc:exsup.obj
 0001:00006969       __NLG_Dispatch2            7d007969     misc:exsup.obj
 0001:00006971       __XcptFilter               7d007971 f   misc:winxfltr.obj
 0001:00006ae9       ___CppXcptFilter           7d007ae9 f   misc:winxfltr.obj
 0001:00006b04       ___crtLCMapStringA         7d007b04 f   misc:a_map.obj
 0001:00006ed0       ___crtGetStringTypeA       7d007ed0 f   misc:a_str.obj
 0001:000070df       @__security_check_cookie@4 7d0080df f   misc:secchk.obj
 0001:000070ed       _abort                     7d0080ed f   misc:abort.obj
 0001:000071c8       ___fpecode                 7d0081c8 f   misc:winsig.obj
 0001:000071d1       ___pxcptinfoptrs           7d0081d1 f   misc:winsig.obj
 0001:000071da       _signal                    7d0081da f   misc:winsig.obj
 0001:00007382       _raise                     7d008382 f   misc:winsig.obj
 0001:00007505       ___crtMessageBoxW          7d008505 f   misc:crtmboxw.obj
 0001:00007604       __assert                   7d008604 f   misc:assert.obj
 0001:00007a02       __ValidateEH3RN            7d008a02 f   misc:eh3valid.obj
 0001:00007cdd       ___crtwsetenv              7d008cdd f   misc:wsetenv.obj
 0001:00008315       ___free_lc_time            7d009315 f   misc:inittime.obj
 0001:000084a5       ___init_time               7d0094a5 f   misc:inittime.obj
 0001:00008515       ___free_lconv_num          7d009515 f   misc:initnum.obj
 0001:00008555       ___init_numeric            7d009555 f   misc:initnum.obj
 0001:0000870a       ___free_lconv_mon          7d00970a f   misc:initmon.obj
 0001:00008793       ___init_monetary           7d009793 f   misc:initmon.obj
 0001:00008a16       ___init_ctype              7d009a16 f   misc:initctyp.obj
 0001:00008c4d       ____mb_cur_max_func        7d009c4d f   misc:initctyp.obj
 0001:00008c76       ____lc_codepage_func       7d009c76 f   misc:initctyp.obj
 0001:00008c9c       ____lc_collate_cp_func     7d009c9c f   misc:initctyp.obj
 0001:00008cc2       ____lc_handle_func         7d009cc2 f   misc:initctyp.obj
 0001:00008ce8       _localeconv                7d009ce8 f   misc:lconv.obj
 0001:00009369       ___get_qualified_locale    7d00a369 f   misc:getqloc.obj
 0001:0000954d       ___ansicp                  7d00a54d f   misc:convrtcp.obj
 0001:00009590       ___convertcp               7d00a590 f   misc:convrtcp.obj
 0001:00009759       ___security_init_cookie    7d00a759 f   misc:seccinit.obj
 0001:000097bf       ___security_error_handler  7d00a7bf f   misc:secfail.obj
 0001:00009907       ___buffer_overrun          7d00a907 f   misc:secfail.obj
 0001:00009913       ___set_buffer_overrun_handler 7d00a913 f   misc:secfail.obj
 0001:00009913       __set_security_error_handler 7d00a913 f   misc:secfail.obj
 0001:00009923       ___getlocaleinfo           7d00a923 f   misc:inithelp.obj
 0001:00009a4a       ___crtGetLocaleInfoW       7d00aa4a f   misc:w_loc.obj
 0001:00009b99       ___crtGetLocaleInfoA       7d00ab99 f   misc:a_loc.obj
 0001:00009cf7       __RTC_Terminate            7d00acf7 f   rtc:initsect.obj
 0001:00009d3b       ___initstdio               7d00ad3b f   stdio:_file.obj
 0001:00009dca       ___endstdio                7d00adca f   stdio:_file.obj
 0001:00009dea       __lock_file                7d00adea f   stdio:_file.obj
 0001:00009e19       __lock_file2               7d00ae19 f   stdio:_file.obj
 0001:00009e3c       __unlock_file              7d00ae3c f   stdio:_file.obj
 0001:00009e6b       __unlock_file2             7d00ae6b f   stdio:_file.obj
 0001:00009e8e       __vswprintf_c              7d00ae8e f   stdio:vswprnc.obj
 0001:00009f15       __flush                    7d00af15 f   stdio:fflush.obj
 0001:00009f72       __fflush_lk                7d00af72 f   stdio:fflush.obj
 0001:0000a079       _fflush                    7d00b079 f   stdio:fflush.obj
 0001:0000a0c9       __flushall                 7d00b0c9 f   stdio:fflush.obj
 0001:0000a0d2       _fwprintf                  7d00b0d2 f   stdio:fwprintf.obj
 0001:0000a130       _setvbuf                   7d00b130 f   stdio:setvbuf.obj
 0001:0000a205       _fprintf                   7d00b205 f   stdio:fprintf.obj
 0001:0000a263       __fcloseall                7d00b263 f   stdio:closeall.obj
 0001:0000a2ff       __flsbuf                   7d00b2ff f   stdio:_flsbuf.obj
 0001:0000a4a2       __woutput                  7d00b4a2 f   stdio:woutput.obj
 0001:0000ad64       __stbuf                    7d00bd64 f   stdio:_sftbuf.obj
 0001:0000adef       __ftbuf                    7d00bdef f   stdio:_sftbuf.obj
 0001:0000ae1e       __freebuf                  7d00be1e f   stdio:_freebuf.obj
 0001:0000aed8       __output                   7d00bed8 f   stdio:output.obj
 0001:0000b759       __fclose_lk                7d00c759 f   stdio:fclose.obj
 0001:0000b7a5       _fclose                    7d00c7a5 f   stdio:fclose.obj
 0001:0000b7f6       __getbuf                   7d00c7f6 f   stdio:_getbuf.obj
 0001:0000b833       __putwc_lk                 7d00c833 f   stdio:fputwc.obj
 0001:0000b906       _fputwc                    7d00c906 f   stdio:fputwc.obj
 0001:0000b951       _putwc                     7d00c951 f   stdio:fputwc.obj
 0001:0000b956       __flswbuf                  7d00c956 f   stdio:_flswbuf.obj
 0001:0000ba90       _strcpy                    7d00ca90 f   string:strcat.obj
 0001:0000baa0       _strcat                    7d00caa0 f   string:strcat.obj
 0001:0000bb90       _strncpy                   7d00cb90 f   string:strncpy.obj
 0001:0000bcc0       _strlen                    7d00ccc0 f   string:strlen.obj
 0001:0000bd4b       __strdup                   7d00cd4b f   string:strdup.obj
 0001:0000bd76       _wcscat                    7d00cd76 f   string:wcscat.obj
 0001:0000bda0       _wcscpy                    7d00cda0 f   string:wcscat.obj
 0001:0000bdbc       _wcslen                    7d00cdbc f   string:wcslen.obj
 0001:0000bdd2       __wcsicmp                  7d00cdd2 f   string:wcsicmp.obj
 0001:0000be8c       _wcsncpy                   7d00ce8c f   string:wcsncpy.obj
 0001:0000bec9       __wcsdup                   7d00cec9 f   string:wcsdup.obj
 0001:0000bef7       _wcscmp                    7d00cef7 f   string:wcscmp.obj
 0001:0000bf29       _wcspbrk                   7d00cf29 f   string:wcspbrk.obj
 0001:0000bf80       _strchr                    7d00cf80 f   string:strchr.obj
 0001:0000bf86       ___from_strstr_to_strchr   7d00cf86     string:strchr.obj
 0001:0000c040       _strstr                    7d00d040 f   string:strstr.obj
 0001:0000c0d0       _strncmp                   7d00d0d0 f   string:strncmp.obj
 0001:0000c110       _memset                    7d00d110 f   string:memset.obj
 0001:0000c170       _memcpy                    7d00d170 f   string:memcpy.obj
 0001:0000c4b0       _memmove                   7d00d4b0 f   string:memmove.obj
 0001:0000c7ed       ___ascii_stricmp           7d00d7ed f   string:stricmp.obj
 0001:0000c822       __stricmp                  7d00d822 f   string:stricmp.obj
 0001:0000c8a0       _strcmp                    7d00d8a0 f   string:strcmp.obj
 0001:0000c930       _strpbrk                   7d00d930 f   string:strpbrk.obj
 0001:0000c970       _wcsncat                   7d00d970 f   string:wcsncat.obj
 0001:0000c9b0       _strcspn                   7d00d9b0 f   string:strcspn.obj
 0001:0000ca00       _memcmp                    7d00da00 f   string:memcmp.obj
 0001:0000cab8       __wcsnicoll                7d00dab8 f   string:wcsnicol.obj
 0001:0000cb82       _wcschr                    7d00db82 f   string:wcschr.obj
 0001:0000cba4       __strnicmp                 7d00dba4 f   string:strnicmp.obj
 0001:0000cc30       ___ascii_strnicmp          7d00dc30 f   string:_strnicm.obj
 0001:0000cc91       __Getdays                  7d00dc91 f   time:strftime.obj
 0001:0000cd32       __Getmonths                7d00dd32 f   time:strftime.obj
 0001:0000cde9       __Gettnames                7d00dde9 f   time:strftime.obj
 0001:0000da06       __Strftime_mt              7d00ea06 f   time:strftime.obj
 0001:0000db28       __Strftime                 7d00eb28 f   time:strftime.obj
 0001:0000db7a       _strftime                  7d00eb7a f   time:strftime.obj
 0001:0000e1b4       ___tzset                   7d00f1b4 f   time:tzset.obj
 0001:0000e200       __tzset                    7d00f200 f   time:tzset.obj
 0001:0000e235       __isindst                  7d00f235 f   time:tzset.obj
 0001:0000e50b       __fpreset                  7d00f50b f   tran:ieee87.obj
 0001:0000e5bb       __statusfp2                7d00f5bb f   tran:ieee87.obj
 0001:0000e5e6       __statusfp                 7d00f5e6 f   tran:ieee87.obj
 0001:0000e603       __clearfp                  7d00f603 f   tran:ieee87.obj
 0001:0000e621       ___control87_2             7d00f621 f   tran:ieee87.obj
 0001:0000e687       __control87                7d00f687 f   tran:ieee87.obj
 0001:0000e6f7       __controlfp                7d00f6f7 f   tran:ieee87.obj
 0001:0000e70d       __statfp                   7d00f70d f   tran:fpctrl.obj
 0001:0000e718       __clrfp                    7d00f718 f   tran:fpctrl.obj
 0001:0000e724       __ctrlfp                   7d00f724 f   tran:fpctrl.obj
 0001:0000e74b       __set_statfp               7d00f74b f   tran:fpctrl.obj
 0001:0000e7a1       ___get_fpsr_sse2           7d00f7a1 f   tran:fpctrl.obj
 0001:0000e7bd       ___set_fpsr_sse2           7d00f7bd f   tran:fpctrl.obj
 0001:0000e879       ___sse2_available_init     7d00f879 f   tran:cpu_disp.obj
 0001:0000e94a       __set_SSE2_enable          7d00f94a f   tran:cpu_disp.obj
 0001:0000e95e       _RtlUnwind@16              7d00f95e f   kernel32:KERNEL32.dll
 0001:0000ea0b       __itow_s                   7d00fa0b f   convert:xtow.obj
 0001:0000ea37       __ltow_s                   7d00fa37 f   convert:xtow.obj
 0001:0000ea5e       __ultow_s                  7d00fa5e f   convert:xtow.obj
 0001:0000ea99       __itow                     7d00fa99 f   convert:xtow.obj
 0001:0000eac4       __ltow                     7d00fac4 f   convert:xtow.obj
 0001:0000eaea       __ultow                    7d00faea f   convert:xtow.obj
 0001:0000ebec       __i64tow_s                 7d00fbec f   convert:xtow.obj
 0001:0000ec1f       __ui64tow_s                7d00fc1f f   convert:xtow.obj
 0001:0000ec61       __i64tow                   7d00fc61 f   convert:xtow.obj
 0001:0000ec93       __ui64tow                  7d00fc93 f   convert:xtow.obj
 0001:0000ecaf       ___wcstombs_mt             7d00fcaf f   convert:wcstombs.obj
 0001:0000ee64       _wcstombs                  7d00fe64 f   convert:wcstombs.obj
 0001:0000ef41       __itoa_s                   7d00ff41 f   convert:xtoa.obj
 0001:0000ef6d       __ltoa_s                   7d00ff6d f   convert:xtoa.obj
 0001:0000ef94       __ultoa_s                  7d00ff94 f   convert:xtoa.obj
 0001:0000efcf       __itoa                     7d00ffcf f   convert:xtoa.obj
 0001:0000effa       __ltoa                     7d00fffa f   convert:xtoa.obj
 0001:0000f020       __ultoa                    7d010020 f   convert:xtoa.obj
 0001:0000f10a       __i64toa_s                 7d01010a f   convert:xtoa.obj
 0001:0000f13d       __ui64toa_s                7d01013d f   convert:xtoa.obj
 0001:0000f17f       __i64toa                   7d01017f f   convert:xtoa.obj
 0001:0000f1b1       __ui64toa                  7d0101b1 f   convert:xtoa.obj
 0001:0000f1cd       _atol                      7d0101cd f   convert:atox.obj
 0001:0000f1de       _atoi                      7d0101de f   convert:atox.obj
 0001:0000f1e3       __atoi64                   7d0101e3 f   convert:atox.obj
 0001:0000f1f4       _isalpha                   7d0101f4 f i convert:_ctype.obj
 0001:0000f246       _isupper                   7d010246 f i convert:_ctype.obj
 0001:0000f293       _islower                   7d010293 f i convert:_ctype.obj
 0001:0000f2d3       _isdigit                   7d0102d3 f i convert:_ctype.obj
 0001:0000f313       _isxdigit                  7d010313 f i convert:_ctype.obj
 0001:0000f358       _isspace                   7d010358 f i convert:_ctype.obj
 0001:0000f398       _ispunct                   7d010398 f i convert:_ctype.obj
 0001:0000f3d8       _isalnum                   7d0103d8 f i convert:_ctype.obj
 0001:0000f41d       _isprint                   7d01041d f i convert:_ctype.obj
 0001:0000f462       _isgraph                   7d010462 f i convert:_ctype.obj
 0001:0000f4a7       _iscntrl                   7d0104a7 f i convert:_ctype.obj
 0001:0000f4e7       ___isascii                 7d0104e7 f i convert:_ctype.obj
 0001:0000f4f4       ___toascii                 7d0104f4 f i convert:_ctype.obj
 0001:0000f4fc       ___iscsymf                 7d0104fc f i convert:_ctype.obj
 0001:0000f516       ___iscsym                  7d010516 f i convert:_ctype.obj
 0001:0000f530       ___mbtowc_mt               7d010530 f   convert:mbtowc.obj
 0001:0000f5fd       _mbtowc                    7d0105fd f   convert:mbtowc.obj
 0001:0000f63c       ___wctomb_mt               7d01063c f   convert:wctomb.obj
 0001:0000f69f       _wctomb                    7d01069f f   convert:wctomb.obj
 0001:0000f6d3       ___towlower_mt             7d0106d3 f   convert:towlower.obj
 0001:0000f734       _towlower                  7d010734 f   convert:towlower.obj
 0001:0000f785       __tolower                  7d010785 f   convert:tolower.obj
 0001:0000f78d       ___tolower_mt              7d01078d f   convert:tolower.obj
 0001:0000f860       _tolower                   7d010860 f   convert:tolower.obj
 0001:0000fa74       _strtol                    7d010a74 f   convert:strtol.obj
 0001:0000fa8b       _strtoul                   7d010a8b f   convert:strtol.obj
 0001:0000fd2e       __strtoi64                 7d010d2e f   convert:strtoq.obj
 0001:0000fd45       __strtoui64                7d010d45 f   convert:strtoq.obj
 0001:0000fd5c       ___isctype_mt              7d010d5c f   convert:isctype.obj
 0001:0000fdda       __isctype                  7d010dda f   convert:isctype.obj
 0001:0000fe13       ___iswctype_mt             7d010e13 f   convert:iswctype.obj
 0001:0000fe6a       _iswctype                  7d010e6a f   convert:iswctype.obj
 0001:0000fec9       _is_wctype                 7d010ec9 f   convert:iswctype.obj
 0001:0000fece       __toupper                  7d010ece f   convert:toupper.obj
 0001:0000fed6       ___toupper_mt              7d010ed6 f   convert:toupper.obj
 0001:0000ffaa       _toupper                   7d010faa f   convert:toupper.obj
 0001:0000ffd9       __msize                    7d010fd9 f   heap:msize.obj
 0001:000100a7       __resetstkoflw             7d0110a7 f   heap:resetstk.obj
 0001:00010190       __aulldvrm                 7d011190 f   helper:ulldvrm.obj
 0001:00010230       __allmul                   7d011230 f   helper:llmul.obj
 0001:00010264       __write_lk                 7d011264 f   lowio:write.obj
 0001:0001042d       __write                    7d01142d f   lowio:write.obj
 0001:000104d5       __commit                   7d0114d5 f   lowio:commit.obj
 0001:0001058e       __lseek_lk                 7d01158e f   lowio:lseek.obj
 0001:00010600       __lseek                    7d011600 f   lowio:lseek.obj
 0001:000106a8       __isatty                   7d0116a8 f   lowio:isatty.obj
 0001:000106d2       __close_lk                 7d0116d2 f   lowio:close.obj
 0001:00010755       __close                    7d011755 f   lowio:close.obj
 0001:000107ed       __lseeki64_lk              7d0117ed f   lowio:lseeki64.obj
 0001:00010870       __lseeki64                 7d011870 f   lowio:lseeki64.obj
 0001:0001092b       __set_osfhnd               7d01192b f   lowio:osfinfo.obj
 0001:000109a4       __free_osfhnd              7d0119a4 f   lowio:osfinfo.obj
 0001:00010a20       __get_osfhandle            7d011a20 f   lowio:osfinfo.obj
 0001:00010a60       __lock_fhandle             7d011a60 f   lowio:osfinfo.obj
 0001:00010afd       __unlock_fhandle           7d011afd f   lowio:osfinfo.obj
 0001:00010b1f       __alloc_osfhnd             7d011b1f f   lowio:osfinfo.obj
 0001:00010c9b       __open_osfhandle           7d011c9b f   lowio:osfinfo.obj
 0001:00010d64       __mbsnbcat                 7d011d64 f   mbstring:mbsnbcat.obj
 0001:00010e34       ___mbsbtype_mt             7d011e34 f   mbstring:mbsbtype.obj
 0001:00010e72       __mbsbtype                 7d011e72 f   mbstring:mbsbtype.obj
 0001:00010e99       ___mbbtype_mt              7d011e99 f   mbstring:mbbtype.obj
 0001:00010ee3       __mbbtype                  7d011ee3 f   mbstring:mbbtype.obj
 0001:00010f26       ___crtCompareStringW       7d011f26 f   misc:w_cmp.obj
 0001:00011193       __invalid_parameter        7d012193 f   misc:invarg.obj
 0001:0001119f       __set_invalid_parameter_handler 7d01219f f   misc:invarg.obj
 0001:000111af       __getenv_lk                7d0121af f   misc:getenv.obj
 0001:00011223       _getenv                    7d012223 f   misc:getenv.obj
 0001:00011262       ___crtLCMapStringW         7d012262 f   misc:w_map.obj
 0001:000114da       ___crtGetStringTypeW       7d0124da f   misc:w_str.obj
 0001:00011722       ___wtomb_environ           7d012722 f   misc:wtombenv.obj
 0001:0001185d       ___crtsetenv               7d01285d f   misc:setenv.obj
 0001:00011a30       _strncat                   7d012a30 f   string:strncat.obj
 0001:00011b65       __mbsnbicoll               7d012b65 f   mbstring:mbsnbico.obj
 0001:00011bb3       __mbschr                   7d012bb3 f   mbstring:mbschr.obj
 0001:00011c31       ___crtCompareStringA       7d012c31 f   misc:a_cmp.obj
 0001:00011fe0       __atodbl                   7d012fe0 f   convert:atodbl.obj
 0001:00012045       __atoldbl                  7d013045 f   convert:atodbl.obj
 0001:000120ab       __atoflt                   7d0130ab f   convert:atodbl.obj
 0001:00012147       __fcvt_s                   7d013147 f   convert:fcvt.obj
 0001:000121ba       __fcvt                     7d0131ba f   convert:fcvt.obj
 0001:00012223       __ecvt_s                   7d013223 f   convert:fcvt.obj
 0001:000122a2       __ecvt                     7d0132a2 f   convert:fcvt.obj
 0001:0001230b       __gcvt_s                   7d01330b f   convert:gcvt.obj
 0001:00012443       __gcvt                     7d013443 f   convert:gcvt.obj
 0001:0001247e       __mbstrlen                 7d01347e f   convert:_mbslen.obj
 0001:000124fa       __swab                     7d0134fa f   convert:swab.obj
 0001:000127bd       __wcstoi64                 7d0137bd f   convert:wcstoq.obj
 0001:000127d4       __wcstoui64                7d0137d4 f   convert:wcstoq.obj
 0001:000127eb       __wtof                     7d0137eb f   convert:wtof.obj
 0001:00012848       __wtol                     7d013848 f   convert:wtox.obj
 0001:00012859       __wtoi                     7d013859 f   convert:wtox.obj
 0001:0001285e       __wtoi64                   7d01385e f   convert:wtox.obj
 0001:0001286f       _atof                      7d01386f f   convert:atof.obj
 0001:000128c8       _isleadbyte                7d0138c8 f i convert:_wctype.obj
 0001:000128dc       _iswalpha                  7d0138dc f i convert:_wctype.obj
 0001:000128ed       _iswupper                  7d0138ed f i convert:_wctype.obj
 0001:000128fb       _iswlower                  7d0138fb f i convert:_wctype.obj
 0001:00012909       _iswdigit                  7d013909 f i convert:_wctype.obj
 0001:00012917       _iswxdigit                 7d013917 f i convert:_wctype.obj
 0001:00012928       _iswspace                  7d013928 f i convert:_wctype.obj
 0001:00012936       _iswpunct                  7d013936 f i convert:_wctype.obj
 0001:00012944       _iswalnum                  7d013944 f i convert:_wctype.obj
 0001:00012955       _iswprint                  7d013955 f i convert:_wctype.obj
 0001:00012966       _iswgraph                  7d013966 f i convert:_wctype.obj
 0001:00012977       _iswcntrl                  7d013977 f i convert:_wctype.obj
 0001:00012985       _iswascii                  7d013985 f i convert:_wctype.obj
 0001:00012991       _mblen                     7d013991 f   convert:mblen.obj
 0001:00012a2c       ___mbstowcs_mt             7d013a2c f   convert:mbstowcs.obj
 0001:00012b2b       _mbstowcs                  7d013b2b f   convert:mbstowcs.obj
 0001:00012b63       _strtod                    7d013b63 f   convert:strtod.obj
 0001:00012c27       ___towupper_mt             7d013c27 f   convert:towupper.obj
 0001:00012c88       _towupper                  7d013c88 f   convert:towupper.obj
 0001:00012cd1       _wcstod                    7d013cd1 f   convert:wcstod.obj
 0001:00012f8a       _wcstol                    7d013f8a f   convert:wcstol.obj
 0001:00012fa1       _wcstoul                   7d013fa1 f   convert:wcstol.obj
 0001:00012fb8       __fptostr                  7d013fb8 f   convert:_fptostr.obj
 0001:00013073       __wchartodigit             7d014073 f   convert:wchtodig.obj
 0001:000131e9       __sleep                    7d0141e9 f   direct:slbeep.obj
 0001:000131fa       __beep                     7d0141fa f   direct:slbeep.obj
 0001:00013209       __findclose                7d014209 f   direct:findfile.obj
 0001:00013229       ___timet_from_ft           7d014229 f   direct:findfile.obj
 0001:0001328d       __findfirst32              7d01428d f   direct:findfile.obj
 0001:0001336a       __findnext32               7d01436a f   direct:findfile.obj
 0001:00013442       __findfirst32i64           7d014442 f   direct:findfi64.obj
 0001:0001353c       __findnext32i64            7d01453c f   direct:findfi64.obj
 0001:00013631       __findfirst64              7d014631 f   direct:findf64.obj
 0001:00013734       __findnext64               7d014734 f   direct:findf64.obj
 0001:00013832       ___time64_t_from_ft        7d014832 f   direct:findfi32.obj
 0001:00013898       __findfirst64i32           7d014898 f   direct:findfi32.obj
 0001:00013981       __findnext64i32            7d014981 f   direct:findfi32.obj
 0001:00013a65       __getdiskfree              7d014a65 f   direct:drivfree.obj
 0001:00013ab7       __getdrives                7d014ab7 f   direct:drivemap.obj
 0001:00013abd       __seterrormode             7d014abd f   direct:seterrm.obj
 0001:00013ac8       __wfindfirst32             7d014ac8 f   direct:wfindfil.obj
 0001:00013ba5       __wfindnext32              7d014ba5 f   direct:wfindfil.obj
 0001:00013c7d       __wfindfirst32i64          7d014c7d f   direct:wfndfi64.obj
 0001:00013d7b       __wfindnext32i64           7d014d7b f   direct:wfndfi64.obj
 0001:00013e74       __wfindfirst64             7d014e74 f   direct:wfndf64.obj
 0001:00013f7b       __wfindnext64              7d014f7b f   direct:wfndf64.obj
 0001:0001407d       __wfindfirst64i32          7d01507d f   direct:wfndfi32.obj
 0001:00014166       __wfindnext64i32           7d015166 f   direct:wfndfi32.obj
 0001:0001424a       __access                   7d01524a f   dos:access.obj
 0001:00014290       __chdir                    7d015290 f   dos:chdir.obj
 0001:000143d1       __getdrive                 7d0153d1 f   dos:drive.obj
 0001:000144b4       __chdrive                  7d0154b4 f   dos:drive.obj
 0001:00014540       __chmod                    7d015540 f   dos:chmod.obj
 0001:00014581       __fullpath                 7d015581 f   dos:fullpath.obj
 0001:0001462b       __validdrive               7d01562b f   dos:getcwd.obj
 0001:00014662       __getdcwd_lk               7d015662 f   dos:getcwd.obj
 0001:0001474d       __getcwd                   7d01574d f   dos:getcwd.obj
 0001:00014793       __getdcwd                  7d015793 f   dos:getcwd.obj
 0001:000147da       __getpid                   7d0157da f   dos:getpid.obj
 0001:000147e0       __mkdir                    7d0157e0 f   dos:mkdir.obj
 0001:0001480c       __rmdir                    7d01580c f   dos:rmdir.obj
 0001:00014836       ___dtoxmode                7d015836 f   dos:stat.obj
 0001:000148ef       __stat32                   7d0158ef f   dos:stat.obj
 0001:00014c36       __stat32i64                7d015c36 f   dos:stati64.obj
 0001:0001500d       __stat64                   7d01600d f   dos:stat64.obj
 0001:00015397       __stat64i32                7d016397 f   dos:stati32.obj
 0001:00015709       _remove                    7d016709 f   dos:unlink.obj
 0001:00015733       __unlink                   7d016733 f   dos:unlink.obj
 0001:00015738       __waccess                  7d016738 f   dos:waccess.obj
 0001:0001577e       __wchdir                   7d01677e f   dos:wchdir.obj
 0001:000158be       __wchmod                   7d0168be f   dos:wchmod.obj
 0001:000158ff       __wfullpath                7d0168ff f   dos:wfullpat.obj
 0001:000159ad       __wgetdcwd_lk              7d0169ad f   dos:wgetcwd.obj
 0001:00015a9f       __wgetcwd                  7d016a9f f   dos:wgetcwd.obj
 0001:00015ae5       __wgetdcwd                 7d016ae5 f   dos:wgetcwd.obj
 0001:00015b2c       __wmkdir                   7d016b2c f   dos:wmkdir.obj
 0001:00015b58       __wremove                  7d016b58 f   dos:wunlink.obj
 0001:00015b82       __wunlink                  7d016b82 f   dos:wunlink.obj
 0001:00015b87       __wrename                  7d016b87 f   dos:wrename.obj
 0001:00015bb5       __wrmdir                   7d016bb5 f   dos:wrmdir.obj
 0001:00015bdf       ___wdtoxmode               7d016bdf f   dos:wstat.obj
 0001:00015c9e       __wstat32                  7d016c9e f   dos:wstat.obj
 0001:00015f9b       __wstat32i64               7d016f9b f   dos:wstati64.obj
 0001:00016353       __wstat64                  7d017353 f   dos:wstat64.obj
 0001:00016697       __wstat64i32               7d017697 f   dos:wstati32.obj
 0001:000169bf       _rename                    7d0179bf f   dos:rename.obj
 0001:000169ed       ??0exception@std@@QAE@XZ   7d0179ed f   eh:stdexcpt.obj
 0001:000169fe       ??0exception@std@@QAE@ABQBD@Z 7d0179fe f   eh:stdexcpt.obj
 0001:00016a3b       ??0exception@std@@QAE@ABQBDH@Z 7d017a3b f   eh:stdexcpt.obj
 0001:00016a53       ??0exception@std@@QAE@ABV01@@Z 7d017a53 f   eh:stdexcpt.obj
 0001:00016a9d       ??1exception@std@@UAE@XZ   7d017a9d f   eh:stdexcpt.obj
 0001:00016ab3       ?what@exception@@UBEPBDXZ  7d017ab3 f   eh:oldexcpt.obj
 0001:00016ab3       ?what@exception@std@@UBEPBDXZ 7d017ab3 f   eh:stdexcpt.obj
 0001:00016ac0       ??0bad_cast@std@@QAE@PBD@Z 7d017ac0 f   eh:stdexcpt.obj
 0001:00016ad9       ??0bad_cast@std@@QAE@ABV01@@Z 7d017ad9 f   eh:stdexcpt.obj
 0001:00016af1       ??1bad_cast@std@@UAE@XZ    7d017af1 f   eh:stdexcpt.obj
 0001:00016afc       ??0bad_cast@std@@AAE@PBQBD@Z 7d017afc f   eh:stdexcpt.obj
 0001:00016b14       ??0bad_typeid@std@@QAE@PBD@Z 7d017b14 f   eh:stdexcpt.obj
 0001:00016b2d       ??0bad_typeid@std@@QAE@ABV01@@Z 7d017b2d f   eh:stdexcpt.obj
 0001:00016b45       ??1bad_typeid@std@@UAE@XZ  7d017b45 f   eh:stdexcpt.obj
 0001:00016b45       ??1__non_rtti_object@std@@UAE@XZ 7d017b45 f   eh:stdexcpt.obj
 0001:00016b50       ??0__non_rtti_object@std@@QAE@PBD@Z 7d017b50 f   eh:stdexcpt.obj
 0001:00016b68       ??0__non_rtti_object@std@@QAE@ABV01@@Z 7d017b68 f   eh:stdexcpt.obj
 0001:00016b80       ??_Eexception@std@@UAEPAXI@Z 7d017b80 f i eh:stdexcpt.obj
 0001:00016bc9       ??_Fbad_cast@std@@QAEXXZ   7d017bc9 f i eh:stdexcpt.obj
 0001:00016bd4       ??_Ebad_cast@std@@UAEPAXI@Z 7d017bd4 f i eh:stdexcpt.obj
 0001:00016c23       ??_Fbad_typeid@std@@QAEXXZ 7d017c23 f i eh:stdexcpt.obj
 0001:00016c2e       ??_E__non_rtti_object@std@@UAEPAXI@Z 7d017c2e f i eh:stdexcpt.obj
 0001:00016c2e       ??_Ebad_typeid@std@@UAEPAXI@Z 7d017c2e f i eh:stdexcpt.obj
 0001:00016c7d       ??4exception@std@@QAEAAV01@ABV01@@Z 7d017c7d f   eh:stdexcpt.obj
 0001:00016c9c       ??4bad_typeid@std@@QAEAAV01@ABV01@@Z 7d017c9c f i eh:stdexcpt.obj
 0001:00016c9c       ??4__non_rtti_object@std@@QAEAAV01@ABV01@@Z 7d017c9c f i eh:stdexcpt.obj
 0001:00016c9c       ??4bad_cast@std@@QAEAAV01@ABV01@@Z 7d017c9c f i eh:stdexcpt.obj
 0001:00016cae       ??1type_info@@UAE@XZ       7d017cae f   eh:typname.obj
 0001:00016d26       ?name@type_info@@QBEPBDPAU__type_info_node@@@Z 7d017d26 f   eh:typname.obj
 0001:00016e0b       ??_Etype_info@@UAEPAXI@Z   7d017e0b f i eh:typname.obj
 0001:00016e54       ??8type_info@@QBE_NABV0@@Z 7d017e54 f   eh:typinfo.obj
 0001:00016e6f       ??9type_info@@QBE_NABV0@@Z 7d017e6f f   eh:typinfo.obj
 0001:00016e8b       ?before@type_info@@QBEHABV1@@Z 7d017e8b f   eh:typinfo.obj
 0001:00016eaa       ?raw_name@type_info@@QBEPBDXZ 7d017eaa f   eh:typinfo.obj
 0001:00016eae       ??1exception@@UAE@XZ       7d017eae f   eh:oldexcpt.obj
 0001:00016ec4       ??_Eexception@@UAEPAXI@Z   7d017ec4 f i eh:oldexcpt.obj
 0001:00016f0d       ??1bad_exception@std@@UAE@XZ 7d017f0d f i eh:frame.obj
 0001:00016f18       ??_Ebad_exception@std@@UAEPAXI@Z 7d017f18 f i eh:frame.obj
 0001:00016f18       ??_Gbad_exception@std@@UAEPAXI@Z 7d017f18 f i eh:frame.obj
 0001:00016f3a       ?__TypeMatch@@YAHPBU_s_HandlerType@@PBU_s_CatchableType@@PBU_s_ThrowInfo@@@Z 7d017f3a f   eh:frame.obj
 0001:00016f96       ?__FrameUnwindFilter@@YAHPAU_EXCEPTION_POINTERS@@@Z 7d017f96 f   eh:frame.obj
 0001:00016fb8       ___FrameUnwindToState      7d017fb8 f   eh:frame.obj
 0001:00017096       ___DestructExceptionObject 7d018096 f   eh:frame.obj
 0001:000170fa       ?__uncaught_exception@@YA_NXZ 7d0180fa f   eh:frame.obj
 0001:0001710d       ___CxxRegisterExceptionObject 7d01810d f   eh:frame.obj
 0001:000171b9       ___CxxDetectRethrow        7d0181b9 f   eh:frame.obj
 0001:000171f1       ___CxxUnregisterExceptionObject 7d0181f1 f   eh:frame.obj
 0001:000172a4       ___CxxQueryExceptionSize   7d0182a4 f   eh:frame.obj
 0001:000172a8       ___CxxCallUnwindDtor       7d0182a8 f   eh:frame.obj
 0001:000172d7       ___CxxCallUnwindVecDtor    7d0182d7 f   eh:frame.obj
 0001:000175a8       ?__BuildCatchObject@@YAXPAUEHExceptionRecord@@PAXPBU_s_HandlerType@@PBU_s_CatchableType@@@Z 7d0185a8 f   eh:frame.obj
 0001:00017739       ___CxxExceptionFilter      7d018739 f   eh:frame.obj
 0001:00017ce5       ??0bad_exception@std@@QAE@ABV01@@Z 7d018ce5 f i eh:frame.obj
 0001:00017cfd       ___InternalCxxFrameHandler 7d018cfd f   eh:frame.obj
 0001:00017db8       ?set_terminate@@YAP6AXXZP6AXXZ@Z 7d018db8 f   eh:user.obj
 0001:00017dd1       ?set_unexpected@@YAP6AXXZP6AXXZ@Z 7d018dd1 f   eh:user.obj
 0001:00017dea       ?_set_se_translator@@YAP6AXIPAU_EXCEPTION_POINTERS@@@ZP6AXI0@Z@Z 7d018dea f   eh:user.obj
 0001:00017e03       ?terminate@@YAXXZ          7d018e03 f   eh:hooks.obj
 0001:00017e38       ?unexpected@@YAXXZ         7d018e38 f   eh:hooks.obj
 0001:00017e50       ?_inconsistency@@YAXXZ     7d018e50 f   eh:hooks.obj
 0001:00017e7d       __CxxThrowException@8      7d018e7d f   eh:throw.obj
 0001:00017eb8       __EH_prolog                7d018eb8 f   eh:ehprolog.obj
 0001:00017ee0       __CallSettingFrame@12      7d018ee0 f   eh:lowhelpr.obj
 0001:00017f07       __NLG_Return               7d018f07     eh:lowhelpr.obj
 0001:00017f2c       ?_JumpToContinuation@@YGXPAXPAUEHRegistrationNode@@@Z 7d018f2c f   eh:trnsctrl.obj
 0001:00017f5c       ?_CallMemberFunction2@@YGXPAX00H@Z 7d018f5c f   eh:trnsctrl.obj
 0001:00017f5c       ?_CallMemberFunction1@@YGXPAX00@Z 7d018f5c f   eh:trnsctrl.obj
 0001:00017f5c       ?_CallMemberFunction0@@YGXPAX0@Z 7d018f5c f   eh:trnsctrl.obj
 0001:00017f63       ?_UnwindNestedFrames@@YGXPAUEHRegistrationNode@@PAUEHExceptionRecord@@@Z 7d018f63 f   eh:trnsctrl.obj
 0001:00017fb5       ___CxxFrameHandler         7d018fb5 f   eh:trnsctrl.obj
 0001:00017fb5       ___CxxFrameHandler2        7d018fb5 f   eh:trnsctrl.obj
 0001:00017feb       ___CxxLongjmpUnwind@4      7d018feb f   eh:trnsctrl.obj
 0001:00018040       ?_CallSETranslator@@YAHPAUEHExceptionRecord@@PAUEHRegistrationNode@@PAX2PBU_s_FuncInfo@@H1@Z 7d019040 f   eh:trnsctrl.obj
 0001:000181bb       ?_GetRangeOfTrysToCheck@@YAPBU_s_TryBlockMapEntry@@PBU_s_FuncInfo@@HHPAI1@Z 7d0191bb f   eh:trnsctrl.obj
 0001:0001822e       ?_CreateFrameInfo@@YAPAUFrameInfo@@PAU1@PAX@Z 7d01922e f   eh:trnsctrl.obj
 0001:00018256       ?IsExceptionObjectToBeDestroyed@@YAHPAX@Z 7d019256 f   eh:trnsctrl.obj
 0001:00018277       ?_FindAndUnlinkFrame@@YAXPAUFrameInfo@@@Z 7d019277 f   eh:trnsctrl.obj
 0001:000182c3       ?_CallCatchBlock2@@YAPAXPAUEHRegistrationNode@@PBU_s_FuncInfo@@PAXHK@Z 7d0192c3 f   eh:trnsctrl.obj
 0001:0001831c       ___RTtypeid                7d01931c f   eh:rtti.obj
 0001:00018442       ___RTCastToVoid            7d019442 f   eh:rtti.obj
 0001:000186cd       ___RTDynamicCast           7d0196cd f   eh:rtti.obj
 0001:000187ad       ?Destructor@HeapManager@@QAEXXZ 7d0197ad f i eh:undname.obj
 0001:000187d3       ?getNumberOfDimensions@UnDecorator@@CAHXZ 7d0197d3 f   eh:undname.obj
 0001:00018836       ?getTypeEncoding@UnDecorator@@CAHXZ 7d019836 f i eh:undname.obj
 0001:00018c6e       ?UScore@UnDecorator@@SAPBDW4Tokens@@@Z 7d019c6e f   eh:undname.obj
 0001:00018c87       ?getMemory@HeapManager@@QAEPAXIH@Z 7d019c87 f   eh:undname.obj
 0001:00018d0b       ??0DName@@QAE@ABV0@@Z      7d019d0b f i eh:undname.obj
 0001:00018d74       ??4DName@@QAEAAV0@ABV0@@Z  7d019d74 f   eh:undname.obj
 0001:00018ddf       ??AReplicator@@QBEABVDName@@H@Z 7d019ddf f   eh:undname.obj
 0001:00018e04       ??YDNameNode@@QAEAAV0@PAV0@@Z 7d019e04 f   eh:undname.obj
 0001:00018e2d       ?length@charNode@@UBEHXZ   7d019e2d f i eh:undname.obj
 0001:00018e31       ?getLastChar@charNode@@UBEDXZ 7d019e31 f i eh:undname.obj
 0001:00018e35       ?getString@charNode@@UBEPADPADH@Z 7d019e35 f   eh:undname.obj
 0001:00018e50       ?length@DNameStatusNode@@UBEHXZ 7d019e50 f i eh:undname.obj
 0001:00018e50       ?length@pcharNode@@UBEHXZ  7d019e50 f i eh:undname.obj
 0001:00018e54       ??0pDNameNode@@QAE@PAVDName@@@Z 7d019e54 f   eh:undname.obj
 0001:00018e83       ??0DNameStatusNode@@QAE@W4DNameStatus@@@Z 7d019e83 f   eh:undname.obj
 0001:00018ea8       ?getLastChar@DNameStatusNode@@UBEDXZ 7d019ea8 f i eh:undname.obj
 0001:00018ed5       ?getDataIndirectType@UnDecorator@@CA?AVDName@@XZ 7d019ed5 f i eh:undname.obj
 0001:00018f08       ?getThisType@UnDecorator@@CA?AVDName@@XZ 7d019f08 f i eh:undname.obj
 0001:00018f3c       ??0DName@@QAE@PAV0@@Z      7d019f3c f   eh:undname.obj
 0001:00018f92       ??0DName@@QAE@W4DNameStatus@@@Z 7d019f92 f   eh:undname.obj
 0001:00018ff3       ?isValid@DName@@QBEHXZ     7d019ff3 f   eh:undname.obj
 0001:0001900a       ?isEmpty@DName@@QBEHXZ     7d01a00a f   eh:undname.obj
 0001:0001901f       ?isUDC@DName@@QBEHXZ       7d01a01f f i eh:undname.obj
 0001:00019033       ?length@DName@@QBEHXZ      7d01a033 f   eh:undname.obj
 0001:00019058       ?getLastChar@DName@@QBEDXZ 7d01a058 f   eh:undname.obj
 0001:00019090       ?getString@DName@@QBEPADPADH@Z 7d01a090 f   eh:undname.obj
 0001:00019121       ??_5DName@@QAEAAV0@ABV0@@Z 7d01a121 f   eh:undname.obj
 0001:00019156       ??4DName@@QAEAAV0@W4DNameStatus@@@Z 7d01a156 f   eh:undname.obj
 0001:000191d7       ??0Replicator@@QAE@XZ      7d01a1d7 f i eh:undname.obj
 0001:000191f5       ??YReplicator@@QAEAAV0@ABVDName@@@Z 7d01a1f5 f   eh:undname.obj
 0001:0001923c       ?clone@DNameNode@@QAEPAV1@XZ 7d01a23c f   eh:undname.obj
 0001:00019283       ??0pcharNode@@QAE@PBDH@Z   7d01a283 f   eh:undname.obj
 0001:000192e8       ?getLastChar@pcharNode@@UBEDXZ 7d01a2e8 f i eh:undname.obj
 0001:000192fa       ?getString@pcharNode@@UBEPADPADH@Z 7d01a2fa f   eh:undname.obj
 0001:0001932b       ?length@pDNameNode@@UBEHXZ 7d01a32b f i eh:undname.obj
 0001:0001933a       ?getLastChar@pDNameNode@@UBEDXZ 7d01a33a f i eh:undname.obj
 0001:00019349       ?getString@pDNameNode@@UBEPADPADH@Z 7d01a349 f   eh:undname.obj
 0001:00019366       ?getString@DNameStatusNode@@UBEPADPADH@Z 7d01a366 f   eh:undname.obj
 0001:00019399       ??0UnDecorator@@QAE@PADPBDHP6APADJ@ZK@Z 7d01a399 f i eh:undname.obj
 0001:0001940c       ?getReturnType@UnDecorator@@CA?AVDName@@PAV2@@Z 7d01a40c f   eh:undname.obj
 0001:0001943b       ??YDName@@QAEAAV0@W4DNameStatus@@@Z 7d01a43b f   eh:undname.obj
 0001:000194b4       ?doPchar@DName@@AAEXPBDH@Z 7d01a4b4 f   eh:undname.obj
 0001:0001955a       ??0DName@@QAE@D@Z          7d01a55a f   eh:undname.obj
 0001:00019580       ??0DName@@QAE@PBD@Z        7d01a580 f   eh:undname.obj
 0001:000195b1       ??0DName@@QAE@AAPBDD@Z     7d01a5b1 f   eh:undname.obj
 0001:0001967d       ??0DName@@QAE@_K@Z         7d01a67d f   eh:undname.obj
 0001:000196ed       ??0DName@@QAE@_J@Z         7d01a6ed f   eh:undname.obj
 0001:00019780       ??HDName@@QBE?AV0@W4DNameStatus@@@Z 7d01a780 f   eh:undname.obj
 0001:000197ae       ??YDName@@QAEAAV0@ABV0@@Z  7d01a7ae f   eh:undname.obj
 0001:00019810       ??4DName@@QAEAAV0@D@Z      7d01a810 f   eh:undname.obj
 0001:0001982c       ??4DName@@QAEAAV0@PBD@Z    7d01a82c f   eh:undname.obj
 0001:00019856       ?getCallingConvention@UnDecorator@@CA?AVDName@@XZ 7d01a856 f   eh:undname.obj
 0001:000198fc       ?getVCallThunkType@UnDecorator@@CA?AVDName@@XZ 7d01a8fc f i eh:undname.obj
 0001:00019933       ??HDName@@QBE?AV0@ABV0@@Z  7d01a933 f   eh:undname.obj
 0001:00019984       ??YDName@@QAEAAV0@D@Z      7d01a984 f   eh:undname.obj
 0001:000199ee       ??YDName@@QAEAAV0@PBD@Z    7d01a9ee f   eh:undname.obj
 0001:00019a5a       ?getArgumentList@UnDecorator@@CA?AVDName@@XZ 7d01aa5a f   eh:undname.obj
 0001:00019b3a       ?getVdispMapType@UnDecorator@@CA?AVDName@@ABV2@@Z 7d01ab3a f i eh:undname.obj
 0001:00019b89       ??H@YA?AVDName@@DABV0@@Z   7d01ab89 f i eh:undname.obj
 0001:00019bab       ??H@YA?AVDName@@W4DNameStatus@@ABV0@@Z 7d01abab f i eh:undname.obj
 0001:00019bcd       ??H@YA?AVDName@@PBDABV0@@Z 7d01abcd f i eh:undname.obj
 0001:00019bef       ??HDName@@QBE?AV0@D@Z      7d01abef f   eh:undname.obj
 0001:00019c1d       ??HDName@@QBE?AV0@PBD@Z    7d01ac1d f   eh:undname.obj
 0001:00019c4b       ?getDimension@UnDecorator@@CA?AVDName@@_N@Z 7d01ac4b f   eh:undname.obj
 0001:00019d8c       ?getEnumType@UnDecorator@@CA?AVDName@@XZ 7d01ad8c f i eh:undname.obj
 0001:00019e5e       ?getArgumentTypes@UnDecorator@@CA?AVDName@@XZ 7d01ae5e f   eh:undname.obj
 0001:00019ef0       ?getThrowTypes@UnDecorator@@CA?AVDName@@XZ 7d01aef0 f   eh:undname.obj
 0001:00019f6e       ?getArrayType@UnDecorator@@CA?AVDName@@ABV2@@Z 7d01af6e f i eh:undname.obj
 0001:0001a0cb       ?getLexicalFrame@UnDecorator@@CA?AVDName@@XZ 7d01b0cb f i eh:undname.obj
 0001:0001a0fc       ?getVfTableType@UnDecorator@@CA?AVDName@@ABV2@@Z 7d01b0fc f i eh:undname.obj
 0001:0001a24c       ?getStringEncoding@UnDecorator@@CA?AVDName@@PADH@Z 7d01b24c f   eh:undname.obj
 0001:0001a2ec       ?getSignedDimension@UnDecorator@@CA?AVDName@@XZ 7d01b2ec f   eh:undname.obj
 0001:0001a33c       ?getTemplateConstant@UnDecorator@@CA?AVDName@@XZ 7d01b33c f   eh:undname.obj
 0001:0001a5d6       ?getPtrRefDataType@UnDecorator@@CA?AVDName@@ABV2@H@Z 7d01b5d6 f i eh:undname.obj
 0001:0001a695       ?getTemplateArgumentList@UnDecorator@@CA?AVDName@@XZ 7d01b695 f   eh:undname.obj
 0001:0001a846       ?getOperatorName@UnDecorator@@CA?AVDName@@_NPA_N@Z 7d01b846 f i eh:undname.obj
 0001:0001ad1b       ?getTemplateName@UnDecorator@@CA?AVDName@@_N@Z 7d01bd1b f   eh:undname.obj
 0001:0001ae6e       ?getZName@UnDecorator@@CA?AVDName@@_N@Z 7d01be6e f   eh:undname.obj
 0001:0001b044       ?getScopedName@UnDecorator@@CA?AVDName@@XZ 7d01c044 f   eh:undname.obj
 0001:0001b128       ?getECSUDataType@UnDecorator@@CA?AVDName@@XZ 7d01c128 f   eh:undname.obj
 0001:0001b228       ?getSymbolName@UnDecorator@@CA?AVDName@@XZ 7d01c228 f i eh:undname.obj
 0001:0001b26e       ?getBasedType@UnDecorator@@CA?AVDName@@XZ 7d01c26e f   eh:undname.obj
 0001:0001b300       ?composeDeclaration@UnDecorator@@CA?AVDName@@ABV2@@Z 7d01c300 f i eh:undname.obj
 0001:0001bd13       ?getDecoratedName@UnDecorator@@CA?AVDName@@XZ 7d01cd13 f   eh:undname.obj
 0001:0001bed5       ?getScope@UnDecorator@@CA?AVDName@@XZ 7d01ced5 f   eh:undname.obj
 0001:0001c150       ?getFunctionIndirectType@UnDecorator@@CA?AVDName@@ABV2@@Z 7d01d150 f   eh:undname.obj
 0001:0001c491       ?getDataIndirectType@UnDecorator@@CA?AVDName@@ABV2@D0H@Z 7d01d491 f   eh:undname.obj
 0001:0001ca03       ??BUnDecorator@@QAEPADXZ   7d01da03 f i eh:undname.obj
 0001:0001cb4f       ?getPtrRefType@UnDecorator@@CA?AVDName@@ABV2@0D@Z 7d01db4f f   eh:undname.obj
 0001:0001cc65       ___unDName                 7d01dc65 f   eh:undname.obj
 0001:0001cd05       ___unDNameEx               7d01dd05 f   eh:undname.obj
 0001:0001cda5       ?getBasicDataType@UnDecorator@@CA?AVDName@@ABV2@@Z 7d01dda5 f   eh:undname.obj
 0001:0001d116       ?getPrimaryDataType@UnDecorator@@CA?AVDName@@ABV2@@Z 7d01e116 f   eh:undname.obj
 0001:0001d246       ?getDataType@UnDecorator@@CA?AVDName@@PAV2@@Z 7d01e246 f   eh:undname.obj
 0001:0001d2f5       ?getExternalDataType@UnDecorator@@CA?AVDName@@ABV2@@Z 7d01e2f5 f i eh:undname.obj
 0001:0001d359       ?__ArrayUnwind@@YGXPAXIHP6EX0@Z@Z 7d01e359 f   eh:ehvecdtr.obj
 0001:0001d3b7       ??_M@YGXPAXIHP6EX0@Z@Z     7d01e3b7 f   eh:ehvecdtr.obj
 0001:0001d417       ?__CxxUnhandledExceptionFilter@@YGJPAU_EXCEPTION_POINTERS@@@Z 7d01e417 f   eh:unhandld.obj
 0001:0001d465       ?__CxxSetUnhandledExceptionFilter@@YAHXZ 7d01e465 f   eh:unhandld.obj
 0001:0001d478       ?__CxxRestoreUnhandledExceptionFilter@@YAXXZ 7d01e478 f   eh:unhandld.obj
 0001:0001d485       ?_ValidateRead@@YAHPBXI@Z  7d01e485 f   eh:validate.obj
 0001:0001d4a1       ?_ValidateWrite@@YAHPAXI@Z 7d01e4a1 f   eh:validate.obj
 0001:0001d4bd       ?_ValidateExecute@@YAHP6GHXZ@Z 7d01e4bd f   eh:validate.obj
 0001:0001d4d5       __cwait                    7d01e4d5 f   exec:wait.obj
 0001:0001d564       __execl                    7d01e564 f   exec:execl.obj
 0001:0001d578       __execle                   7d01e578 f   exec:execle.obj
 0001:0001d599       __execlp                   7d01e599 f   exec:execlp.obj
 0001:0001d5aa       __execlpe                  7d01e5aa f   exec:execlpe.obj
 0001:0001d5cb       __execv                    7d01e5cb f   exec:execv.obj
 0001:0001d630       __execve                   7d01e630 f   exec:execve.obj
 0001:0001d770       __execvp                   7d01e770 f   exec:execvp.obj
 0001:0001d783       __execvpe                  7d01e783 f   exec:execvpe.obj
 0001:0001d8ed       __getdllprocaddr           7d01e8ed f   exec:getproc.obj
 0001:0001d91c       __loaddll                  7d01e91c f   exec:loaddll.obj
 0001:0001d927       __unloaddll                7d01e927 f   exec:loaddll.obj
 0001:0001d93e       __spawnl                   7d01e93e f   exec:spawnl.obj
 0001:0001d956       __spawnle                  7d01e956 f   exec:spawnle.obj
 0001:0001d97b       __spawnlp                  7d01e97b f   exec:spawnlp.obj
 0001:0001d991       __spawnlpe                 7d01e991 f   exec:spawnlpe.obj
 0001:0001d9b6       __spawnv                   7d01e9b6 f   exec:spawnv.obj
 0001:0001da20       __spawnve                  7d01ea20 f   exec:spawnve.obj
 0001:0001db69       __spawnvp                  7d01eb69 f   exec:spawnvp.obj
 0001:0001db80       __spawnvpe                 7d01eb80 f   exec:spawnvpe.obj
 0001:0001dce8       __wexecl                   7d01ece8 f   exec:wexecl.obj
 0001:0001dcfc       __wexecle                  7d01ecfc f   exec:wexecle.obj
 0001:0001dd1d       __wexeclp                  7d01ed1d f   exec:wexeclp.obj
 0001:0001dd2e       __wexeclpe                 7d01ed2e f   exec:wexeclpe.obj
 0001:0001dd4f       __wexecv                   7d01ed4f f   exec:wexecv.obj
 0001:0001ddb4       __wexecve                  7d01edb4 f   exec:wexecve.obj
 0001:0001deed       __wexecvp                  7d01eeed f   exec:wexecvp.obj
 0001:0001df00       __wexecvpe                 7d01ef00 f   exec:wexecvpe.obj
 0001:0001e04b       __wspawnl                  7d01f04b f   exec:wspawnl.obj
 0001:0001e063       __wspawnle                 7d01f063 f   exec:wspawnle.obj
 0001:0001e088       __wspawnlp                 7d01f088 f   exec:wspawnlp.obj
 0001:0001e09e       __wspawnlpe                7d01f09e f   exec:wspwnlpe.obj
 0001:0001e0c3       __wspawnv                  7d01f0c3 f   exec:wspawnv.obj
 0001:0001e12d       __wspawnve                 7d01f12d f   exec:wspawnve.obj
 0001:0001e26c       __wspawnvp                 7d01f26c f   exec:wspawnvp.obj
 0001:0001e283       __wspawnvpe                7d01f283 f   exec:wspwnvpe.obj
 0001:0001e3c3       __wsystem                  7d01f3c3 f   exec:wsystem.obj
 0001:0001e467       _system                    7d01f467 f   exec:system.obj
 0001:0001e50b       __dospawn                  7d01f50b f   exec:dospawn.obj
 0001:0001e6fc       __cenvarg                  7d01f6fc f   exec:cenvarg.obj
 0001:0001e8f5       __wdospawn                 7d01f8f5 f   exec:wdospawn.obj
 0001:0001eaed       __wcenvarg                 7d01faed f   exec:wcenvarg.obj
 0001:0001ecff       ??2@YAPAXI@Z               7d01fcff f   heap:new.obj
 0001:0001ed24       ??3@YAXPAX@Z               7d01fd24 f   heap:delete.obj
 0001:0001ed29       ??_U@YAPAXI@Z              7d01fd29 f   heap:new2.obj
 0001:0001ed2e       ??_V@YAXPAX@Z              7d01fd2e f   heap:delete2.obj
 0001:0001ed33       __aligned_offset_malloc    7d01fd33 f   heap:align.obj
 0001:0001edae       __aligned_free             7d01fdae f   heap:align.obj
 0001:0001edc3       __aligned_malloc           7d01fdc3 f   heap:align.obj
 0001:0001edd6       __aligned_offset_realloc   7d01fdd6 f   heap:align.obj
 0001:0001ef27       __aligned_realloc          7d01ff27 f   heap:align.obj
 0001:0001ef3e       __expand                   7d01ff3e f   heap:expand.obj
 0001:0001f075       __heapadd                  7d020075 f   heap:heapadd.obj
 0001:0001f084       __heapchk                  7d020084 f   heap:heapchk.obj
 0001:0001f14e       __heapset                  7d02014e f   heap:heapchk.obj
 0001:0001f153       __heapmin                  7d020153 f   heap:heapmin.obj
 0001:0001f1fc       __heapused                 7d0201fc f   heap:heapused.obj
 0001:0001f20a       __heapwalk                 7d02020a f   heap:heapwalk.obj
 0001:0001f330       __aulldiv                  7d020330 f   helper:ulldiv.obj
 0001:0001f398       __cgets                    7d020398 f   lowio:cgets.obj
 0001:0001f486       __cgetws                   7d020486 f   lowio:cgetws.obj
 0001:0001f73d       __chsize_lk                7d02073d f   lowio:chsize.obj
 0001:0001f888       __chsize                   7d020888 f   lowio:chsize.obj
 0001:0001f91c       __cputs                    7d02091c f   lowio:cputs.obj
 0001:0001f974       __putwch_lk                7d020974 f   lowio:putwch.obj
 0001:0001fa2d       __cputws                   7d020a2d f   lowio:putwch.obj
 0001:0001fa95       __putwch                   7d020a95 f   lowio:putwch.obj
 0001:0001fad8       __creat                    7d020ad8 f   lowio:creat.obj
 0001:0001fbdb       __dup                      7d020bdb f   lowio:dup.obj
 0001:0001fdcb       __dup2                     7d020dcb f   lowio:dup2.obj
 0001:0001fe93       __eof                      7d020e93 f   lowio:eof.obj
 0001:0001ff90       __filelength               7d020f90 f   lowio:flength.obj
 0001:00020063       __filelengthi64            7d021063 f   lowio:fleni64.obj
 0001:00020154       __fstat32                  7d021154 f   lowio:fstat.obj
 0001:0002040d       __fstat32i64               7d02140d f   lowio:fstati64.obj
 0001:000206e5       __fstat64                  7d0216e5 f   lowio:fstat64.obj
 0001:000209e2       __fstat64i32               7d0219e2 f   lowio:fstati32.obj
 0001:00020cc3       __ungetch_lk               7d021cc3 f   lowio:getch.obj
 0001:00020ce4       __getextendedkeycode       7d021ce4 f   lowio:getch.obj
 0001:00020d91       __getch_lk                 7d021d91 f   lowio:getch.obj
 0001:00020e54       __getche_lk                7d021e54 f   lowio:getch.obj
 0001:00020e8b       __kbhit_lk                 7d021e8b f   lowio:getch.obj
 0001:00020fa0       __ungetch                  7d021fa0 f   lowio:getch.obj
 0001:00020fe1       __getch                    7d021fe1 f   lowio:getch.obj
 0001:0002101c       __getche                   7d02201c f   lowio:getch.obj
 0001:00021057       __kbhit                    7d022057 f   lowio:getch.obj
 0001:00021092       __getwch_lk                7d022092 f   lowio:getwch.obj
 0001:00021203       __getwche_lk               7d022203 f   lowio:getwch.obj
 0001:00021244       __ungetwch_lk              7d022244 f   lowio:getwch.obj
 0001:0002126a       __getwch                   7d02226a f   lowio:getwch.obj
 0001:000212a9       __getwche                  7d0222a9 f   lowio:getwch.obj
 0001:000212e8       __ungetwch                 7d0222e8 f   lowio:getwch.obj
 0001:00021330       __inp                      7d022330 f   lowio:inp.obj
 0001:00021339       __inpw                     7d022339 f   lowio:inp.obj
 0001:00021341       __inpd                     7d022341 f   lowio:inp.obj
 0001:00021403       __locking                  7d022403 f   lowio:locking.obj
 0001:000214ab       __mktemp                   7d0224ab f   lowio:mktemp.obj
 0001:0002185d       __open                     7d02285d f   lowio:open.obj
 0001:000218b2       __sopen                    7d0228b2 f   lowio:open.obj
 0001:00021910       __outp                     7d022910 f   lowio:outp.obj
 0001:0002191d       __outpw                    7d02291d f   lowio:outp.obj
 0001:0002192a       __outpd                    7d02292a f   lowio:outp.obj
 0001:00021935       __pipe                     7d022935 f   lowio:pipe.obj
 0001:00021b31       __putch_lk                 7d022b31 f   lowio:putch.obj
 0001:00021b75       __putch                    7d022b75 f   lowio:putch.obj
 0001:00021bb4       __read_lk                  7d022bb4 f   lowio:read.obj
 0001:00021d84       __read                     7d022d84 f   lowio:read.obj
 0001:00021e2c       __setmode_lk               7d022e2c f   lowio:setmode.obj
 0001:00021e86       __setmode                  7d022e86 f   lowio:setmode.obj
 0001:00021f1a       __tell                     7d022f1a f   lowio:tell.obj
 0001:00021f2b       __telli64                  7d022f2b f   lowio:telli64.obj
 0001:00021f3e       __wcreat                   7d022f3e f   lowio:wcreat.obj
 0001:00021f54       __wmktemp                  7d022f54 f   lowio:wmktemp.obj
 0001:00022307       __wopen                    7d023307 f   lowio:wopen.obj
 0001:0002235c       __wsopen                   7d02335c f   lowio:wopen.obj
 0001:000223b1       ___initconin               7d0233b1 f   lowio:initcon.obj
 0001:000223d0       ___initconout              7d0233d0 f   lowio:initcon.obj
 0001:000223ef       ___termcon                 7d0233ef f   lowio:initcon.obj
 0001:0002244f       __ismbbkalnum              7d02344f f   mbstring:ismbbyte.obj
 0001:00022460       __ismbbkprint              7d023460 f   mbstring:ismbbyte.obj
 0001:00022471       __ismbbkpunct              7d023471 f   mbstring:ismbbyte.obj
 0001:00022482       __ismbbalnum               7d023482 f   mbstring:ismbbyte.obj
 0001:00022496       __ismbbalpha               7d023496 f   mbstring:ismbbyte.obj
 0001:000224aa       __ismbbgraph               7d0234aa f   mbstring:ismbbyte.obj
 0001:000224be       __ismbbprint               7d0234be f   mbstring:ismbbyte.obj
 0001:000224d2       __ismbbpunct               7d0234d2 f   mbstring:ismbbyte.obj
 0001:000224e3       __ismbblead                7d0234e3 f   mbstring:ismbbyte.obj
 0001:000224f4       __ismbbtrail               7d0234f4 f   mbstring:ismbbyte.obj
 0001:00022505       __ismbbkana                7d023505 f   mbstring:ismbbyte.obj
 0001:0002252c       __ismbcalnum               7d02352c f   mbstring:ismbalnm.obj
 0001:000225c1       __ismbcalpha               7d0235c1 f   mbstring:ismbalph.obj
 0001:00022656       __ismbcdigit               7d023656 f   mbstring:ismbdgt.obj
 0001:000226da       __ismbcgraph               7d0236da f   mbstring:ismbgrph.obj
 0001:0002276f       __ismbchira                7d02376f f   mbstring:ismbknj.obj
 0001:00022790       __ismbckata                7d023790 f   mbstring:ismbknj.obj
 0001:000227b9       __ismbcsymbol              7d0237b9 f   mbstring:ismbknj.obj
 0001:000227e2       __ismbcl0                  7d0237e2 f   mbstring:mbclevel.obj
 0001:0002282c       __ismbcl1                  7d02382c f   mbstring:mbclevel.obj
 0001:0002287c       __ismbcl2                  7d02387c f   mbstring:mbclevel.obj
 0001:000228cc       __ismbclegal               7d0238cc f   mbstring:ismblgl.obj
 0001:00022905       __ismbclower               7d023905 f   mbstring:ismblwr.obj
 0001:0002298f       __ismbcprint               7d02398f f   mbstring:ismbprn.obj
 0001:00022a22       __ismbcpunct               7d023a22 f   mbstring:ismbpunc.obj
 0001:00022ab3       __ismbcspace               7d023ab3 f   mbstring:ismbspc.obj
 0001:00022b37       __ismbcupper               7d023b37 f   mbstring:ismbupr.obj
 0001:00022bc1       ___ismbslead_mt            7d023bc1 f   mbstring:ismbsle.obj
 0001:00022c21       __ismbslead                7d023c21 f   mbstring:ismbsle.obj
 0001:00022c48       __ismbstrail               7d023c48 f   mbstring:ismbstr.obj
 0001:00022cd2       __mbbtombc                 7d023cd2 f   mbstring:tombbmbc.obj
 0001:00022d32       __mbctombb                 7d023d32 f   mbstring:tombbmbc.obj
 0001:00022dab       __mbccpy                   7d023dab f   mbstring:mbccpy.obj
 0001:00022dce       __mbcjistojms              7d023dce f   mbstring:tojisjms.obj
 0001:00022e2c       __mbcjmstojis              7d023e2c f   mbstring:tojisjms.obj
 0001:00022ed4       __mbclen                   7d023ed4 f   mbstring:mbclen.obj
 0001:00022ef2       __mbctohira                7d023ef2 f   mbstring:mbtohira.obj
 0001:00022f24       __mbctokata                7d023f24 f   mbstring:mbtokata.obj
 0001:00022f47       __mbctolower               7d023f47 f   mbstring:mbtolwr.obj
 0001:00022fcc       __mbctoupper               7d023fcc f   mbstring:mbtoupr.obj
 0001:00023051       __mbscoll                  7d024051 f   mbstring:mbscoll.obj
 0001:00023090       ___mbscspn_mt              7d024090 f   mbstring:mbscspn.obj
 0001:00023107       __mbscspn                  7d024107 f   mbstring:mbscspn.obj
 0001:0002312e       __mbsicoll                 7d02412e f   mbstring:mbsicoll.obj
 0001:0002316d       __mbsinc                   7d02416d f   mbstring:mbsinc.obj
 0001:00023189       __mbslen                   7d024189 f   mbstring:mbslen.obj
 0001:000231ce       __mbslwr                   7d0241ce f   mbstring:mbslwr.obj
 0001:00023253       __mbsnbcmp                 7d024253 f   mbstring:mbsnbcmp.obj
 0001:0002332e       ___mbsnbcnt_mt             7d02432e f   mbstring:mbsnbcnt.obj
 0001:00023366       __mbsnbcnt                 7d024366 f   mbstring:mbsnbcnt.obj
 0001:0002338d       __mbsnbcoll                7d02438d f   mbstring:mbsnbcol.obj
 0001:000233db       __mbsnbicmp                7d0243db f   mbstring:mbsnbicm.obj
 0001:00023566       __mbsnbset                 7d024566 f   mbstring:mbsnbset.obj
 0001:000235e2       __mbsncat                  7d0245e2 f   mbstring:mbsncat.obj
 0001:0002369e       __mbsnccnt                 7d02469e f   mbstring:mbsnccnt.obj
 0001:000236ec       __mbsncmp                  7d0246ec f   mbstring:mbsncmp.obj
 0001:00023799       __mbsncoll                 7d024799 f   mbstring:mbsncoll.obj
 0001:00023803       __mbsncpy                  7d024803 f   mbstring:mbsncpy.obj
 0001:0002388b       __mbsnextc                 7d02488b f   mbstring:mbsnextc.obj
 0001:000238b4       __mbsnicmp                 7d0248b4 f   mbstring:mbsnicmp.obj
 0001:00023a13       __mbsnicoll                7d024a13 f   mbstring:mbsnicol.obj
 0001:00023a7d       __mbsninc                  7d024a7d f   mbstring:mbsninc.obj
 0001:00023a9b       __mbsnset                  7d024a9b f   mbstring:mbsnset.obj
 0001:00023b77       __mbsrchr                  7d024b77 f   mbstring:mbsrchr.obj
 0001:00023be2       __mbsrev                   7d024be2 f   mbstring:mbsrev.obj
 0001:00023c51       __mbsset                   7d024c51 f   mbstring:mbsset.obj
 0001:00023caa       ___mbsspn_mt               7d024caa f   mbstring:mbsspn.obj
 0001:00023d21       __mbsspn                   7d024d21 f   mbstring:mbsspn.obj
 0001:00023d48       ___mbsspnp_mt              7d024d48 f   mbstring:mbsspnp.obj
 0001:00023dcd       __mbsspnp                  7d024dcd f   mbstring:mbsspnp.obj
 0001:00023df4       __mbsstr                   7d024df4 f   mbstring:mbsstr.obj
 0001:00023eac       __mbstok                   7d024eac f   mbstring:mbstok.obj
 0001:00023f57       __mbsupr                   7d024f57 f   mbstring:mbsupr.obj
 0001:00023fdc       __chkesp                   7d024fdc f   misc:chkesp.obj
 0001:00023ff4       ___lconv_init              7d024ff4 f   misc:lcnvinit.obj
 0001:00024021       ___wcserror                7d025021 f   misc:_wcserr.obj
 0001:000240d8       __abs64                    7d0250d8 f   misc:abs.obj
 0001:000240f4       __byteswap_ulong           7d0250f4 f   misc:bswap.obj
 0001:00024117       __byteswap_ushort          7d025117 f   misc:bswap.obj
 0001:00024128       __byteswap_uint64          7d025128 f   misc:bswap.obj
 0001:000241dc       __except_handler2          7d0251dc f   misc:exsup2.obj
 0001:0002428a       __lfind                    7d02528a f   misc:lfind.obj
 0001:00024328       __longjmpex                7d025328 f   misc:setjmpex.obj
 0001:0002432d       __lrotl                    7d02532d f   misc:rotl.obj
 0001:0002432d       __rotl                     7d02532d f   misc:rotl.obj
 0001:0002434a       __rotl64                   7d02534a f   misc:rotl.obj
 0001:00024382       __lrotr                    7d025382 f   misc:rotr.obj
 0001:00024382       __rotr                     7d025382 f   misc:rotr.obj
 0001:0002439f       __rotr64                   7d02539f f   misc:rotr.obj
 0001:000243d7       __lsearch                  7d0253d7 f   misc:lsearch.obj
 0001:00024485       __makepath                 7d025485 f   misc:makepath.obj
 0001:00024515       __purecall                 7d025515 f   misc:purevirt.obj
 0001:00024529       __set_purecall_handler     7d025529 f   misc:purevirt.obj
 0001:00024539       __putenv_lk                7d025539 f   misc:putenv.obj
 0001:000245f6       __putenv                   7d0255f6 f   misc:putenv.obj
 0001:00024635       __searchenv                7d025635 f   misc:searchen.obj
 0001:00024754       __setjmp                   7d025754 f   misc:setjmp.obj
 0001:0002478c       __setjmp3                  7d02578c f   misc:setjmp3.obj
 0001:00024807       __splitpath                7d025807 f   misc:splitpat.obj
 0001:0002494f       __strerror                 7d02594f f   misc:_strerr.obj
 0001:000249f8       __umask                    7d0259f8 f   misc:umask.obj
 0001:00024a0e       __wcserror                 7d025a0e f   misc:wcserror.obj
 0001:00024a68       __wgetenv_lk               7d025a68 f   misc:wgetenv.obj
 0001:00024af0       __wgetenv                  7d025af0 f   misc:wgetenv.obj
 0001:00024b2f       __wmakepath                7d025b2f f   misc:wmakepat.obj
 0001:00024be6       __wperror                  7d025be6 f   misc:wperror.obj
 0001:00024ce2       __wputenv_lk               7d025ce2 f   misc:wputenv.obj
 0001:00024da3       __wputenv                  7d025da3 f   misc:wputenv.obj
 0001:00024de2       __wsearchenv               7d025de2 f   misc:wsearche.obj
 0001:00024f17       __wsetlocale               7d025f17 f   misc:wsetloca.obj
 0001:0002501f       __wsplitpath               7d02601f f   misc:wsplitpa.obj
 0001:0002517b       _bsearch                   7d02617b f   misc:bsearch.obj
 0001:0002523f       _div                       7d02623f f   misc:div.obj
 0001:0002523f       _ldiv                      7d02623f f   misc:ldiv.obj
 0001:00025259       _labs                      7d026259 f   misc:labs.obj
 0001:00025259       _abs                       7d026259 f   misc:abs.obj
 0001:00025264       _longjmp                   7d026264 f   misc:longjmp.obj
 0001:000252dd       _perror                    7d0262dd f   misc:perror.obj
 0001:00025450       _qsort                     7d026450 f   misc:qsort.obj
 0001:00025747       _srand                     7d026747 f   misc:rand.obj
 0001:00025754       _rand                      7d026754 f   misc:rand.obj
 0001:00025776       _strerror                  7d026776 f   misc:strerror.obj
 0001:000257ca       __getpath                  7d0267ca f   misc:getpath.obj
 0001:00025839       __wgetpath                 7d026839 f   misc:wgetpath.obj
 0001:000258c2       __rt_probe_read4@4         7d0268c2 f   misc:sehsupp.obj
 0001:00025904       ?swprintf@@YAHPAGIPBGZZ    7d026904 f   stdio:swprintn.obj
 0001:00025976       __vcprintf                 7d026976 f   stdio:cprintf.obj
 0001:000261b2       __cprintf                  7d0271b2 f   stdio:cprintf.obj
 0001:00026cc8       __cscanf                   7d027cc8 f   stdio:cscanf.obj
 0001:00026d38       __vcwprintf                7d027d38 f   stdio:cwprintf.obj
 0001:000275bc       __cwprintf                 7d0285bc f   stdio:cwprintf.obj
 0001:0002817c       __cwscanf                  7d02917c f   stdio:cwscanf.obj
 0001:0002818d       __fdopen                   7d02918d f   stdio:fdopen.obj
 0001:0002828c       __fgetchar                 7d02928c f   stdio:fgetchar.obj
 0001:00028299       _getchar                   7d029299 f   stdio:fgetchar.obj
 0001:0002829e       __fgetwchar                7d02929e f   stdio:fgetwchr.obj
 0001:000282ab       _getwchar                  7d0292ab f   stdio:fgetwchr.obj
 0001:000282b0       __filbuf                   7d0292b0 f   stdio:_filbuf.obj
 0001:00028392       __fileno                   7d029392 f   stdio:fileno.obj
 0001:0002839a       __fputchar                 7d02939a f   stdio:fputchar.obj
 0001:000283af       _putchar                   7d0293af f   stdio:fputchar.obj
 0001:000283b4       __fputwchar                7d0293b4 f   stdio:fputwchr.obj
 0001:000283c9       _putwchar                  7d0293c9 f   stdio:fputwchr.obj
 0001:000283ce       __fsopen                   7d0293ce f   stdio:fopen.obj
 0001:0002842a       _fopen                     7d02942a f   stdio:fopen.obj
 0001:0002843d       __setmaxstdio              7d02943d f   stdio:setmaxf.obj
 0001:00028529       __getmaxstdio              7d029529 f   stdio:setmaxf.obj
 0001:0002852f       __getw                     7d02952f f   stdio:getw.obj
 0001:000285ac       __getws                    7d0295ac f   stdio:getws.obj
 0001:00028679       __popen                    7d029679 f   stdio:popen.obj
 0001:00028a46       __pclose                   7d029a46 f   stdio:popen.obj
 0001:00028ad5       __putw                     7d029ad5 f   stdio:putw.obj
 0001:00028b55       __putws                    7d029b55 f   stdio:putws.obj
 0001:00028c0c       __rmtmp                    7d029c0c f   stdio:rmtmp.obj
 0001:00028cb2       _sprintf                   7d029cb2 f   stdio:sprintf.obj
 0001:00028d0a       __scprintf                 7d029d0a f   stdio:sprintf.obj
 0001:00028d3b       __swprintf                 7d029d3b f   stdio:swprintf.obj
 0001:00028daa       __scwprintf                7d029daa f   stdio:swprintf.obj
 0001:00028ddb       __snprintf                 7d029ddb f   stdio:snprintf.obj
 0001:00028e32       __snprintf_c               7d029e32 f   stdio:snprnc.obj
 0001:00028e9a       __snscanf                  7d029e9a f   stdio:snscanf.obj
 0001:00028ecb       __snwprintf                7d029ecb f   stdio:snwprint.obj
 0001:00028ecb       ?swprintf@@YAHPA_WIPB_WZZ  7d029ecb f   stdio:swprintn.obj
 0001:00028f3b       __snwscanf                 7d029f3b f   stdio:snwscanf.obj
 0001:00028f6e       __swprintf_c               7d029f6e f   stdio:swprnc.obj
 0001:00029040       __tempnam                  7d02a040 f   stdio:tempnam.obj
 0001:0002920a       _vsprintf                  7d02a20a f   stdio:vsprintf.obj
 0001:00029261       __vscprintf                7d02a261 f   stdio:vsprintf.obj
 0001:00029291       __vswprintf                7d02a291 f   stdio:vswprint.obj
 0001:000292ff       __vscwprintf               7d02a2ff f   stdio:vswprint.obj
 0001:0002932f       __vsnprintf                7d02a32f f   stdio:vsnprint.obj
 0001:00029385       __vsnprintf_c              7d02a385 f   stdio:vsnprnc.obj
 0001:000293ec       __vsnwprintf               7d02a3ec f   stdio:vsnwprnt.obj
 0001:000293ec       ?vswprintf@@YAHPA_WIPB_WPAD@Z 7d02a3ec f   stdio:vswprinn.obj
 0001:0002945b       __wfdopen                  7d02a45b f   stdio:wfdopen.obj
 0001:00029561       __wfsopen                  7d02a561 f   stdio:wfopen.obj
 0001:000295bd       __wfopen                   7d02a5bd f   stdio:wfopen.obj
 0001:000295d0       __wfreopen                 7d02a5d0 f   stdio:wfreopen.obj
 0001:00029636       __wpopen                   7d02a636 f   stdio:wpopen.obj
 0001:00029a53       __wtempnam                 7d02aa53 f   stdio:wtempnam.obj
 0001:00029cd7       __wtmpnam                  7d02acd7 f   stdio:wtmpfile.obj
 0001:00029d9c       _clearerr                  7d02ad9c f   stdio:clearerr.obj
 0001:00029dfe       _feof                      7d02adfe f   stdio:feoferr.obj
 0001:00029e09       _ferror                    7d02ae09 f   stdio:feoferr.obj
 0001:00029e14       _getc                      7d02ae14 f   stdio:fgetc.obj
 0001:00029e14       _fgetc                     7d02ae14 f   stdio:fgetc.obj
 0001:00029e64       _fgetpos                   7d02ae64 f   stdio:fgetpos.obj
 0001:00029e86       _fgets                     7d02ae86 f   stdio:fgets.obj
 0001:00029f0c       __getwc_lk                 7d02af0c f   stdio:fgetwc.obj
 0001:00029ffe       _fgetwc                    7d02affe f   stdio:fgetwc.obj
 0001:0002a043       _getwc                     7d02b043 f   stdio:fgetwc.obj
 0001:0002a048       _fgetws                    7d02b048 f   stdio:fgetws.obj
 0001:0002a0c8       _fputc                     7d02b0c8 f   stdio:fputc.obj
 0001:0002a0c8       _putc                      7d02b0c8 f   stdio:fputc.obj
 0001:0002a120       _fputs                     7d02b120 f   stdio:fputs.obj
 0001:0002a191       _fputws                    7d02b191 f   stdio:fputws.obj
 0001:0002a1ff       __fread_lk                 7d02b1ff f   stdio:fread.obj
 0001:0002a2ed       _fread                     7d02b2ed f   stdio:fread.obj
 0001:0002a339       _freopen                   7d02b339 f   stdio:freopen.obj
 0001:0002a39f       _fscanf                    7d02b39f f   stdio:fscanf.obj
 0001:0002a3e9       __fseek_lk                 7d02b3e9 f   stdio:fseek.obj
 0001:0002a479       _fseek                     7d02b479 f   stdio:fseek.obj
 0001:0002a4c2       _fsetpos                   7d02b4c2 f   stdio:fsetpos.obj
 0001:0002a4da       __ftell_lk                 7d02b4da f   stdio:ftell.obj
 0001:0002a643       _ftell                     7d02b643 f   stdio:ftell.obj
 0001:0002a684       __fwrite_lk                7d02b684 f   stdio:fwrite.obj
 0001:0002a795       _fwrite                    7d02b795 f   stdio:fwrite.obj
 0001:0002a7e1       _fwscanf                   7d02b7e1 f   stdio:fwscanf.obj
 0001:0002a82b       _gets                      7d02b82b f   stdio:gets.obj
 0001:0002a8c0       _printf                    7d02b8c0 f   stdio:printf.obj
 0001:0002a944       _puts                      7d02b944 f   stdio:puts.obj
 0001:0002aa0f       _rewind                    7d02ba0f f   stdio:rewind.obj
 0001:0002aa95       _scanf                     7d02ba95 f   stdio:scanf.obj
 0001:0002aaee       _setbuf                    7d02baee f   stdio:setbuf.obj
 0001:0002ab13       _sscanf                    7d02bb13 f   stdio:sscanf.obj
 0001:0002ab47       _swscanf                   7d02bb47 f   stdio:swscanf.obj
 0001:0002ac37       _tmpnam                    7d02bc37 f   stdio:tmpfile.obj
 0001:0002acfb       _tmpfile                   7d02bcfb f   stdio:tmpfile.obj
 0001:0002ae16       __ungetc_lk                7d02be16 f   stdio:ungetc.obj
 0001:0002ae82       _ungetc                    7d02be82 f   stdio:ungetc.obj
 0001:0002aec7       __ungetwc_lk               7d02bec7 f   stdio:ungetwc.obj
 0001:0002afd4       _ungetwc                   7d02bfd4 f   stdio:ungetwc.obj
 0001:0002b01d       _vfprintf                  7d02c01d f   stdio:vfprintf.obj
 0001:0002b07a       _vfwprintf                 7d02c07a f   stdio:vfwprint.obj
 0001:0002b0d7       _vprintf                   7d02c0d7 f   stdio:vprintf.obj
 0001:0002b13c       _vwprintf                  7d02c13c f   stdio:vwprintf.obj
 0001:0002b1a1       _wprintf                   7d02c1a1 f   stdio:wprintf.obj
 0001:0002b225       _wscanf                    7d02c225 f   stdio:wscanf.obj
 0001:0002b27e       __getstream                7d02c27e f   stdio:stream.obj
 0001:0002b3a1       __openfile                 7d02c3a1 f   stdio:_open.obj
 0001:0002b535       __input                    7d02c535 f   stdio:input.obj
 0001:0002c1a8       __winput                   7d02d1a8 f   stdio:winput.obj
 0001:0002ce1f       __wopenfile                7d02de1f f   stdio:_wopen.obj
 0001:0002cfa4       __ftelli64_lk              7d02dfa4 f   stdio:ftelli64.obj
 0001:0002d14b       __ftelli64                 7d02e14b f   stdio:ftelli64.obj
 0001:0002d192       __filwbuf                  7d02e192 f   stdio:_filwbuf.obj
 0001:0002d27f       __fseeki64_lk              7d02e27f f   stdio:fseeki64.obj
 0001:0002d313       __fseeki64                 7d02e313 f   stdio:fseeki64.obj
 0001:0002d35f       ___strncnt                 7d02e35f f   string:strncnt.obj
 0001:0002d37d       ___wcsncnt                 7d02e37d f   string:wcsncnt.obj
 0001:0002d3a0       __memccpy                  7d02e3a0 f   string:memccpy.obj
 0001:0002d3fb       __memicmp                  7d02e3fb f   string:memicmp.obj
 0001:0002d483       __stricoll                 7d02e483 f   string:stricoll.obj
 0001:0002d4e7       __strlwr                   7d02e4e7 f   string:strlwr.obj
 0001:0002d605       __strncoll                 7d02e605 f   string:strncoll.obj
 0001:0002d68b       __strnicoll                7d02e68b f   string:strnicol.obj
 0001:0002d720       __strnset                  7d02e720 f   string:strnset.obj
 0001:0002d750       __strrev                   7d02e750 f   string:strrev.obj
 0001:0002d790       __strset                   7d02e790 f   string:strset.obj
 0001:0002d7b1       __strupr                   7d02e7b1 f   string:strupr.obj
 0001:0002d8cf       __wcsicoll                 7d02e8cf f   string:wcsicoll.obj
 0001:0002d979       __wcslwr                   7d02e979 f   string:wcslwr.obj
 0001:0002da9f       __wcsncoll                 7d02ea9f f   string:wcsncoll.obj
 0001:0002db25       __wcsnicmp                 7d02eb25 f   string:wcsnicmp.obj
 0001:0002dbe9       __wcsnset                  7d02ebe9 f   string:wcsnset.obj
 0001:0002dc12       __wcsrev                   7d02ec12 f   string:wcsrev.obj
 0001:0002dc44       __wcsset                   7d02ec44 f   string:wcsset.obj
 0001:0002dc5d       __wcsupr                   7d02ec5d f   string:wcsupr.obj
 0001:0002dd90       _memchr                    7d02ed90 f   string:memchr.obj
 0001:0002de3d       _strcoll                   7d02ee3d f   string:strcoll.obj
 0001:0002deb0       _strrchr                   7d02eeb0 f   string:strrchr.obj
 0001:0002dee0       _strspn                    7d02eee0 f   string:strspn.obj
 0001:0002df26       _strtok                    7d02ef26 f   string:strtok.obj
 0001:0002dfdb       _strxfrm                   7d02efdb f   string:strxfrm.obj
 0001:0002e092       _wcscoll                   7d02f092 f   string:wcscoll.obj
 0001:0002e0f6       _wcscspn                   7d02f0f6 f   string:wcscspn.obj
 0001:0002e138       _wcsncmp                   7d02f138 f   string:wcsncmp.obj
 0001:0002e16d       _wcsrchr                   7d02f16d f   string:wcsrchr.obj
 0001:0002e19d       _wcsspn                    7d02f19d f   string:wcsspn.obj
 0001:0002e1e3       _wcsstr                    7d02f1e3 f   string:wcsstr.obj
 0001:0002e242       _wcstok                    7d02f242 f   string:wcstok.obj
 0001:0002e2e9       _wcsxfrm                   7d02f2e9 f   string:wcsxfrm.obj
 0001:0002e3b0       ___ascii_memicmp           7d02f3b0 f   string:_memicmp.obj
 0001:0002e409       __ctime32_s                7d02f409 f   time:ctime.obj
 0001:0002e461       __ctime32                  7d02f461 f   time:ctime.obj
 0001:0002e49f       __ctime64_s                7d02f49f f   time:ctime64.obj
 0001:0002e4fe       __ctime64                  7d02f4fe f   time:ctime64.obj
 0001:0002e543       __difftime32               7d02f543 f   time:difftime.obj
 0001:0002e57c       __difftime64               7d02f57c f   time:difftm64.obj
 0001:0002e5cb       __ftime32                  7d02f5cb f   time:ftime.obj
 0001:0002e6e3       __ftime64                  7d02f6e3 f   time:ftime64.obj
 0001:0002e811       __futime32                 7d02f811 f   time:utime.obj
 0001:0002e957       __utime32                  7d02f957 f   time:utime.obj
 0001:0002e9d2       __futime64                 7d02f9d2 f   time:utime64.obj
 0001:0002eb1e       __utime64                  7d02fb1e f   time:utime64.obj
 0001:0002eb99       __getsystime               7d02fb99 f   time:systime.obj
 0001:0002ec14       __setsystime               7d02fc14 f   time:systime.obj
 0001:0002ec86       __gmtime32_s               7d02fc86 f   time:gmtime.obj
 0001:0002edb1       ___getgmtimebuf            7d02fdb1 f   time:gmtime.obj
 0001:0002edf9       __gmtime32                 7d02fdf9 f   time:gmtime.obj
 0001:0002ee2a       __gmtime64_s               7d02fe2a f   time:gmtime64.obj
 0001:0002f064       __gmtime64                 7d030064 f   time:gmtime64.obj
 0001:0002f095       __localtime32_s            7d030095 f   time:localtim.obj
 0001:0002f26a       __localtime32              7d03026a f   time:localtim.obj
 0001:0002f29b       __localtime64_s            7d03029b f   time:loctim64.obj
 0001:0002f4ed       __localtime64              7d0304ed f   time:loctim64.obj
 0001:0002f719       __mktime32                 7d030719 f   time:mktime.obj
 0001:0002f726       __mkgmtime32               7d030726 f   time:mktime.obj
 0001:0002f9b9       __mktime64                 7d0309b9 f   time:mktime64.obj
 0001:0002f9c6       __mkgmtime64               7d0309c6 f   time:mktime64.obj
 0001:0002f9d3       __strdate_s                7d0309d3 f   time:strdate.obj
 0001:0002fa8c       __strdate                  7d030a8c f   time:strdate.obj
 0001:0002fab1       __strtime_s                7d030ab1 f   time:strtime.obj
 0001:0002fb61       __strtime                  7d030b61 f   time:strtime.obj
 0001:0002fb86       __time32                   7d030b86 f   time:time.obj
 0001:0002fbbf       __time64                   7d030bbf f   time:time64.obj
 0001:0002fc20       __wasctime_s               7d030c20 f   time:wasctime.obj
 0001:0002fdfc       __wasctime                 7d030dfc f   time:wasctime.obj
 0001:0002fe4b       __wctime32_s               7d030e4b f   time:wctime.obj
 0001:0002fea4       __wctime32                 7d030ea4 f   time:wctime.obj
 0001:0002fee2       __wctime64_s               7d030ee2 f   time:wctime64.obj
 0001:0002ff42       __wctime64                 7d030f42 f   time:wctime64.obj
 0001:0002ff87       __wstrdate_s               7d030f87 f   time:wstrdate.obj
 0001:00030045       __wstrdate                 7d031045 f   time:wstrdate.obj
 0001:0003006a       __wstrtime_s               7d03106a f   time:wstrtime.obj
 0001:0003011e       __wstrtime                 7d03111e f   time:wstrtime.obj
 0001:00030143       __wutime32                 7d031143 f   time:wutime.obj
 0001:000301be       __wutime64                 7d0311be f   time:wutime64.obj
 0001:0003025e       _asctime_s                 7d03125e f   time:asctime.obj
 0001:0003041f       _asctime                   7d03141f f   time:asctime.obj
 0001:0003046e       _clock                     7d03146e f   time:clock.obj
 0001:000304b1       ___inittime                7d0314b1 f   time:clock.obj
 0001:000304e8       _wcsftime                  7d0314e8 f   time:wcsftime.obj
 0001:000306b2       ___loctotime32_t           7d0316b2 f   time:dtoxtime.obj
 0001:00030873       ___loctotime64_t           7d031873 f   time:dtoxtm64.obj
 0001:00030a98       _$I10_OUTPUT               7d031a98 f   conv:x10fout.obj
 0001:00030d42       ___strgtold12              7d031d42 f   conv:strgtold.obj
 0001:00031192       ___STRINGTOLD              7d032192 f   conv:strgtold.obj
 0001:000311de       __fpclear                  7d0321de f   conv:fpinit.obj
 0001:000311df       __cfltcvt_init             7d0321df f   conv:fpinit.obj
 0001:00031217       __fpmath                   7d032217 f   conv:fpinit.obj
 0001:00031235       __ZeroTail                 7d032235 f   conv:intrncvt.obj
 0001:0003126e       __IncMan                   7d03226e f   conv:intrncvt.obj
 0001:000312c2       __RoundMan                 7d0322c2 f   conv:intrncvt.obj
 0001:0003133d       __CopyMan                  7d03233d f   conv:intrncvt.obj
 0001:00031358       __IsZeroMan                7d032358 f   conv:intrncvt.obj
 0001:00031371       __ShrMan                   7d032371 f   conv:intrncvt.obj
 0001:000313f3       __ld12cvt                  7d0323f3 f   conv:intrncvt.obj
 0001:00031551       __ld12tod                  7d032551 f   conv:intrncvt.obj
 0001:00031567       __ld12tof                  7d032567 f   conv:intrncvt.obj
 0001:0003157d       __ld12told                 7d03257d f   conv:intrncvt.obj
 0001:000315f7       ___dtold                   7d0325f7 f   conv:cfout.obj
 0001:000316b2       __fltout2                  7d0326b2 f   conv:cfout.obj
 0001:0003171e       __forcdecpt                7d03271e f   conv:cvt.obj
 0001:00031782       __cropzeros                7d032782 f   conv:cvt.obj
 0001:00031803       __positive                 7d032803 f   conv:cvt.obj
 0001:00031819       __fassign                  7d032819 f   conv:cvt.obj
 0001:0003198d       __cftoe                    7d03298d f   conv:cvt.obj
 0001:00031a30       __cftoa                    7d032a30 f   conv:cvt.obj
 0001:00031e54       __cftof                    7d032e54 f   conv:cvt.obj
 0001:00031eea       __cftog                    7d032eea f   conv:cvt.obj
 0001:00031fc2       __cfltcvt                  7d032fc2 f   conv:cvt.obj
 0001:0003203c       __wfltin2                  7d03303c f   conv:wcfin.obj
 0001:000320d3       __fltin2                   7d0330d3 f   conv:cfin.obj
 0001:00032168       ___addl                    7d033168 f   conv:mantold.obj
 0001:00032189       ___add_12                  7d033189 f   conv:mantold.obj
 0001:000321e7       ___shl_12                  7d0331e7 f   conv:mantold.obj
 0001:00032215       ___shr_12                  7d033215 f   conv:mantold.obj
 0001:00032242       ___mtold12                 7d033242 f   conv:mantold.obj
 0001:00032319       ___ld12mul                 7d033319 f   conv:tenpow.obj
 0001:0003254b       ___multtenpow12            7d03354b f   conv:tenpow.obj
 0001:000325d2       ___wstrgtold12             7d0335d2 f   conv:wstrgtold.obj
 0001:00032aa0       __CIacos                   7d033aa0 f   tran:acos.obj
 0001:00032ab4       _acos                      7d033ab4     tran:acos.obj
 0001:00032b70       __CIasin                   7d033b70 f   tran:asin.obj
 0001:00032b84       _asin                      7d033b84     tran:asin.obj
 0001:00032c40       _atan                      7d033c40 f   tran:atan.obj
 0001:00032c80       __CIatan                   7d033c80 f   tran:atan.obj
 0001:00032cbb       __CIatan_default           7d033cbb f   tran:atan.obj
 0001:00032ccf       __atan_default             7d033ccf     tran:atan.obj
 0001:00032d60       _atan2                     7d033d60 f   tran:87ctriga.obj
 0001:00032d6a       __CIatan2                  7d033d6a f   tran:87ctriga.obj
 0001:00032d80       __CIcos                    7d033d80 f   tran:cos.obj
 0001:00032d94       _cos                       7d033d94     tran:cos.obj
 0001:00032e30       _sinh                      7d033e30 f   tran:87ctrigh.obj
 0001:00032e3a       _cosh                      7d033e3a f   tran:87ctrigh.obj
 0001:00032e41       _tanh                      7d033e41 f   tran:87ctrigh.obj
 0001:00032e48       __CIsinh                   7d033e48 f   tran:87ctrigh.obj
 0001:00032e52       __CIcosh                   7d033e52 f   tran:87ctrigh.obj
 0001:00032e59       __CItanh                   7d033e59 f   tran:87ctrigh.obj
 0001:00032e60       _exp                       7d033e60 f   tran:87ctran.obj
 0001:00032e9c       __CIexp                    7d033e9c f   tran:87ctran.obj
 0001:00032ed7       __exp_default              7d033ed7 f   tran:87ctran.obj
 0001:00032ee1       __CIexp_default            7d033ee1 f   tran:87ctran.obj
 0001:00032ef0       _fmod                      7d033ef0 f   tran:87fmod.obj
 0001:00032efa       __CIfmod                   7d033efa f   tran:87fmod.obj
 0001:00032f30       _log                       7d033f30 f   tran:log.obj
 0001:00032f70       __CIlog                    7d033f70 f   tran:log.obj
 0001:00032fab       __CIlog_default            7d033fab f   tran:log.obj
 0001:00032fbf       __log_default              7d033fbf     tran:log.obj
 0001:00033080       _log10                     7d034080 f   tran:log10.obj
 0001:000330c0       __CIlog10                  7d0340c0 f   tran:log10.obj
 0001:000330fb       __CIlog10_default          7d0340fb f   tran:log10.obj
 0001:0003310f       __log10_default            7d03410f     tran:log10.obj
 0001:000331d0       _pow                       7d0341d0 f   tran:pow.obj
 0001:00033210       __CIpow                    7d034210 f   tran:pow.obj
 0001:0003324b       __CIpow_default            7d03424b f   tran:pow.obj
 0001:00033264       __pow_default              7d034264     tran:pow.obj
 0001:00033460       __CIsin                    7d034460 f   tran:sin.obj
 0001:00033474       _sin                       7d034474     tran:sin.obj
 0001:00033510       __CIsqrt                   7d034510 f   tran:sqrt.obj
 0001:00033524       _sqrt                      7d034524     tran:sqrt.obj
 0001:000335d0       __CItan                    7d0345d0 f   tran:tan.obj
 0001:000335e4       _tan                       7d0345e4     tran:tan.obj
 0001:00033690       _fdiv_main_routine         7d034690 f   tran:adj_fdiv.obj
 0001:000337a7       __adj_fdiv_r               7d0347a7 f   tran:adj_fdiv.obj
 0001:00033c46       __fdivp_sti_st             7d034c46 f   tran:adj_fdiv.obj
 0001:00033c59       __fdivrp_sti_st            7d034c59 f   tran:adj_fdiv.obj
 0001:00033c6c       __adj_fdiv_m32             7d034c6c f   tran:adj_fdiv.obj
 0001:00033cb8       __adj_fdiv_m64             7d034cb8 f   tran:adj_fdiv.obj
 0001:00033d04       __adj_fdiv_m16i            7d034d04 f   tran:adj_fdiv.obj
 0001:00033d38       __adj_fdiv_m32i            7d034d38 f   tran:adj_fdiv.obj
 0001:00033d6c       __adj_fdivr_m32            7d034d6c f   tran:adj_fdiv.obj
 0001:00033db8       __adj_fdivr_m64            7d034db8 f   tran:adj_fdiv.obj
 0001:00033e04       __adj_fdivr_m16i           7d034e04 f   tran:adj_fdiv.obj
 0001:00033e38       __adj_fdivr_m32i           7d034e38 f   tran:adj_fdiv.obj
 0001:00033e6c       __safe_fdiv                7d034e6c f   tran:adj_fdiv.obj
 0001:00033e81       __safe_fdivr               7d034e81 f   tran:adj_fdiv.obj
 0001:00033e96       __fprem_common             7d034e96 f   tran:adj_fdiv.obj
 0001:0003409c       __adj_fprem                7d03509c f   tran:adj_fdiv.obj
 0001:0003414e       __fprem1_common            7d03514e f   tran:adj_fdiv.obj
 0001:00034354       __adj_fprem1               7d035354 f   tran:adj_fdiv.obj
 0001:00034409       __safe_fprem               7d035409 f   tran:adj_fdiv.obj
 0001:0003440f       __safe_fprem1              7d03540f f   tran:adj_fdiv.obj
 0001:00034415       __adj_fpatan               7d035415 f   tran:adj_fdiv.obj
 0001:00034418       __adj_fptan                7d035418 f   tran:adj_fdiv.obj
 0001:00034667       __hypot                    7d035667 f   tran:hypot.obj
 0001:00034684       __cabs                     7d035684 f   tran:hypot.obj
 0001:000346a1       __copysign                 7d0356a1 f   tran:ieeemisc.obj
 0001:000346c2       __chgsign                  7d0356c2 f   tran:ieeemisc.obj
 0001:000346e8       __scalb                    7d0356e8 f   tran:ieeemisc.obj
 0001:000346fe       __logb                     7d0356fe f   tran:ieeemisc.obj
 0001:000347e1       __nextafter                7d0357e1 f   tran:ieeemisc.obj
 0001:00034a6b       __finite                   7d035a6b f   tran:ieeemisc.obj
 0001:00034a80       __isnan                    7d035a80 f   tran:ieeemisc.obj
 0001:00034aae       __fpclass                  7d035aae f   tran:ieeemisc.obj
 0001:00034b42       __AdjustLocation           7d035b42 f   tran:filter.obj
 0001:00034b5e       __IsMemoryLocation         7d035b5e f   tran:filter.obj
 0001:00034b73       __GetFpRegVal              7d035b73 f   tran:filter.obj
 0001:00034b9d       __SetTag                   7d035b9d f   tran:filter.obj
 0001:00034bbd       __FillOperand              7d035bbd f   tran:filter.obj
 0001:00034d3d       __AdjustStack              7d035d3d f   tran:filter.obj
 0001:00034e1c       __PreventStackOverwrite    7d035e1c f   tran:filter.obj
 0001:00034e59       __SetFpRegVal              7d035e59 f   tran:filter.obj
 0001:00034ec2       __UpdateResult             7d035ec2 f   tran:filter.obj
 0001:00034fca       __UpdateFpCtxt             7d035fca f   tran:filter.obj
 0001:00035003       __fpieee_flt               7d036003 f   tran:filter.obj
 0001:00035610       __ftol                     7d036610 f   tran:ftol.obj
 0001:00035669       __j0                       7d036669 f   tran:bessel.obj
 0001:00035753       __j1                       7d036753 f   tran:bessel.obj
 0001:00035853       __jn                       7d036853 f   tran:bessel.obj
 0001:000359c3       __y0                       7d0369c3 f   tran:bessel.obj
 0001:00035aeb       __y1                       7d036aeb f   tran:bessel.obj
 0001:00035c1d       __yn                       7d036c1d f   tran:bessel.obj
 0001:00035cf0       _ceil                      7d036cf0 f   tran:ceil_pentium4.obj
 0001:00035d30       __ceil_pentium4            7d036d30 f   tran:ceil_pentium4.obj
 0001:00035e0d       _fabs                      7d036e0d f   tran:fabs.obj
 0001:00035ec0       _floor                     7d036ec0 f   tran:floor_pentium4.obj
 0001:00035f00       __floor_pentium4           7d036f00 f   tran:floor_pentium4.obj
 0001:00035fe1       _frexp                     7d036fe1 f   tran:frexp.obj
 0001:0003608d       _ldexp                     7d03708d f   tran:ldexp.obj
 0001:00036230       _modf                      7d037230 f   tran:modf_pentium4.obj
 0001:00036270       __modf_pentium4            7d037270 f   tran:modf_pentium4.obj
 0001:00036378       __ms_p5_test_fdiv          7d037378 f   tran:testfdiv.obj
 0001:000363b4       __ms_p5_mp_test_fdiv       7d0373b4 f   tran:testfdiv.obj
 0001:000363e0       __trandisp1                7d0373e0 f   tran:87disp.obj
 0001:00036447       __trandisp2                7d037447 f   tran:87disp.obj
 0001:000364d3       __rttospopde               7d0374d3     tran:87disp.obj
 0001:000364d8       __rttospop                 7d0374d8     tran:87disp.obj
 0001:000364da       __rtnospop                 7d0374da     tran:87disp.obj
 0001:000364dc       __rttosnpop                7d0374dc     tran:87disp.obj
 0001:000364dd       __rtnospopde               7d0374dd     tran:87disp.obj
 0001:000364e4       __rtzeropop                7d0374e4     tran:87disp.obj
 0001:000364e6       __rtzeronpop               7d0374e6     tran:87disp.obj
 0001:000364eb       __rtonepop                 7d0374eb     tran:87disp.obj
 0001:000364ed       __rtonenpop                7d0374ed     tran:87disp.obj
 0001:000364f2       __tosnan1                  7d0374f2     tran:87disp.obj
 0001:0003651d       __nosnan2                  7d03751d     tran:87disp.obj
 0001:0003651f       __tosnan2                  7d03751f     tran:87disp.obj
 0001:00036547       __nan2                     7d037547     tran:87disp.obj
 0001:00036586       __rtindfpop                7d037586     tran:87disp.obj
 0001:00036588       __rtindfnpop               7d037588     tran:87disp.obj
 0001:00036599       __rttosnpopde              7d037599     tran:87disp.obj
 0001:000365a3       __rtchsifneg               7d0375a3     tran:87disp.obj
 0001:000365b0       __startTwoArgErrorHandling 7d0375b0 f   tran:genexcep.obj
 0001:000365c7       __startOneArgErrorHandling 7d0375c7 f   tran:genexcep.obj
 0001:00036610       __twoToTOS                 7d037610 f   tran:common.obj
 0001:00036625       __load_CW                  7d037625 f   tran:common.obj
 0001:0003663c       __convertTOStoQNaN         7d03763c f   tran:common.obj
 0001:00036655       __fload_withFB             7d037655 f   tran:common.obj
 0001:00036698       __checkTOS_withFB          7d037698 f   tran:common.obj
 0001:000366ae       __fast_exit                7d0376ae f   tran:common.obj
 0001:000366bb       __math_exit                7d0376bb f   tran:common.obj
 0001:000366e5       __check_overflow_exit      7d0376e5 f   tran:common.obj
 0001:000366f9       __check_range_exit         7d0376f9 f   tran:common.obj
 0001:000367a0       __CIatan_pentium4          7d0377a0 f   tran:atan_pentium4.obj
 0001:000367b8       __atan_pentium4            7d0377b8     tran:atan_pentium4.obj
 0001:00036aac       __fFATN2                   7d037aac     tran:87triga.obj
 0001:00036afc       __rtpiby2                  7d037afc     tran:87triga.obj
 0001:00036b40       __cintrindisp2             7d037b40 f   tran:87cdisp.obj
 0001:00036b7e       __cintrindisp1             7d037b7e f   tran:87cdisp.obj
 0001:00036bbb       __ctrandisp2               7d037bbb f   tran:87cdisp.obj
 0001:00036d51       __ctrandisp1               7d037d51 f   tran:87cdisp.obj
 0001:00036d84       __fload                    7d037d84 f   tran:87cdisp.obj
 0001:00036dc0       __fFSINH                   7d037dc0     tran:87trigh.obj
 0001:00036e12       __fFCOSH                   7d037e12     tran:87trigh.obj
 0001:00036ec0       __CIexp_pentium4           7d037ec0 f   tran:exp_pentium4.obj
 0001:00036ed8       __exp_pentium4             7d037ed8     tran:exp_pentium4.obj
 0001:00037191       __fFEXP                    7d038191     tran:87tran.obj
 0001:000371f8       __rtinfpopse               7d0381f8     tran:87tran.obj
 0001:000371fa       __rtinfnpopse              7d0381fa     tran:87tran.obj
 0001:0003720a       __fFLN                     7d03820a     tran:87tran.obj
 0001:000372bf       __rtinfpop                 7d0382bf     tran:87tran.obj
 0001:000372c1       __rtinfnpop                7d0382c1     tran:87tran.obj
 0001:000372de       __ffexpm1                  7d0382de     tran:87tran.obj
 0001:00037390       __CIlog_pentium4           7d038390 f   tran:log_pentium4.obj
 0001:000373a8       __log_pentium4             7d0383a8     tran:log_pentium4.obj
 0001:00037600       __CIlog10_pentium4         7d038600 f   tran:log10_pentium4.obj
 0001:00037618       __log10_pentium4           7d038618     tran:log10_pentium4.obj
 0001:00037890       __CIpow_pentium4           7d038890 f   tran:pow_pentium4.obj
 0001:000378a9       __pow_pentium4             7d0388a9     tran:pow_pentium4.obj
 0001:000383e0       __d_inttype                7d0393e0 f   tran:powhlp.obj
 0001:00038444       __powhlp                   7d039444 f   tran:powhlp.obj
 0001:00038582       __raise_exc_ex             7d039582 f   tran:fpexcept.obj
 0001:0003885c       __raise_exc                7d03985c f   tran:fpexcept.obj
 0001:0003887d       __handle_exc               7d03987d f   tran:fpexcept.obj
 0001:00038a5e       __set_errno                7d039a5e f   tran:fpexcept.obj
 0001:00038a86       __errcode                  7d039a86 f   tran:fpexcept.obj
 0001:00038ab3       __umatherr                 7d039ab3 f   tran:fpexcept.obj
 0001:00038b51       __handle_qnan1             7d039b51 f   tran:fpexcept.obj
 0001:00038ba4       __handle_qnan2             7d039ba4 f   tran:fpexcept.obj
 0001:00038c03       __except1                  7d039c03 f   tran:fpexcept.obj
 0001:00038cb9       __except2                  7d039cb9 f   tran:fpexcept.obj
 0001:00038d81       __set_exp                  7d039d81 f   tran:util.obj
 0001:00038dab       __get_exp                  7d039dab f   tran:util.obj
 0001:00038dc0       __sptype                   7d039dc0 f   tran:util.obj
 0001:00038e1b       __decomp                   7d039e1b f   tran:util.obj
 0001:00038eca       _LoadOperand               7d039eca f   tran:filter_simd.obj
 0001:000390c3       _AdjustExceptionResult     7d03a0c3 f   tran:filter_simd.obj
 0001:0003928a       _UpdateResult              7d03a28a f   tran:filter_simd.obj
 0001:000393b7       _SetPniOperation           7d03a3b7 f   tran:filter_simd.obj
 0001:000399d8       __CRT_RTC_INIT             7d03a9d8 f   misc:chkesp.obj
 0001:000399d8       ___init_collate            7d03a9d8 f   misc:initcoll.obj
 0001:000399d8       ___init_dummy              7d03a9d8 f   misc:setlocal.obj
 0001:000399db       _fpieee_flt_simd           7d03a9db f   tran:filter_simd.obj
 0001:0003a424       ___libm_error_support      7d03b424 f   tran:libm_error.obj
 0001:0003a6a2       __ceil_default             7d03b6a2 f   tran:ceil.obj
 0001:0003a773       __floor_default            7d03b773 f   tran:floor.obj
 0001:0003a844       __modf_default             7d03b844 f   tran:modf.obj
 0001:0003a94e       __87except                 7d03b94e f   tran:87except.obj
 0001:0003aa46       __frnd                     7d03ba46 f   tran:frnd.obj
 0001:0003ab89       _XMMI2_FP_Emulation        7d03bb89 f   tran:xmmi2_fp_emul.obj
 0001:0003c14e       _XMMI_FP_Emulation         7d03d14e f   tran:xmmi_fp_emul.obj
 0001:0003cf30       __allshl                   7d03df30 f   helper:llshl.obj
 0001:0003cf50       __aullshr                  7d03df50 f   helper:ullshr.obj
 0001:0003cf70       __aullrem                  7d03df70 f   helper:ullrem.obj
 0001:0003cff0       __alldiv                   7d03dff0 f   helper:lldiv.obj
 0001:0003d0a0       __allrem                   7d03e0a0 f   helper:llrem.obj
 0002:00000000       __imp__GetModuleFileNameA@12 7d03f000     kernel32:KERNEL32.dll
 0002:00000004       __imp__GetModuleFileNameW@12 7d03f004     kernel32:KERNEL32.dll
 0002:00000008       __imp__ExitProcess@4       7d03f008     kernel32:KERNEL32.dll
 0002:0000000c       __imp__GetProcAddress@8    7d03f00c     kernel32:KERNEL32.dll
 0002:00000010       __imp__GetModuleHandleA@4  7d03f010     kernel32:KERNEL32.dll
 0002:00000014       __imp__WriteFile@20        7d03f014     kernel32:KERNEL32.dll
 0002:00000018       __imp__GetStdHandle@4      7d03f018     kernel32:KERNEL32.dll
 0002:0000001c       __imp__GetCurrentThreadId@0 7d03f01c     kernel32:KERNEL32.dll
 0002:00000020       __imp__GetCommandLineA@0   7d03f020     kernel32:KERNEL32.dll
 0002:00000024       __imp__HeapFree@12         7d03f024     kernel32:KERNEL32.dll
 0002:00000028       __imp__GetVersionExA@4     7d03f028     kernel32:KERNEL32.dll
 0002:0000002c       __imp__HeapAlloc@12        7d03f02c     kernel32:KERNEL32.dll
 0002:00000030       __imp__GetProcessHeap@0    7d03f030     kernel32:KERNEL32.dll
 0002:00000034       __imp__DeleteCriticalSection@4 7d03f034     kernel32:KERNEL32.dll
 0002:00000038       __imp__LeaveCriticalSection@4 7d03f038     kernel32:KERNEL32.dll
 0002:0000003c       __imp__EnterCriticalSection@4 7d03f03c     kernel32:KERNEL32.dll
 0002:00000040       __imp__ExitThread@4        7d03f040     kernel32:KERNEL32.dll
 0002:00000044       __imp__CloseHandle@4       7d03f044     kernel32:KERNEL32.dll
 0002:00000048       __imp__GetLastError@0      7d03f048     kernel32:KERNEL32.dll
 0002:0000004c       __imp__ResumeThread@4      7d03f04c     kernel32:KERNEL32.dll
 0002:00000050       __imp__CreateThread@24     7d03f050     kernel32:KERNEL32.dll
 0002:00000054       __imp__TlsAlloc@0          7d03f054     kernel32:KERNEL32.dll
 0002:00000058       __imp__SetLastError@4      7d03f058     kernel32:KERNEL32.dll
 0002:0000005c       __imp__GetCurrentThread@0  7d03f05c     kernel32:KERNEL32.dll
 0002:00000060       __imp__TlsFree@4           7d03f060     kernel32:KERNEL32.dll
 0002:00000064       __imp__TlsSetValue@8       7d03f064     kernel32:KERNEL32.dll
 0002:00000068       __imp__TlsGetValue@4       7d03f068     kernel32:KERNEL32.dll
 0002:0000006c       __imp__FindNextFileA@8     7d03f06c     kernel32:KERNEL32.dll
 0002:00000070       __imp__FindFirstFileA@8    7d03f070     kernel32:KERNEL32.dll
 0002:00000074       __imp__FindClose@4         7d03f074     kernel32:KERNEL32.dll
 0002:00000078       __imp__FindNextFileW@8     7d03f078     kernel32:KERNEL32.dll
 0002:0000007c       __imp__FindFirstFileW@8    7d03f07c     kernel32:KERNEL32.dll
 0002:00000080       __imp__Sleep@4             7d03f080     kernel32:KERNEL32.dll
 0002:00000084       __imp__GetEnvironmentVariableA@12 7d03f084     kernel32:KERNEL32.dll
 0002:00000088       __imp__HeapDestroy@4       7d03f088     kernel32:KERNEL32.dll
 0002:0000008c       __imp__HeapCreate@12       7d03f08c     kernel32:KERNEL32.dll
 0002:00000090       __imp__VirtualFree@12      7d03f090     kernel32:KERNEL32.dll
 0002:00000094       __imp__HeapReAlloc@16      7d03f094     kernel32:KERNEL32.dll
 0002:00000098       __imp__VirtualAlloc@16     7d03f098     kernel32:KERNEL32.dll
 0002:0000009c       __imp__IsBadWritePtr@8     7d03f09c     kernel32:KERNEL32.dll
 0002:000000a0       __imp__SetHandleCount@4    7d03f0a0     kernel32:KERNEL32.dll
 0002:000000a4       __imp__GetFileType@4       7d03f0a4     kernel32:KERNEL32.dll
 0002:000000a8       __imp__GetStartupInfoA@4   7d03f0a8     kernel32:KERNEL32.dll
 0002:000000ac       __imp__GetACP@0            7d03f0ac     kernel32:KERNEL32.dll
 0002:000000b0       __imp__GetOEMCP@0          7d03f0b0     kernel32:KERNEL32.dll
 0002:000000b4       __imp__GetCPInfo@8         7d03f0b4     kernel32:KERNEL32.dll
 0002:000000b8       __imp__WriteConsoleW@20    7d03f0b8     kernel32:KERNEL32.dll
 0002:000000bc       __imp__LoadLibraryA@4      7d03f0bc     kernel32:KERNEL32.dll
 0002:000000c0       __imp__MultiByteToWideChar@24 7d03f0c0     kernel32:KERNEL32.dll
 0002:000000c4       __imp__FreeEnvironmentStringsA@4 7d03f0c4     kernel32:KERNEL32.dll
 0002:000000c8       __imp__GetEnvironmentStrings@0 7d03f0c8     kernel32:KERNEL32.dll
 0002:000000cc       __imp__FreeEnvironmentStringsW@4 7d03f0cc     kernel32:KERNEL32.dll
 0002:000000d0       __imp__GetEnvironmentStringsW@0 7d03f0d0     kernel32:KERNEL32.dll
 0002:000000d4       __imp__GetCommandLineW@0   7d03f0d4     kernel32:KERNEL32.dll
 0002:000000d8       __imp__WideCharToMultiByte@32 7d03f0d8     kernel32:KERNEL32.dll
 0002:000000dc       __imp__InterlockedIncrement@4 7d03f0dc     kernel32:KERNEL32.dll
 0002:000000e0       __imp__InterlockedDecrement@4 7d03f0e0     kernel32:KERNEL32.dll
 0002:000000e4       __imp__InterlockedExchange@8 7d03f0e4     kernel32:KERNEL32.dll
 0002:000000e8       __imp__InitializeCriticalSection@4 7d03f0e8     kernel32:KERNEL32.dll
 0002:000000ec       __imp__RtlUnwind@16        7d03f0ec     kernel32:KERNEL32.dll
 0002:000000f0       __imp__UnhandledExceptionFilter@4 7d03f0f0     kernel32:KERNEL32.dll
 0002:000000f4       __imp__LCMapStringA@24     7d03f0f4     kernel32:KERNEL32.dll
 0002:000000f8       __imp__LCMapStringW@24     7d03f0f8     kernel32:KERNEL32.dll
 0002:000000fc       __imp__GetStringTypeA@20   7d03f0fc     kernel32:KERNEL32.dll
 0002:00000100       __imp__GetStringTypeW@16   7d03f100     kernel32:KERNEL32.dll
 0002:00000104       __imp__SetConsoleCtrlHandler@8 7d03f104     kernel32:KERNEL32.dll
 0002:00000108       __imp__LoadLibraryW@4      7d03f108     kernel32:KERNEL32.dll
 0002:0000010c       __imp__VirtualQuery@12     7d03f10c     kernel32:KERNEL32.dll
 0002:00000110       __imp__SetEnvironmentVariableA@8 7d03f110     kernel32:KERNEL32.dll
 0002:00000114       __imp__SetEnvironmentVariableW@8 7d03f114     kernel32:KERNEL32.dll
 0002:00000118       __imp__GetUserDefaultLCID@0 7d03f118     kernel32:KERNEL32.dll
 0002:0000011c       __imp__GetLocaleInfoA@16   7d03f11c     kernel32:KERNEL32.dll
 0002:00000120       __imp__EnumSystemLocalesA@8 7d03f120     kernel32:KERNEL32.dll
 0002:00000124       __imp__IsValidLocale@8     7d03f124     kernel32:KERNEL32.dll
 0002:00000128       __imp__IsValidCodePage@4   7d03f128     kernel32:KERNEL32.dll
 0002:0000012c       __imp__QueryPerformanceCounter@4 7d03f12c     kernel32:KERNEL32.dll
 0002:00000130       __imp__GetTickCount@0      7d03f130     kernel32:KERNEL32.dll
 0002:00000134       __imp__GetCurrentProcessId@0 7d03f134     kernel32:KERNEL32.dll
 0002:00000138       __imp__GetSystemTimeAsFileTime@4 7d03f138     kernel32:KERNEL32.dll
 0002:0000013c       __imp__GetLocaleInfoW@16   7d03f13c     kernel32:KERNEL32.dll
 0002:00000140       __imp__GetTimeFormatA@24   7d03f140     kernel32:KERNEL32.dll
 0002:00000144       __imp__GetDateFormatA@24   7d03f144     kernel32:KERNEL32.dll
 0002:00000148       __imp__GetTimeZoneInformation@4 7d03f148     kernel32:KERNEL32.dll
 0002:0000014c       __imp__HeapSize@12         7d03f14c     kernel32:KERNEL32.dll
 0002:00000150       __imp__VirtualProtect@16   7d03f150     kernel32:KERNEL32.dll
 0002:00000154       __imp__GetSystemInfo@4     7d03f154     kernel32:KERNEL32.dll
 0002:00000158       __imp__FlushFileBuffers@4  7d03f158     kernel32:KERNEL32.dll
 0002:0000015c       __imp__SetFilePointer@16   7d03f15c     kernel32:KERNEL32.dll
 0002:00000160       __imp__SetStdHandle@8      7d03f160     kernel32:KERNEL32.dll
 0002:00000164       __imp__CompareStringA@24   7d03f164     kernel32:KERNEL32.dll
 0002:00000168       __imp__CompareStringW@24   7d03f168     kernel32:KERNEL32.dll
 0002:0000016c       __imp__Beep@8              7d03f16c     kernel32:KERNEL32.dll
 0002:00000170       __imp__FileTimeToSystemTime@8 7d03f170     kernel32:KERNEL32.dll
 0002:00000174       __imp__FileTimeToLocalFileTime@8 7d03f174     kernel32:KERNEL32.dll
 0002:00000178       __imp__GetDiskFreeSpaceA@20 7d03f178     kernel32:KERNEL32.dll
 0002:0000017c       __imp__GetLogicalDrives@0  7d03f17c     kernel32:KERNEL32.dll
 0002:00000180       __imp__SetErrorMode@4      7d03f180     kernel32:KERNEL32.dll
 0002:00000184       __imp__GetFileAttributesA@4 7d03f184     kernel32:KERNEL32.dll
 0002:00000188       __imp__GetCurrentDirectoryA@8 7d03f188     kernel32:KERNEL32.dll
 0002:0000018c       __imp__SetCurrentDirectoryA@4 7d03f18c     kernel32:KERNEL32.dll
 0002:00000190       __imp__SetFileAttributesA@8 7d03f190     kernel32:KERNEL32.dll
 0002:00000194       __imp__GetFullPathNameA@16 7d03f194     kernel32:KERNEL32.dll
 0002:00000198       __imp__GetDriveTypeA@4     7d03f198     kernel32:KERNEL32.dll
 0002:0000019c       __imp__CreateDirectoryA@8  7d03f19c     kernel32:KERNEL32.dll
 0002:000001a0       __imp__RemoveDirectoryA@4  7d03f1a0     kernel32:KERNEL32.dll
 0002:000001a4       __imp__DeleteFileA@4       7d03f1a4     kernel32:KERNEL32.dll
 0002:000001a8       __imp__GetFileAttributesW@4 7d03f1a8     kernel32:KERNEL32.dll
 0002:000001ac       __imp__GetCurrentDirectoryW@8 7d03f1ac     kernel32:KERNEL32.dll
 0002:000001b0       __imp__SetCurrentDirectoryW@4 7d03f1b0     kernel32:KERNEL32.dll
 0002:000001b4       __imp__SetFileAttributesW@8 7d03f1b4     kernel32:KERNEL32.dll
 0002:000001b8       __imp__GetFullPathNameW@16 7d03f1b8     kernel32:KERNEL32.dll
 0002:000001bc       __imp__CreateDirectoryW@8  7d03f1bc     kernel32:KERNEL32.dll
 0002:000001c0       __imp__DeleteFileW@4       7d03f1c0     kernel32:KERNEL32.dll
 0002:000001c4       __imp__MoveFileW@8         7d03f1c4     kernel32:KERNEL32.dll
 0002:000001c8       __imp__RemoveDirectoryW@4  7d03f1c8     kernel32:KERNEL32.dll
 0002:000001cc       __imp__GetDriveTypeW@4     7d03f1cc     kernel32:KERNEL32.dll
 0002:000001d0       __imp__MoveFileA@8         7d03f1d0     kernel32:KERNEL32.dll
 0002:000001d4       __imp__RaiseException@16   7d03f1d4     kernel32:KERNEL32.dll
 0002:000001d8       __imp__IsBadReadPtr@8      7d03f1d8     kernel32:KERNEL32.dll
 0002:000001dc       __imp__SetUnhandledExceptionFilter@4 7d03f1dc     kernel32:KERNEL32.dll
 0002:000001e0       __imp__IsBadCodePtr@4      7d03f1e0     kernel32:KERNEL32.dll
 0002:000001e4       __imp__GetExitCodeProcess@8 7d03f1e4     kernel32:KERNEL32.dll
 0002:000001e8       __imp__WaitForSingleObject@8 7d03f1e8     kernel32:KERNEL32.dll
 0002:000001ec       __imp__FreeLibrary@4       7d03f1ec     kernel32:KERNEL32.dll
 0002:000001f0       __imp__CreateProcessA@40   7d03f1f0     kernel32:KERNEL32.dll
 0002:000001f4       __imp__CreateProcessW@40   7d03f1f4     kernel32:KERNEL32.dll
 0002:000001f8       __imp__HeapValidate@12     7d03f1f8     kernel32:KERNEL32.dll
 0002:000001fc       __imp__HeapCompact@8       7d03f1fc     kernel32:KERNEL32.dll
 0002:00000200       __imp__HeapWalk@8          7d03f200     kernel32:KERNEL32.dll
 0002:00000204       __imp__ReadConsoleA@20     7d03f204     kernel32:KERNEL32.dll
 0002:00000208       __imp__SetConsoleMode@8    7d03f208     kernel32:KERNEL32.dll
 0002:0000020c       __imp__GetConsoleMode@8    7d03f20c     kernel32:KERNEL32.dll
 0002:00000210       __imp__IsDBCSLeadByteEx@8  7d03f210     kernel32:KERNEL32.dll
 0002:00000214       __imp__GetConsoleCP@0      7d03f214     kernel32:KERNEL32.dll
 0002:00000218       __imp__ReadConsoleW@20     7d03f218     kernel32:KERNEL32.dll
 0002:0000021c       __imp__SetEndOfFile@4      7d03f21c     kernel32:KERNEL32.dll
 0002:00000220       __imp__WriteConsoleA@20    7d03f220     kernel32:KERNEL32.dll
 0002:00000224       __imp__GetConsoleOutputCP@0 7d03f224     kernel32:KERNEL32.dll
 0002:00000228       __imp__DuplicateHandle@28  7d03f228     kernel32:KERNEL32.dll
 0002:0000022c       __imp__GetCurrentProcess@0 7d03f22c     kernel32:KERNEL32.dll
 0002:00000230       __imp__GetFileInformationByHandle@8 7d03f230     kernel32:KERNEL32.dll
 0002:00000234       __imp__PeekNamedPipe@24    7d03f234     kernel32:KERNEL32.dll
 0002:00000238       __imp__ReadConsoleInputA@16 7d03f238     kernel32:KERNEL32.dll
 0002:0000023c       __imp__PeekConsoleInputA@16 7d03f23c     kernel32:KERNEL32.dll
 0002:00000240       __imp__GetNumberOfConsoleInputEvents@8 7d03f240     kernel32:KERNEL32.dll
 0002:00000244       __imp__ReadConsoleInputW@16 7d03f244     kernel32:KERNEL32.dll
 0002:00000248       __imp__LockFile@20         7d03f248     kernel32:KERNEL32.dll
 0002:0000024c       __imp__UnlockFile@20       7d03f24c     kernel32:KERNEL32.dll
 0002:00000250       __imp__CreateFileA@28      7d03f250     kernel32:KERNEL32.dll
 0002:00000254       __imp__CreatePipe@16       7d03f254     kernel32:KERNEL32.dll
 0002:00000258       __imp__ReadFile@20         7d03f258     kernel32:KERNEL32.dll
 0002:0000025c       __imp__CreateFileW@28      7d03f25c     kernel32:KERNEL32.dll
 0002:00000260       __imp__SetFileTime@16      7d03f260     kernel32:KERNEL32.dll
 0002:00000264       __imp__LocalFileTimeToFileTime@8 7d03f264     kernel32:KERNEL32.dll
 0002:00000268       __imp__SystemTimeToFileTime@8 7d03f268     kernel32:KERNEL32.dll
 0002:0000026c       __imp__GetLocalTime@4      7d03f26c     kernel32:KERNEL32.dll
 0002:00000270       __imp__SetLocalTime@4      7d03f270     kernel32:KERNEL32.dll
 0002:00000274       \177KERNEL32_NULL_THUNK_DATA 7d03f274     kernel32:KERNEL32.dll
 0002:0000029c       ??_C@_1BG@DCNCEIOF@?$AAn?$AAe?$AAw?$AA_?$AAp?$AA?5?$AA?$DN?$AA?$DN?$AA?5?$AA0?$AA?$AA@ 7d03f29c     setnewh.obj
 0002:000002b4       ??_C@_1BI@FINJKBPN@?$AAs?$AAe?$AAt?$AAn?$AAe?$AAw?$AAh?$AA?4?$AAc?$AAp?$AAp?$AA?$AA@ 7d03f2b4     setnewh.obj
 0002:000002cc       ??_C@_0P@MIGLKIOC@CorExitProcess?$AA@ 7d03f2cc     crt0dat.obj
 0002:000002dc       ??_C@_0M@MBOPBNBK@mscoree?4dll?$AA@ 7d03f2dc     crt0dat.obj
 0002:000002e8       ??_C@_0P@GGKDKEEG@runtime?5error?5?$AA@ 7d03f2e8     crt0msg.obj
 0002:000002f8       ??_C@_02PCIJFNDE@?$AN?6?$AA@ 7d03f2f8     crt0msg.obj
 0002:000002fc       ??_C@_0O@MJNIPGOH@TLOSS?5error?$AN?6?$AA@ 7d03f2fc     crt0msg.obj
 0002:0000030c       ??_C@_0N@BONNPDHF@SING?5error?$AN?6?$AA@ 7d03f30c     crt0msg.obj
 0002:0000031c       ??_C@_0P@MBDAJNE@DOMAIN?5error?$AN?6?$AA@ 7d03f31c     crt0msg.obj
 0002:0000032c       ??_C@_0BP@LPMHJOKI@R6030?$AN?6?9?5CRT?5not?5initialized?$AN?6?$AA@ 7d03f32c     crt0msg.obj
 0002:0000034c       ??_C@_0CF@KJDAIALP@R6028?$AN?6?9?5unable?5to?5initialize?5he@ 7d03f34c     crt0msg.obj
 0002:00000374       ??_C@_0DF@GAKBPDFP@R6027?$AN?6?9?5not?5enough?5space?5for?5lo@ 7d03f374     crt0msg.obj
 0002:000003ac       ??_C@_0DF@IBLNNAIG@R6026?$AN?6?9?5not?5enough?5space?5for?5st@ 7d03f3ac     crt0msg.obj
 0002:000003e4       ??_C@_0CG@IOHKGFNJ@R6025?$AN?6?9?5pure?5virtual?5function?5c@ 7d03f3e4     crt0msg.obj
 0002:0000040c       ??_C@_0DF@JIJJFJDC@R6024?$AN?6?9?5not?5enough?5space?5for?5_o@ 7d03f40c     crt0msg.obj
 0002:00000444       ??_C@_0CJ@EGEJHFME@R6019?$AN?6?9?5unable?5to?5open?5console?5@ 7d03f444     crt0msg.obj
 0002:00000470       ??_C@_0CB@GNHNIELH@R6018?$AN?6?9?5unexpected?5heap?5error?$AN?6@ 7d03f470     crt0msg.obj
 0002:00000494       ??_C@_0CN@FOLDKNG@R6017?$AN?6?9?5unexpected?5multithread?5@ 7d03f494     crt0msg.obj
 0002:000004c4       ??_C@_0CM@FAHFJNHO@R6016?$AN?6?9?5not?5enough?5space?5for?5th@ 7d03f4c4     crt0msg.obj
 0002:000004f0       ??_C@_0JG@LBKMGKLD@?$AN?6This?5application?5has?5requested@ 7d03f4f0     crt0msg.obj
 0002:00000588       ??_C@_0CM@FLCNIPKK@R6009?$AN?6?9?5not?5enough?5space?5for?5en@ 7d03f588     crt0msg.obj
 0002:000005b4       ??_C@_0CK@KMMJOAPP@R6008?$AN?6?9?5not?5enough?5space?5for?5ar@ 7d03f5b4     crt0msg.obj
 0002:000005e0       ??_C@_0CF@HOHMHDEK@R6002?$AN?6?9?5floating?5point?5not?5load@ 7d03f5e0     crt0msg.obj
 0002:00000608       ??_C@_0CF@GOGNBNAK@Microsoft?5Visual?5C?$CL?$CL?5Runtime?5Lib@ 7d03f608     crt0msg.obj
 0002:00000630       ??_C@_02PHMGELLB@?6?6?$AA@ 7d03f630     crt0msg.obj
 0002:00000634       ??_C@_03KHICJKCI@?4?4?4?$AA@ 7d03f634     crt0msg.obj
 0002:00000638       ??_C@_0BH@DNAGHKFM@?$DMprogram?5name?5unknown?$DO?$AA@ 7d03f638     crt0msg.obj
 0002:00000650       ??_C@_0BK@OFGJDLJJ@Runtime?5Error?$CB?6?6Program?3?5?$AA@ 7d03f650     crt0msg.obj
 0002:0000066c       ??_C@_07PEJMOBNF@FlsFree?$AA@ 7d03f66c     tidtable.obj
 0002:00000674       ??_C@_0M@JCPCPOEF@FlsSetValue?$AA@ 7d03f674     tidtable.obj
 0002:00000680       ??_C@_0M@GDNOONDI@FlsGetValue?$AA@ 7d03f680     tidtable.obj
 0002:0000068c       ??_C@_08KNHFBNJ@FlsAlloc?$AA@ 7d03f68c     tidtable.obj
 0002:00000698       ??_C@_0N@MDJJJHMB@kernel32?4dll?$AA@ 7d03f698     tidtable.obj
 0002:000006a8       ??_C@_02DJGKEECL@?4?4?$AA@ 7d03f6a8     wild.obj
 0002:000006ac       ??_C@_01LFCBOECM@?4?$AA@   7d03f6ac     wild.obj
 0002:000006b0       ??_C@_02GNLKMPOH@?$CK?$DP?$AA@ 7d03f6b0     wild.obj
 0002:000006b4       ??_C@_15DDHGOCBH@?$AA?4?$AA?4?$AA?$AA@ 7d03f6b4     wwild.obj
 0002:000006bc       ??_C@_13JOFGPIOO@?$AA?4?$AA?$AA@ 7d03f6bc     wwild.obj
 0002:000006c0       ??_C@_15EAECJAPL@?$AA?$CK?$AA?$DP?$AA?$AA@ 7d03f6c0     wwild.obj
 0002:000006c8       ??_C@_0BH@FKOAPFN@__GLOBAL_HEAP_SELECTED?$AA@ 7d03f6c8     heap:heapinit.obj
 0002:000006e0       ??_C@_0BF@PCCAIAOK@__MSVCRT_HEAP_SELECT?$AA@ 7d03f6e0     heap:heapinit.obj
 0002:000006f8       ??_C@_15IABLJNFO@?$AA?6?$AA?6?$AA?$AA@ 7d03f6f8     misc:wassert.obj
 0002:00000700       ??_C@_13LBAGMAIH@?$AA?6?$AA?$AA@ 7d03f700     misc:wassert.obj
 0002:00000704       ??_C@_17LGKOMLJ@?$AA?4?$AA?4?$AA?4?$AA?$AA@ 7d03f704     misc:wassert.obj
 0002:00000710       ??_C@_1EK@MBDPDCGA@?$AAM?$AAi?$AAc?$AAr?$AAo?$AAs?$AAo?$AAf?$AAt?$AA?5?$AAV?$AAi?$AAs?$AAu?$AAa?$AAl?$AA?5?$AAC?$AA?$CL?$AA?$CL@ 7d03f710     misc:wassert.obj
 0002:00000760       ??_C@_1HK@POCJMFGK@?$AA?$CI?$AAP?$AAr?$AAe?$AAs?$AAs?$AA?5?$AAR?$AAe?$AAt?$AAr?$AAy?$AA?5?$AAt?$AAo?$AA?5?$AAd?$AAe?$AAb?$AAu@ 7d03f760     misc:wassert.obj
 0002:000007e0       ??_C@_1OA@EGMLFBHJ@?$AAF?$AAo?$AAr?$AA?5?$AAi?$AAn?$AAf?$AAo?$AAr?$AAm?$AAa?$AAt?$AAi?$AAo?$AAn?$AA?5?$AAo?$AAn?$AA?5?$AAh@ 7d03f7e0     misc:wassert.obj
 0002:000008c0       ??_C@_1BK@PEDCIPMA@?$AAE?$AAx?$AAp?$AAr?$AAe?$AAs?$AAs?$AAi?$AAo?$AAn?$AA?3?$AA?5?$AA?$AA@ 7d03f8c0     misc:wassert.obj
 0002:000008dc       ??_C@_1O@KCAFKHJE@?$AAL?$AAi?$AAn?$AAe?$AA?3?$AA?5?$AA?$AA@ 7d03f8dc     misc:wassert.obj
 0002:000008ec       ??_C@_1O@HEMHKNDC@?$AAF?$AAi?$AAl?$AAe?$AA?3?$AA?5?$AA?$AA@ 7d03f8ec     misc:wassert.obj
 0002:000008fc       ??_C@_1CO@EAEJAADC@?$AA?$DM?$AAp?$AAr?$AAo?$AAg?$AAr?$AAa?$AAm?$AA?5?$AAn?$AAa?$AAm?$AAe?$AA?5?$AAu?$AAn?$AAk?$AAn?$AAo?$AAw@ 7d03f8fc     misc:wassert.obj
 0002:0000092c       ??_C@_1BE@PHKBBGE@?$AAP?$AAr?$AAo?$AAg?$AAr?$AAa?$AAm?$AA?3?$AA?5?$AA?$AA@ 7d03f92c     misc:wassert.obj
 0002:00000940       ??_C@_1CE@OJBNHDMO@?$AAA?$AAs?$AAs?$AAe?$AAr?$AAt?$AAi?$AAo?$AAn?$AA?5?$AAf?$AAa?$AAi?$AAl?$AAe?$AAd?$AA?$CB?$AA?$AA@ 7d03f940     misc:wassert.obj
 0002:00000964       ??_C@_0CG@KNFFOMBO@Filename?5cannot?5be?5displayed?5on?5@ 7d03f964     misc:wassert.obj
 0002:0000098c       ??_C@_0CI@FDIHEIE@Expression?5cannot?5be?5displayed?5o@ 7d03f98c     misc:wassert.obj
 0002:000009b4       ??_C@_0BI@DFKBFLJE@GetProcessWindowStation?$AA@ 7d03f9b4     misc:crtmbox.obj
 0002:000009cc       ??_C@_0BK@CIDNPOGP@GetUserObjectInformationA?$AA@ 7d03f9cc     misc:crtmbox.obj
 0002:000009e8       ??_C@_0BD@HHGDFDBJ@GetLastActivePopup?$AA@ 7d03f9e8     misc:crtmbox.obj
 0002:000009fc       ??_C@_0BA@HNOPNCHB@GetActiveWindow?$AA@ 7d03f9fc     misc:crtmbox.obj
 0002:00000a0c       ??_C@_0M@CHKKJDAI@MessageBoxA?$AA@ 7d03fa0c     misc:crtmbox.obj
 0002:00000a18       ??_C@_0L@GMPLCCII@user32?4dll?$AA@ 7d03fa18     misc:crtmbox.obj
 0002:00000aa8       ??_C@_07LCBHPJJN@LC_TIME?$AA@ 7d03faa8     misc:setlocal.obj
 0002:00000ab0       ??_C@_0L@DLHIECNL@LC_NUMERIC?$AA@ 7d03fab0     misc:setlocal.obj
 0002:00000abc       ??_C@_0M@MIENIKLA@LC_MONETARY?$AA@ 7d03fabc     misc:setlocal.obj
 0002:00000ac8       ??_C@_08EADHIDAD@LC_CTYPE?$AA@ 7d03fac8     misc:setlocal.obj
 0002:00000ad4       ??_C@_0L@KFJHEKIK@LC_COLLATE?$AA@ 7d03fad4     misc:setlocal.obj
 0002:00000ae0       ??_C@_06NEFDFEKB@LC_ALL?$AA@ 7d03fae0     misc:setlocal.obj
 0002:00000ae8       ??_C@_03EGDHDPFD@_?4?0?$AA@ 7d03fae8     misc:setlocal.obj
 0002:00000aec       ??_C@_01IDAFKMJL@_?$AA@    7d03faec     misc:setlocal.obj
 0002:00000af0       ??_C@_01ICJEACDI@?$DL?$AA@ 7d03faf0     misc:setlocal.obj
 0002:00000af4       ??_C@_01NEMOKFLO@?$DN?$AA@ 7d03faf4     misc:setlocal.obj
 0002:00000af6       ??_C@_00CNPNBAHC@?$AA@     7d03faf6     misc:setlocal.obj
 0002:00000af8       ??_C@_02BALPLPBG@?$DN?$DL?$AA@ 7d03faf8     misc:setlocal.obj
 0002:00000b00       ___newctype                7d03fb00     misc:ctype.obj
 0002:00000e00       __wctype                   7d03fe00     misc:ctype.obj
 0002:00001004       ??_C@_0CG@PKBDLMEO@InitializeCriticalSectionAndSpin@ 7d040004     misc:initcrit.obj
 0002:0000102c       ??_C@_13NOLLCAOD@?$AA?$AA?$AA?$AA@ 7d04002c     misc:a_map.obj
 0002:00001030       ??_C@_0BK@DEKFELLI@GetUserObjectInformationW?$AA@ 7d040030     misc:crtmboxw.obj
 0002:0000104c       ??_C@_0M@DLDCCGNP@MessageBoxW?$AA@ 7d04004c     misc:crtmboxw.obj
 0002:00001058       ??_C@_1BG@OILDLIOJ@?$AAu?$AAs?$AAe?$AAr?$AA3?$AA2?$AA?4?$AAd?$AAl?$AAl?$AA?$AA@ 7d040058     misc:crtmboxw.obj
 0002:00001070       ??_C@_01EEMJAFIK@?6?$AA@   7d040070     misc:assert.obj
 0002:00001074       ??_C@_0DN@EBBNMLME@?$CIPress?5Retry?5to?5debug?5the?5applic@ 7d040074     misc:assert.obj
 0002:000010b8       ??_C@_0HA@OJHAGA@For?5information?5on?5how?5your?5prog@ 7d0400b8     misc:assert.obj
 0002:00001128       ??_C@_0N@MEECIJGN@Expression?3?5?$AA@ 7d040128     misc:assert.obj
 0002:00001138       ??_C@_06FIEBOLOH@Line?3?5?$AA@ 7d040138     misc:assert.obj
 0002:00001140       ??_C@_06IGPBOHMJ@File?3?5?$AA@ 7d040140     misc:assert.obj
 0002:00001148       ??_C@_09KLGCKDOD@Program?3?5?$AA@ 7d040148     misc:assert.obj
 0002:00001154       ??_C@_0BC@LAIDCHCH@Assertion?5failed?$CB?$AA@ 7d040154     misc:assert.obj
 0002:00001168       ___rgLocInfo               7d040168     misc:getqloc.obj
 0002:0000160c       ??_C@_08PKBIPKE@Paraguay?$AA@ 7d04060c     misc:getqloc.obj
 0002:00001618       ??_C@_07GHBIBIBP@Uruguay?$AA@ 7d040618     misc:getqloc.obj
 0002:00001620       ??_C@_05HBNKAPDN@Chile?$AA@ 7d040620     misc:getqloc.obj
 0002:00001628       ??_C@_07FEIFIPNF@Ecuador?$AA@ 7d040628     misc:getqloc.obj
 0002:00001630       ??_C@_09PGNFPGME@Argentina?$AA@ 7d040630     misc:getqloc.obj
 0002:0000163c       ??_C@_04IALPBJF@Peru?$AA@  7d04063c     misc:getqloc.obj
 0002:00001644       ??_C@_08IJPLNLKH@Colombia?$AA@ 7d040644     misc:getqloc.obj
 0002:00001650       ??_C@_09IDMFKCN@Venezuela?$AA@ 7d040650     misc:getqloc.obj
 0002:0000165c       ??_C@_0BD@DNEJOGOK@Dominican?5Republic?$AA@ 7d04065c     misc:getqloc.obj
 0002:00001670       ??_C@_0N@LPINDNDB@South?5Africa?$AA@ 7d040670     misc:getqloc.obj
 0002:00001680       ??_C@_06BLJPEOBG@Panama?$AA@ 7d040680     misc:getqloc.obj
 0002:00001688       ??_C@_0L@BOCNDGON@Luxembourg?$AA@ 7d040688     misc:getqloc.obj
 0002:00001694       ??_C@_0L@CONEHKA@Costa?5Rica?$AA@ 7d040694     misc:getqloc.obj
 0002:000016a0       ??_C@_0M@KGBPELAM@Switzerland?$AA@ 7d0406a0     misc:getqloc.obj
 0002:000016ac       ??_C@_09FJGLIMAG@Guatemala?$AA@ 7d0406ac     misc:getqloc.obj
 0002:000016b8       ??_C@_06ECHIPDMK@Canada?$AA@ 7d0406b8     misc:getqloc.obj
 0002:000016c0       ??_C@_0BG@CCEBNPGH@Spanish?5?9?5Modern?5Sort?$AA@ 7d0406c0     misc:getqloc.obj
 0002:000016d8       ??_C@_09EFGJAPAD@Australia?$AA@ 7d0406d8     misc:getqloc.obj
 0002:000016e4       ??_C@_07NEKHPBCG@English?$AA@ 7d0406e4     misc:getqloc.obj
 0002:000016ec       ??_C@_07LKIIOGFH@Austria?$AA@ 7d0406ec     misc:getqloc.obj
 0002:000016f4       ??_C@_06EDDDIONA@German?$AA@ 7d0406f4     misc:getqloc.obj
 0002:000016fc       ??_C@_07LIIIOFOA@Belgium?$AA@ 7d0406fc     misc:getqloc.obj
 0002:00001704       ??_C@_06DIAOLLEH@Mexico?$AA@ 7d040704     misc:getqloc.obj
 0002:0000170c       ??_C@_07PFALJOGE@Spanish?$AA@ 7d04070c     misc:getqloc.obj
 0002:00001714       ??_C@_06FFOOPAJB@Basque?$AA@ 7d040714     misc:getqloc.obj
 0002:0000171c       ??_C@_06DGHNDJFJ@Sweden?$AA@ 7d04071c     misc:getqloc.obj
 0002:00001724       ??_C@_07OBINPKFN@Swedish?$AA@ 7d040724     misc:getqloc.obj
 0002:0000172c       ??_C@_07NCOIHDGC@Iceland?$AA@ 7d04072c     misc:getqloc.obj
 0002:00001734       ??_C@_09JHBBDDIA@Icelandic?$AA@ 7d040734     misc:getqloc.obj
 0002:00001740       ??_C@_06COBCPIFO@France?$AA@ 7d040740     misc:getqloc.obj
 0002:00001748       ??_C@_06GODMCAND@French?$AA@ 7d040748     misc:getqloc.obj
 0002:00001750       ??_C@_07MFHPMOED@Finland?$AA@ 7d040750     misc:getqloc.obj
 0002:00001758       ??_C@_07MCEAMKOD@Finnish?$AA@ 7d040758     misc:getqloc.obj
 0002:00001760       ??_C@_05CBHOCCK@Spain?$AA@ 7d040760     misc:getqloc.obj
 0002:00001768       ??_C@_0BL@GIOEGDHB@Spanish?5?9?5Traditional?5Sort?$AA@ 7d040768     misc:getqloc.obj
 0002:00001784       ___rglangidNotDefault      7d040784     misc:getqloc.obj
 0002:00001798       ___rg_country              7d040798     misc:getqloc.obj
 0002:00001850       ??_C@_0O@FMJNFNKE@united?9states?$AA@ 7d040850     misc:getqloc.obj
 0002:00001860       ??_C@_0P@NDHFFKCA@united?9kingdom?$AA@ 7d040860     misc:getqloc.obj
 0002:00001870       ??_C@_0BC@HHDADLGF@trinidad?5?$CG?5tobago?$AA@ 7d040870     misc:getqloc.obj
 0002:00001884       ??_C@_0M@IOAEBDAC@south?9korea?$AA@ 7d040884     misc:getqloc.obj
 0002:00001890       ??_C@_0N@FIELFKIJ@south?9africa?$AA@ 7d040890     misc:getqloc.obj
 0002:000018a0       ??_C@_0M@OPNDHCMC@south?5korea?$AA@ 7d0408a0     misc:getqloc.obj
 0002:000018ac       ??_C@_0N@MDEOEPFI@south?5africa?$AA@ 7d0408ac     misc:getqloc.obj
 0002:000018bc       ??_C@_06FKAPCJLB@slovak?$AA@ 7d0408bc     misc:getqloc.obj
 0002:000018c4       ??_C@_0M@EFJANOAL@puerto?9rico?$AA@ 7d0408c4     misc:getqloc.obj
 0002:000018d0       ??_C@_08PGOJKDAI@pr?9china?$AA@ 7d0408d0     misc:getqloc.obj
 0002:000018dc       ??_C@_08JHDOMCMI@pr?5china?$AA@ 7d0408dc     misc:getqloc.obj
 0002:000018e8       ??_C@_02JHCHFBLL@nz?$AA@   7d0408e8     misc:getqloc.obj
 0002:000018ec       ??_C@_0M@LINHDHKP@new?9zealand?$AA@ 7d0408ec     misc:getqloc.obj
 0002:000018f8       ??_C@_09IIIPPBDB@hong?9kong?$AA@ 7d0408f8     misc:getqloc.obj
 0002:00001904       ??_C@_07HJLCKBG@holland?$AA@ 7d040904     misc:getqloc.obj
 0002:0000190c       ??_C@_0O@LEHGMHAG@great?5britain?$AA@ 7d04090c     misc:getqloc.obj
 0002:0000191c       ??_C@_07FACOMELA@england?$AA@ 7d04091c     misc:getqloc.obj
 0002:00001924       ??_C@_05JIHCEICB@czech?$AA@ 7d040924     misc:getqloc.obj
 0002:0000192c       ??_C@_05BBJOBLGB@china?$AA@ 7d04092c     misc:getqloc.obj
 0002:00001934       ??_C@_07GPKPHICP@britain?$AA@ 7d040934     misc:getqloc.obj
 0002:0000193c       ??_C@_07MHIPBHMG@america?$AA@ 7d04093c     misc:getqloc.obj
 0002:00001948       ___rg_language             7d040948     misc:getqloc.obj
 0002:00001b50       ??_C@_03KIALPMKC@usa?$AA@  7d040b50     misc:getqloc.obj
 0002:00001b54       ??_C@_02FGJGKGGD@us?$AA@   7d040b54     misc:getqloc.obj
 0002:00001b58       ??_C@_02NEINDODK@uk?$AA@   7d040b58     misc:getqloc.obj
 0002:00001b5c       ??_C@_05JMPCFJFJ@swiss?$AA@ 7d040b5c     misc:getqloc.obj
 0002:00001b64       ??_C@_0BA@HLOCPIOD@swedish?9finland?$AA@ 7d040b64     misc:getqloc.obj
 0002:00001b74       ??_C@_0BC@PKCNIABK@spanish?9venezuela?$AA@ 7d040b74     misc:getqloc.obj
 0002:00001b88       ??_C@_0BA@GBHHMIJI@spanish?9uruguay?$AA@ 7d040b88     misc:getqloc.obj
 0002:00001b98       ??_C@_0BE@BHDOHPMC@spanish?9puerto?5rico?$AA@ 7d040b98     misc:getqloc.obj
 0002:00001bac       ??_C@_0N@KMOIDGGN@spanish?9peru?$AA@ 7d040bac     misc:getqloc.obj
 0002:00001bbc       ??_C@_0BB@HMHLPGPH@spanish?9paraguay?$AA@ 7d040bbc     misc:getqloc.obj
 0002:00001bd0       ??_C@_0P@MCPKNGFD@spanish?9panama?$AA@ 7d040bd0     misc:getqloc.obj
 0002:00001be0       ??_C@_0BC@IHOHGAIL@spanish?9nicaragua?$AA@ 7d040be0     misc:getqloc.obj
 0002:00001bf4       ??_C@_0P@KLMJDNFJ@spanish?9modern?$AA@ 7d040bf4     misc:getqloc.obj
 0002:00001c04       ??_C@_0BA@BPAPGBCM@spanish?9mexican?$AA@ 7d040c04     misc:getqloc.obj
 0002:00001c14       ??_C@_0BB@PDECHHHE@spanish?9honduras?$AA@ 7d040c14     misc:getqloc.obj
 0002:00001c28       ??_C@_0BC@KLHKFGDB@spanish?9guatemala?$AA@ 7d040c28     misc:getqloc.obj
 0002:00001c3c       ??_C@_0BE@MFOOKJAI@spanish?9el?5salvador?$AA@ 7d040c3c     misc:getqloc.obj
 0002:00001c50       ??_C@_0BA@FCOKFPFC@spanish?9ecuador?$AA@ 7d040c50     misc:getqloc.obj
 0002:00001c60       ??_C@_0BL@PLMGIMOO@spanish?9dominican?5republic?$AA@ 7d040c60     misc:getqloc.obj
 0002:00001c7c       ??_C@_0BD@HLGDNMHB@spanish?9costa?5rica?$AA@ 7d040c7c     misc:getqloc.obj
 0002:00001c90       ??_C@_0BB@PKCBKCPE@spanish?9colombia?$AA@ 7d040c90     misc:getqloc.obj
 0002:00001ca4       ??_C@_0O@MCBIJGNE@spanish?9chile?$AA@ 7d040ca4     misc:getqloc.obj
 0002:00001cb4       ??_C@_0BA@BEFEIGJJ@spanish?9bolivia?$AA@ 7d040cb4     misc:getqloc.obj
 0002:00001cc4       ??_C@_0BC@EMECMPD@spanish?9argentina?$AA@ 7d040cc4     misc:getqloc.obj
 0002:00001cd8       ??_C@_0BF@EALFLENP@portuguese?9brazilian?$AA@ 7d040cd8     misc:getqloc.obj
 0002:00001cf0       ??_C@_0BC@HBLEBLNN@norwegian?9nynorsk?$AA@ 7d040cf0     misc:getqloc.obj
 0002:00001d04       ??_C@_0BB@HMACDDCK@norwegian?9bokmal?$AA@ 7d040d04     misc:getqloc.obj
 0002:00001d18       ??_C@_09BAFFPPHE@norwegian?$AA@ 7d040d18     misc:getqloc.obj
 0002:00001d24       ??_C@_0O@EAJFJDFG@italian?9swiss?$AA@ 7d040d24     misc:getqloc.obj
 0002:00001d34       ??_C@_0O@CNOMPGD@irish?9english?$AA@ 7d040d34     misc:getqloc.obj
 0002:00001d44       ??_C@_0N@EDHBGCKG@german?9swiss?$AA@ 7d040d44     misc:getqloc.obj
 0002:00001d54       ??_C@_0BC@JACMHNBP@german?9luxembourg?$AA@ 7d040d54     misc:getqloc.obj
 0002:00001d68       ??_C@_0BE@HBGMGFEG@german?9lichtenstein?$AA@ 7d040d68     misc:getqloc.obj
 0002:00001d7c       ??_C@_0BA@HKKBIBKL@german?9austrian?$AA@ 7d040d7c     misc:getqloc.obj
 0002:00001d8c       ??_C@_0N@GCAEPEBK@french?9swiss?$AA@ 7d040d8c     misc:getqloc.obj
 0002:00001d9c       ??_C@_0BC@DJFJJCK@french?9luxembourg?$AA@ 7d040d9c     misc:getqloc.obj
 0002:00001db0       ??_C@_0BA@NNCEDFIC@french?9canadian?$AA@ 7d040db0     misc:getqloc.obj
 0002:00001dc0       ??_C@_0P@CMPOCLM@french?9belgian?$AA@ 7d040dc0     misc:getqloc.obj
 0002:00001dd0       ??_C@_0M@GHHDJOK@english?9usa?$AA@ 7d040dd0     misc:getqloc.obj
 0002:00001ddc       ??_C@_0L@PLDJKEIL@english?9us?$AA@ 7d040ddc     misc:getqloc.obj
 0002:00001de8       ??_C@_0L@HJCCDMNC@english?9uk?$AA@ 7d040de8     misc:getqloc.obj
 0002:00001df4       ??_C@_0BK@CKLIAGJB@english?9trinidad?5y?5tobago?$AA@ 7d040df4     misc:getqloc.obj
 0002:00001e10       ??_C@_0BF@JMJMGNNF@english?9south?5africa?$AA@ 7d040e10     misc:getqloc.obj
 0002:00001e28       ??_C@_0L@DKIIFDFD@english?9nz?$AA@ 7d040e28     misc:getqloc.obj
 0002:00001e34       ??_C@_0BA@ONHGJCLH@english?9jamaica?$AA@ 7d040e34     misc:getqloc.obj
 0002:00001e44       ??_C@_0M@HJBGHOPO@english?9ire?$AA@ 7d040e44     misc:getqloc.obj
 0002:00001e50       ??_C@_0BC@LFEKMIFB@english?9caribbean?$AA@ 7d040e50     misc:getqloc.obj
 0002:00001e64       ??_C@_0M@OLDPFKHI@english?9can?$AA@ 7d040e64     misc:getqloc.obj
 0002:00001e70       ??_C@_0P@OMDEHBMP@english?9belize?$AA@ 7d040e70     misc:getqloc.obj
 0002:00001e80       ??_C@_0M@KFHFPFED@english?9aus?$AA@ 7d040e80     misc:getqloc.obj
 0002:00001e8c       ??_C@_0BB@MNMBKDFE@english?9american?$AA@ 7d040e8c     misc:getqloc.obj
 0002:00001ea0       ??_C@_0O@KIDLNNBA@dutch?9belgian?$AA@ 7d040ea0     misc:getqloc.obj
 0002:00001eb0       ??_C@_0BE@JBKABBMH@chinese?9traditional?$AA@ 7d040eb0     misc:getqloc.obj
 0002:00001ec4       ??_C@_0BC@MJJMPKCG@chinese?9singapore?$AA@ 7d040ec4     misc:getqloc.obj
 0002:00001ed8       ??_C@_0BD@FDKADDCP@chinese?9simplified?$AA@ 7d040ed8     misc:getqloc.obj
 0002:00001eec       ??_C@_0BB@DBEFDDME@chinese?9hongkong?$AA@ 7d040eec     misc:getqloc.obj
 0002:00001f00       ??_C@_07DHNMFMCI@chinese?$AA@ 7d040f00     misc:getqloc.obj
 0002:00001f08       ??_C@_03FNDDCHI@chi?$AA@   7d040f08     misc:getqloc.obj
 0002:00001f0c       ??_C@_03BMMIADDJ@chh?$AA@  7d040f0c     misc:getqloc.obj
 0002:00001f10       ??_C@_08OAIPJDGI@canadian?$AA@ 7d040f10     misc:getqloc.obj
 0002:00001f1c       ??_C@_07HBPMNPNJ@belgian?$AA@ 7d040f1c     misc:getqloc.obj
 0002:00001f24       ??_C@_0L@OEKOPBEL@australian?$AA@ 7d040f24     misc:getqloc.obj
 0002:00001f30       ??_C@_0BB@MEIMBEDG@american?9english?$AA@ 7d040f30     misc:getqloc.obj
 0002:00001f44       ??_C@_0BB@DFMDPDGB@american?5english?$AA@ 7d040f44     misc:getqloc.obj
 0002:00001f58       ??_C@_08IJLOKOLL@american?$AA@ 7d040f58     misc:getqloc.obj
 0002:00001f64       ??_C@_03NFKLAGEF@OCP?$AA@  7d040f64     misc:getqloc.obj
 0002:00001f68       ??_C@_03DFHEHBHG@ACP?$AA@  7d040f68     misc:getqloc.obj
 0002:00001f6c       ??_C@_0BC@NFIEMBLL@Norwegian?9Nynorsk?$AA@ 7d040f6c     misc:getqloc.obj
 0002:00001f80       ??_C@_0KA@JEHFIFGP@A?5buffer?5overrun?5has?5been?5detect@ 7d040f80     misc:secfail.obj
 0002:00002020       ??_C@_0BJ@MDEKIEOJ@Buffer?5overrun?5detected?$CB?$AA@ 7d041020     misc:secfail.obj
 0002:00002040       ??_C@_0LB@BPLHHLFD@A?5security?5error?5of?5unknown?5caus@ 7d041040     misc:secfail.obj
 0002:000020f4       ??_C@_0CD@GMKACBEK@Unknown?5security?5failure?5detecte@ 7d0410f4     misc:secfail.obj
 0002:00002118       ___lookuptable             7d041118     stdio:output.obj
 0002:00002174       ??_C@_1O@CEDCILHN@?$AA?$CI?$AAn?$AAu?$AAl?$AAl?$AA?$CJ?$AA?$AA@ 7d041174     stdio:output.obj
 0002:00002184       ??_C@_06OJHGLDPL@?$CInull?$CJ?$AA@ 7d041184     stdio:output.obj
 0002:0000218c       ___dnames                  7d04118c     time:timeset.obj
 0002:000021a4       ___mnames                  7d0411a4     time:timeset.obj
 0002:000021cc       ??_C@_08JCCMCCIL@HH?3mm?3ss?$AA@ 7d0411cc     time:strftime.obj
 0002:000021d8       ??_C@_0BE@CKGJFCPC@dddd?0?5MMMM?5dd?0?5yyyy?$AA@ 7d0411d8     time:strftime.obj
 0002:000021ec       ??_C@_08BPBNCDIB@MM?1dd?1yy?$AA@ 7d0411ec     time:strftime.obj
 0002:000021f8       ??_C@_02CJNFDJBF@PM?$AA@   7d0411f8     time:strftime.obj
 0002:000021fc       ??_C@_02DEDBPAFC@AM?$AA@   7d0411fc     time:strftime.obj
 0002:00002200       ??_C@_08EDHMEBNP@December?$AA@ 7d041200     time:strftime.obj
 0002:0000220c       ??_C@_08HCHEGEOA@November?$AA@ 7d04120c     time:strftime.obj
 0002:00002218       ??_C@_07JJNFCEND@October?$AA@ 7d041218     time:strftime.obj
 0002:00002220       ??_C@_09BHHEALKD@September?$AA@ 7d041220     time:strftime.obj
 0002:0000222c       ??_C@_06LBBHFDDG@August?$AA@ 7d04122c     time:strftime.obj
 0002:00002234       ??_C@_04MIEPOIFP@July?$AA@ 7d041234     time:strftime.obj
 0002:0000223c       ??_C@_04CNLMGBGM@June?$AA@ 7d04123c     time:strftime.obj
 0002:00002244       ??_C@_05DMJDNLEJ@April?$AA@ 7d041244     time:strftime.obj
 0002:0000224c       ??_C@_05HPCKOFNC@March?$AA@ 7d04124c     time:strftime.obj
 0002:00002254       ??_C@_08GNJGEPFN@February?$AA@ 7d041254     time:strftime.obj
 0002:00002260       ??_C@_07CGJPFGJA@January?$AA@ 7d041260     time:strftime.obj
 0002:00002268       ??_C@_03MKABNOCG@Dec?$AA@  7d041268     time:strftime.obj
 0002:0000226c       ??_C@_03JPJOFNIA@Nov?$AA@  7d04126c     time:strftime.obj
 0002:00002270       ??_C@_03BMAOKBAD@Oct?$AA@  7d041270     time:strftime.obj
 0002:00002274       ??_C@_03GGCAPAJC@Sep?$AA@  7d041274     time:strftime.obj
 0002:00002278       ??_C@_03IFJFEIGA@Aug?$AA@  7d041278     time:strftime.obj
 0002:0000227c       ??_C@_03LBGABGKK@Jul?$AA@  7d04127c     time:strftime.obj
 0002:00002280       ??_C@_03IDFGHECI@Jun?$AA@  7d041280     time:strftime.obj
 0002:00002284       ??_C@_03CNMDKL@May?$AA@    7d041284     time:strftime.obj
 0002:00002288       ??_C@_03LEOLGMJP@Apr?$AA@  7d041288     time:strftime.obj
 0002:0000228c       ??_C@_03ODNJBKGA@Mar?$AA@  7d04128c     time:strftime.obj
 0002:00002290       ??_C@_03HJBDCHOM@Feb?$AA@  7d041290     time:strftime.obj
 0002:00002294       ??_C@_03JIHJHPIE@Jan?$AA@  7d041294     time:strftime.obj
 0002:00002298       ??_C@_08INBOOONO@Saturday?$AA@ 7d041298     time:strftime.obj
 0002:000022a4       ??_C@_06JECMNKMI@Friday?$AA@ 7d0412a4     time:strftime.obj
 0002:000022ac       ??_C@_08HACCIKIA@Thursday?$AA@ 7d0412ac     time:strftime.obj
 0002:000022b8       ??_C@_09DLIGFAKA@Wednesday?$AA@ 7d0412b8     time:strftime.obj
 0002:000022c4       ??_C@_07BAAGCFCM@Tuesday?$AA@ 7d0412c4     time:strftime.obj
 0002:000022cc       ??_C@_06JLEDEDGH@Monday?$AA@ 7d0412cc     time:strftime.obj
 0002:000022d4       ??_C@_06OOPIFAJ@Sunday?$AA@ 7d0412d4     time:strftime.obj
 0002:000022dc       ??_C@_03FEFJNEK@Sat?$AA@   7d0412dc     time:strftime.obj
 0002:000022e0       ??_C@_03IDIOELNC@Fri?$AA@  7d0412e0     time:strftime.obj
 0002:000022e4       ??_C@_03IOFIKPDN@Thu?$AA@  7d0412e4     time:strftime.obj
 0002:000022e8       ??_C@_03MHOMLAJA@Wed?$AA@  7d0412e8     time:strftime.obj
 0002:000022ec       ??_C@_03NAGEINEP@Tue?$AA@  7d0412ec     time:strftime.obj
 0002:000022f0       ??_C@_03PDAGKDH@Mon?$AA@   7d0412f0     time:strftime.obj
 0002:000022f4       ??_C@_03KOEHGMDN@Sun?$AA@  7d0412f4     time:strftime.obj
 0002:000022f8       ??_C@_03EBAPMIKO@a?1p?$AA@ 7d0412f8     time:strftime.obj
 0002:000022fc       ??_C@_05JAMEPDIN@am?1pm?$AA@ 7d0412fc     time:strftime.obj
 0002:00002304       ??_C@_02CLFPBFFP@TZ?$AA@   7d041304     time:tzset.obj
 0002:00002308       ??_C@_0N@FFJGBINN@AuthenticAMD?$AA@ 7d041308     tran:cpu_disp.obj
 0002:00002318       __real@0000000000000000    7d041318     convert:wtof.obj
 0002:00002320       ??_C@_04PNGHFIJN@?4com?$AA@ 7d041320     dos:stat.obj
 0002:00002328       ??_C@_04NEEFLLOK@?4bat?$AA@ 7d041328     dos:stat.obj
 0002:00002330       ??_C@_04CPCBDHLK@?4cmd?$AA@ 7d041330     dos:stat.obj
 0002:00002338       ??_C@_04JLMDILM@?4exe?$AA@ 7d041338     dos:stat.obj
 0002:00002340       ??_C@_03LLEJOLGL@?4?1?2?$AA@ 7d041340     dos:stat.obj
 0002:00002344       ??_C@_02EAOCEIGI@?$DP?$CK?$AA@ 7d041344     dos:stat.obj
 0002:00002348       ??_C@_19CDGLJBOD@?$AA?4?$AAc?$AAo?$AAm?$AA?$AA@ 7d041348     dos:wstat.obj
 0002:00002354       ??_C@_19PINKOIBI@?$AA?4?$AAb?$AAa?$AAt?$AA?$AA@ 7d041354     dos:wstat.obj
 0002:00002360       ??_C@_19BDKLHPGC@?$AA?4?$AAc?$AAm?$AAd?$AA?$AA@ 7d041360     dos:wstat.obj
 0002:0000236c       ??_C@_19DOGDICKI@?$AA?4?$AAe?$AAx?$AAe?$AA?$AA@ 7d04136c     dos:wstat.obj
 0002:00002378       ??_C@_17BAAFHAL@?$AA?4?$AA?1?$AA?2?$AA?$AA@ 7d041378     dos:wstat.obj
 0002:00002380       ??_C@_15HEJOKEHO@?$AA?$DP?$AA?$CK?$AA?$AA@ 7d041380     dos:wstat.obj
 0002:0000238c       ??_7exception@std@@6B@     7d04138c     eh:stdexcpt.obj
 0002:00002394       ??_C@_0BC@EOODALEL@Unknown?5exception?$AA@ 7d041394     eh:stdexcpt.obj
 0002:000023ac       ??_7bad_cast@std@@6B@      7d0413ac     eh:stdexcpt.obj
 0002:000023b8       ??_7bad_typeid@std@@6B@    7d0413b8     eh:stdexcpt.obj
 0002:000023c4       ??_7__non_rtti_object@std@@6B@ 7d0413c4     eh:stdexcpt.obj
 0002:000023cc       ??_C@_08EPJLHIJG@bad?5cast?$AA@ 7d0413cc     eh:stdexcpt.obj
 0002:000023d8       ??_C@_0L@NNKLKNJJ@bad?5typeid?$AA@ 7d0413d8     eh:stdexcpt.obj
 0002:000023e8       ??_7type_info@@6B@         7d0413e8     eh:typname.obj
 0002:000023f0       ??_7exception@@6B@         7d0413f0     eh:oldexcpt.obj
 0002:000023fc       ??_7bad_exception@std@@6B@ 7d0413fc     eh:frame.obj
 0002:00002404       ??_C@_0O@DPKOEFFH@bad?5exception?$AA@ 7d041404     eh:frame.obj
 0002:00002434       ??_C@_0CB@CGKGGDFI@Access?5violation?5?9?5no?5RTTI?5data?$CB@ 7d041434     eh:rtti.obj
 0002:00002458       ??_C@_0CB@EEENAAHH@Bad?5read?5pointer?5?9?5no?5RTTI?5data?$CB@ 7d041458     eh:rtti.obj
 0002:0000247c       ??_C@_0CE@FFJAJLDK@Attempted?5a?5typeid?5of?5NULL?5point@ 7d04147c     eh:rtti.obj
 0002:000024a0       ??_C@_0BC@JNJNLHBP@Bad?5dynamic_cast?$CB?$AA@ 7d0414a0     eh:rtti.obj
 0002:00002638       ??_C@_0BK@CFCOFLF@?5Complete?5Object?5Locator?8?$AA@ 7d041638     eh:undname.obj
 0002:00002654       ??_C@_0BN@MECKDCOJ@?5Class?5Hierarchy?5Descriptor?8?$AA@ 7d041654     eh:undname.obj
 0002:00002674       ??_C@_0BD@LGICGFMM@?5Base?5Class?5Array?8?$AA@ 7d041674     eh:undname.obj
 0002:00002688       ??_C@_0BM@LDKODKLH@?5Base?5Class?5Descriptor?5at?5?$CI?$AA@ 7d041688     eh:undname.obj
 0002:000026a4       ??_C@_0BC@DAFEJGAK@?5Type?5Descriptor?8?$AA@ 7d0416a4     eh:undname.obj
 0002:000026b8       ??_C@_0CL@FGIJHLCE@?$GAmanaged?5vector?5copy?5constructor@ 7d0416b8     eh:undname.obj
 0002:000026e4       ??_C@_0CJ@GJELGAMM@?$GAvector?5vbase?5copy?5constructor?5i@ 7d0416e4     eh:undname.obj
 0002:00002710       ??_C@_0CD@CGAJBKEJ@?$GAvector?5copy?5constructor?5iterato@ 7d041710     eh:undname.obj
 0002:00002734       ??_C@_0BM@MIHMHDNP@?$GAdynamic?5atexit?5destructor?8?$AA@ 7d041734     eh:undname.obj
 0002:00002750       ??_C@_0BG@JOPPALHL@?$GAdynamic?5initializer?8?$AA@ 7d041750     eh:undname.obj
 0002:00002768       ??_C@_0CM@FCBBDIGB@?$GAeh?5vector?5vbase?5copy?5constructo@ 7d041768     eh:undname.obj
 0002:00002794       ??_C@_0CG@HLDDJMAG@?$GAeh?5vector?5copy?5constructor?5iter@ 7d041794     eh:undname.obj
 0002:000027bc       ??_C@_0CF@IMGKMJNO@?$GAmanaged?5vector?5destructor?5itera@ 7d0417bc     eh:undname.obj
 0002:000027e4       ??_C@_0CG@CFDHKGGD@?$GAmanaged?5vector?5constructor?5iter@ 7d0417e4     eh:undname.obj
 0002:0000280c       ??_C@_0BN@CKNJLHMB@?$GAplacement?5delete?$FL?$FN?5closure?8?$AA@ 7d04180c     eh:undname.obj
 0002:0000282c       ??_C@_0BL@CNOONJFP@?$GAplacement?5delete?5closure?8?$AA@ 7d04182c     eh:undname.obj
 0002:00002848       ??_C@_0P@HJKNJFNN@?$GAomni?5callsig?8?$AA@ 7d041848     eh:undname.obj
 0002:00002858       ??_C@_09LBNFPBCA@?5delete?$FL?$FN?$AA@ 7d041858     eh:undname.obj
 0002:00002864       ??_C@_06FHBGPFGH@?5new?$FL?$FN?$AA@ 7d041864     eh:undname.obj
 0002:0000286c       ??_C@_0CE@IIHCMGGL@?$GAlocal?5vftable?5constructor?5closu@ 7d04186c     eh:undname.obj
 0002:00002890       ??_C@_0BA@KKLDJDLB@?$GAlocal?5vftable?8?$AA@ 7d041890     eh:undname.obj
 0002:000028a0       ??_C@_05KHLCHHI@?$GARTTI?$AA@ 7d0418a0     eh:undname.obj
 0002:000028a8       ??_C@_03KLGMFNMG@?$GAEH?$AA@ 7d0418a8     eh:undname.obj
 0002:000028ac       ??_C@_0BA@KBCDOMBN@?$GAudt?5returning?8?$AA@ 7d0418ac     eh:undname.obj
 0002:000028bc       ??_C@_0BL@LLKPOHJI@?$GAcopy?5constructor?5closure?8?$AA@ 7d0418bc     eh:undname.obj
 0002:000028d8       ??_C@_0CH@OOJPLCPH@?$GAeh?5vector?5vbase?5constructor?5ite@ 7d0418d8     eh:undname.obj
 0002:00002900       ??_C@_0CA@GCEOPDGL@?$GAeh?5vector?5destructor?5iterator?8?$AA@ 7d041900     eh:undname.obj
 0002:00002920       ??_C@_0CB@JONCMFFK@?$GAeh?5vector?5constructor?5iterator?8@ 7d041920     eh:undname.obj
 0002:00002944       ??_C@_0BL@NILFHHPC@?$GAvirtual?5displacement?5map?8?$AA@ 7d041944     eh:undname.obj
 0002:00002960       ??_C@_0CE@IKBNEHA@?$GAvector?5vbase?5constructor?5iterat@ 7d041960     eh:undname.obj
 0002:00002984       ??_C@_0BN@LFPFMEDL@?$GAvector?5destructor?5iterator?8?$AA@ 7d041984     eh:undname.obj
 0002:000029a4       ??_C@_0BO@PFGOCPJJ@?$GAvector?5constructor?5iterator?8?$AA@ 7d0419a4     eh:undname.obj
 0002:000029c4       ??_C@_0BN@IMDCHIKM@?$GAscalar?5deleting?5destructor?8?$AA@ 7d0419c4     eh:undname.obj
 0002:000029e4       ??_C@_0BO@OBMKPJIG@?$GAdefault?5constructor?5closure?8?$AA@ 7d0419e4     eh:undname.obj
 0002:00002a04       ??_C@_0BN@DEGPLNFK@?$GAvector?5deleting?5destructor?8?$AA@ 7d041a04     eh:undname.obj
 0002:00002a24       ??_C@_0BD@JDLKDPAB@?$GAvbase?5destructor?8?$AA@ 7d041a24     eh:undname.obj
 0002:00002a38       ??_C@_08OBABFOLI@?$GAstring?8?$AA@ 7d041a38     eh:undname.obj
 0002:00002a44       ??_C@_0BF@KDPPACIK@?$GAlocal?5static?5guard?8?$AA@ 7d041a44     eh:undname.obj
 0002:00002a5c       ??_C@_08LLFFHHDJ@?$GAtypeof?8?$AA@ 7d041a5c     eh:undname.obj
 0002:00002a68       ??_C@_07FEEIOKP@?$GAvcall?8?$AA@ 7d041a68     eh:undname.obj
 0002:00002a70       ??_C@_09BLBHBJP@?$GAvbtable?8?$AA@ 7d041a70     eh:undname.obj
 0002:00002a7c       ??_C@_09IFPLHPGF@?$GAvftable?8?$AA@ 7d041a7c     eh:undname.obj
 0002:00002a88       ??_C@_02MHEGNOJ@?$FO?$DN?$AA@ 7d041a88     eh:undname.obj
 0002:00002a8c       ??_C@_02DHLNPPGH@?$HM?$DN?$AA@ 7d041a8c     eh:undname.obj
 0002:00002a90       ??_C@_02FGJGFEAB@?$CG?$DN?$AA@ 7d041a90     eh:undname.obj
 0002:00002a94       ??_C@_03CDNPDDLA@?$DM?$DM?$DN?$AA@ 7d041a94     eh:undname.obj
 0002:00002a98       ??_C@_03IKFCCPFF@?$DO?$DO?$DN?$AA@ 7d041a98     eh:undname.obj
 0002:00002a9c       ??_C@_02FENAOKFI@?$CF?$DN?$AA@ 7d041a9c     eh:undname.obj
 0002:00002aa0       ??_C@_02FJEHGPIO@?1?$DN?$AA@ 7d041aa0     eh:undname.obj
 0002:00002aa4       ??_C@_02FKMDLLOA@?9?$DN?$AA@ 7d041aa4     eh:undname.obj
 0002:00002aa8       ??_C@_02FOEOMHFC@?$CL?$DN?$AA@ 7d041aa8     eh:undname.obj
 0002:00002aac       ??_C@_02FPIMKNGF@?$CK?$DN?$AA@ 7d041aac     eh:undname.obj
 0002:00002ab0       ??_C@_02NONPIBCD@?$HM?$HM?$AA@ 7d041ab0     eh:undname.obj
 0002:00002ab4       ??_C@_02PPKAJPJL@?$CG?$CG?$AA@ 7d041ab4     eh:undname.obj
 0002:00002ab8       ??_C@_01DNKMNLPK@?$HM?$AA@ 7d041ab8     eh:undname.obj
 0002:00002abc       ??_C@_01JKBOJNNK@?$FO?$AA@ 7d041abc     eh:undname.obj
 0002:00002ac0       ??_C@_01PJKLJHI@?$HO?$AA@  7d041ac0     eh:undname.obj
 0002:00002ac4       ??_C@_02HCKGKOFO@?$CI?$CJ?$AA@ 7d041ac4     eh:undname.obj
 0002:00002ac8       ??_C@_01IHBHIGKO@?0?$AA@   7d041ac8     eh:undname.obj
 0002:00002acc       ??_C@_02EEKDKGMJ@?$DO?$DN?$AA@ 7d041acc     eh:undname.obj
 0002:00002ad0       ??_C@_01PPODPGHN@?$DO?$AA@ 7d041ad0     eh:undname.obj
 0002:00002ad4       ??_C@_02EHCHHCKH@?$DM?$DN?$AA@ 7d041ad4     eh:undname.obj
 0002:00002ad8       ??_C@_01MNNFJEPP@?$DM?$AA@ 7d041ad8     eh:undname.obj
 0002:00002adc       ??_C@_01FGNFDNOH@?$CF?$AA@ 7d041adc     eh:undname.obj
 0002:00002ae0       ??_C@_01KMDKNFGN@?1?$AA@   7d041ae0     eh:undname.obj
 0002:00002ae4       ??_C@_03MNHNFDLC@?9?$DO?$CK?$AA@ 7d041ae4     eh:undname.obj
 0002:00002ae8       ??_C@_01HNPIGOCE@?$CG?$AA@ 7d041ae8     eh:undname.obj
 0002:00002aec       ??_C@_01MIFGBAGJ@?$CL?$AA@ 7d041aec     eh:undname.obj
 0002:00002af0       ??_C@_01JOAMLHOP@?9?$AA@   7d041af0     eh:undname.obj
 0002:00002af4       ??_C@_02BAABKJLB@?9?9?$AA@ 7d041af4     eh:undname.obj
 0002:00002af8       ??_C@_02ECNGHCIF@?$CL?$CL?$AA@ 7d041af8     eh:undname.obj
 0002:00002afc       ??_C@_01NBENCBCI@?$CK?$AA@ 7d041afc     eh:undname.obj
 0002:00002b00       ??_C@_02HBOOOICD@?9?$DO?$AA@ 7d041b00     eh:undname.obj
 0002:00002b04       ??_C@_08LHJFAFGD@operator?$AA@ 7d041b04     eh:undname.obj
 0002:00002b10       ??_C@_02GPECMEKF@?$FL?$FN?$AA@ 7d041b10     eh:undname.obj
 0002:00002b14       ??_C@_02FDNJECIE@?$CB?$DN?$AA@ 7d041b14     eh:undname.obj
 0002:00002b18       ??_C@_02EGOFBIJA@?$DN?$DN?$AA@ 7d041b18     eh:undname.obj
 0002:00002b1c       ??_C@_01DCLJPIOD@?$CB?$AA@ 7d041b1c     eh:undname.obj
 0002:00002b20       ??_C@_02FODMEDOG@?$DM?$DM?$AA@ 7d041b20     eh:undname.obj
 0002:00002b24       ??_C@_02GPIOPFAK@?$DO?$DO?$AA@ 7d041b24     eh:undname.obj
 0002:00002b28       ??_C@_07FPCDHGMM@?5delete?$AA@ 7d041b28     eh:undname.obj
 0002:00002b30       ??_C@_04NIHEBCM@?5new?$AA@ 7d041b30     eh:undname.obj
 0002:00002b38       ??_C@_0M@GFIIJFMG@__unaligned?$AA@ 7d041b38     eh:undname.obj
 0002:00002b44       ??_C@_0L@PILCLIHE@__restrict?$AA@ 7d041b44     eh:undname.obj
 0002:00002b50       ??_C@_07JOMMBBKO@__ptr64?$AA@ 7d041b50     eh:undname.obj
 0002:00002b58       ??_C@_09HIJEGCPM@__clrcall?$AA@ 7d041b58     eh:undname.obj
 0002:00002b64       ??_C@_0L@JMKHOMEK@__fastcall?$AA@ 7d041b64     eh:undname.obj
 0002:00002b70       ??_C@_0L@NPHFGOKO@__thiscall?$AA@ 7d041b70     eh:undname.obj
 0002:00002b7c       ??_C@_09IFJBGAPI@__stdcall?$AA@ 7d041b7c     eh:undname.obj
 0002:00002b88       ??_C@_08GHMPAG@__pascal?$AA@ 7d041b88     eh:undname.obj
 0002:00002b94       ??_C@_07KOLFKCDI@__cdecl?$AA@ 7d041b94     eh:undname.obj
 0002:00002b9c       ??_C@_08EHJDFFNH@__based?$CI?$AA@ 7d041b9c     eh:undname.obj
 0002:00002ba8       ??_7charNode@@6B@          7d041ba8     eh:undname.obj
 0002:00002bb4       ??_7pDNameNode@@6B@        7d041bb4     eh:undname.obj
 0002:00002bc0       ??_7DNameStatusNode@@6B@   7d041bc0     eh:undname.obj
 0002:00002bcc       ??_7pcharNode@@6B@         7d041bcc     eh:undname.obj
 0002:00002bd8       ??_C@_04OKOHEJBO@?5?$DP?$DP?5?$AA@ 7d041bd8     eh:undname.obj
 0002:00002be0       ??_C@_06EEGAIFAK@?$HLflat?$HN?$AA@ 7d041be0     eh:undname.obj
 0002:00002be8       ??_C@_05JIBOFOHK@?$HLfor?5?$AA@ 7d041be8     eh:undname.obj
 0002:00002bf0       ??_C@_0BN@IBLMMFAP@?$GAnon?9type?9template?9parameter?$AA@ 7d041bf0     eh:undname.obj
 0002:00002c10       ??_C@_09EBBEKKIH@unsigned?5?$AA@ 7d041c10     eh:undname.obj
 0002:00002c1c       ??_C@_05CJIMAING@long?5?$AA@ 7d041c1c     eh:undname.obj
 0002:00002c24       ??_C@_04LAHKHJMA@int?5?$AA@ 7d041c24     eh:undname.obj
 0002:00002c2c       ??_C@_06EHJMALKF@short?5?$AA@ 7d041c2c     eh:undname.obj
 0002:00002c34       ??_C@_05CIHEBHNO@char?5?$AA@ 7d041c34     eh:undname.obj
 0002:00002c3c       ??_C@_04GKJNKENE@void?$AA@ 7d041c3c     eh:undname.obj
 0002:00002c44       ??_C@_04EENFHACM@?0?4?4?4?$AA@ 7d041c44     eh:undname.obj
 0002:00002c4c       ??_C@_07HDJPLPEK@?5throw?$CI?$AA@ 7d041c4c     eh:undname.obj
 0002:00002c54       ??_C@_02GOGNNPBN@?$CJ?$FL?$AA@ 7d041c54     eh:undname.obj
 0002:00002c58       ??_C@_02MDINNEEG@s?5?$AA@  7d041c58     eh:undname.obj
 0002:00002c5c       ??_C@_0BE@EODMJLIF@?$GAtemplate?9parameter?$AA@ 7d041c5c     eh:undname.obj
 0002:00002c70       ??_C@_01GEODFPGF@?8?$AA@   7d041c70     eh:undname.obj
 0002:00002c74       ??_C@_04HIBGFPH@NULL?$AA@  7d041c74     eh:undname.obj
 0002:00002c7c       ??_C@_06FAHNNMP@__box?5?$AA@ 7d041c7c     eh:undname.obj
 0002:00002c84       ??_C@_05BEFAKPML@void?5?$AA@ 7d041c84     eh:undname.obj
 0002:00002c8c       ??_C@_0BG@JNJLAMPM@?$GAanonymous?5namespace?8?$AA@ 7d041c8c     eh:undname.obj
 0002:00002ca4       ??_C@_01NLNLIGKH@?$GA?$AA@ 7d041ca4     eh:undname.obj
 0002:00002ca8       ??_C@_0O@KHGCOMHP@generic?9type?9?$AA@ 7d041ca8     eh:undname.obj
 0002:00002cb8       ??_C@_0BE@JAEOCHPE@template?9parameter?9?$AA@ 7d041cb8     eh:undname.obj
 0002:00002ccc       ??_C@_02MOLJINC@?3?3?$AA@  7d041ccc     eh:undname.obj
 0002:00002cd0       ??_C@_0P@GCIFDJCJ@?$GAunknown?5ecsu?8?$AA@ 7d041cd0     eh:undname.obj
 0002:00002ce0       ??_C@_06MOJHIBMG@union?5?$AA@ 7d041ce0     eh:undname.obj
 0002:00002ce8       ??_C@_07DIBCDNGL@struct?5?$AA@ 7d041ce8     eh:undname.obj
 0002:00002cf0       ??_C@_06LJBABKPM@class?5?$AA@ 7d041cf0     eh:undname.obj
 0002:00002cf8       ??_C@_05LJGMCFOG@enum?5?$AA@ 7d041cf8     eh:undname.obj
 0002:00002d00       ??_C@_08KOFANOFK@coclass?5?$AA@ 7d041d00     eh:undname.obj
 0002:00002d0c       ??_C@_0N@DLIEFKNA@cointerface?5?$AA@ 7d041d0c     eh:undname.obj
 0002:00002d1c       ??_C@_02KCKGHPCA@?$CJ?5?$AA@ 7d041d1c     eh:undname.obj
 0002:00002d20       ??_C@_08KJLFOPNE@?$FLthunk?$FN?3?$AA@ 7d041d20     eh:undname.obj
 0002:00002d2c       ??_C@_08GPDDCMKI@public?3?5?$AA@ 7d041d2c     eh:undname.obj
 0002:00002d38       ??_C@_0M@GAIFPFIP@protected?3?5?$AA@ 7d041d38     eh:undname.obj
 0002:00002d44       ??_C@_09LAPHOOG@private?3?5?$AA@ 7d041d44     eh:undname.obj
 0002:00002d50       ??_C@_08NIEOINHE@virtual?5?$AA@ 7d041d50     eh:undname.obj
 0002:00002d5c       ??_C@_07PGOEDBHP@static?5?$AA@ 7d041d5c     eh:undname.obj
 0002:00002d64       ??_C@_0DA@HGFJFBBE@?$GAtemplate?5static?5data?5member?5des@ 7d041d64     eh:undname.obj
 0002:00002d94       ??_C@_0DB@ILEFOCIJ@?$GAtemplate?5static?5data?5member?5con@ 7d041d94     eh:undname.obj
 0002:00002dc8       ??_C@_0CB@KJDOOODE@?$GAlocal?5static?5destructor?5helper?8@ 7d041dc8     eh:undname.obj
 0002:00002dec       ??_C@_02IGFCGPIL@?$HN?8?$AA@ 7d041dec     eh:undname.obj
 0002:00002df0       ??_C@_0L@HNGCOGAE@?$GAadjustor?$HL?$AA@ 7d041df0     eh:undname.obj
 0002:00002dfc       ??_C@_0L@GHPFDFH@?$GAvtordisp?$HL?$AA@ 7d041dfc     eh:undname.obj
 0002:00002e08       ??_C@_01CLKCMJKC@?5?$AA@   7d041e08     eh:undname.obj
 0002:00002e0c       ??_C@_03OPGICMGF@?$HN?8?5?$AA@ 7d041e0c     eh:undname.obj
 0002:00002e10       ??_C@_06LIJLOJAG@const?5?$AA@ 7d041e10     eh:undname.obj
 0002:00002e18       ??_C@_09GAIEOBLP@volatile?5?$AA@ 7d041e18     eh:undname.obj
 0002:00002e24       ??_C@_05HAECCCAF@__gc?5?$AA@ 7d041e24     eh:undname.obj
 0002:00002e2c       ??_C@_06CCOHJJDD@__pin?5?$AA@ 7d041e2c     eh:undname.obj
 0002:00002e34       ??_C@_02PBFOLPKM@?$FN?5?$AA@ 7d041e34     eh:undname.obj
 0002:00002e38       ??_C@_05LMIJICDI@__gc?$FL?$AA@ 7d041e38     eh:undname.obj
 0002:00002e40       ??_C@_04HEJADOOB@CV?3?5?$AA@ 7d041e40     eh:undname.obj
 0002:00002e48       ??_C@_08PABEKFH@volatile?$AA@ 7d041e48     eh:undname.obj
 0002:00002e54       ??_C@_09EFNPDFFP@?5volatile?$AA@ 7d041e54     eh:undname.obj
 0002:00002e60       ??_C@_05BNCCCJPP@const?$AA@ 7d041e60     eh:undname.obj
 0002:00002e68       ??_C@_07EDHNAJHC@signed?5?$AA@ 7d041e68     eh:undname.obj
 0002:00002e70       ??_C@_06BNJCAIGJ@double?$AA@ 7d041e70     eh:undname.obj
 0002:00002e78       ??_C@_04DDKJGDCM@bool?$AA@ 7d041e78     eh:undname.obj
 0002:00002e80       ??_C@_07CLGGIAMF@wchar_t?$AA@ 7d041e80     eh:undname.obj
 0002:00002e88       ??_C@_07NFANNNEC@UNKNOWN?$AA@ 7d041e88     eh:undname.obj
 0002:00002e90       ??_C@_08GAHOLHEO@__int128?$AA@ 7d041e90     eh:undname.obj
 0002:00002e9c       ??_C@_07OFLPPHGP@__int32?$AA@ 7d041e9c     eh:undname.obj
 0002:00002ea4       ??_C@_07LFCOJCAC@__int64?$AA@ 7d041ea4     eh:undname.obj
 0002:00002eac       ??_C@_07ICFHOGAF@__int16?$AA@ 7d041eac     eh:undname.obj
 0002:00002eb4       ??_C@_06GCICPBLB@__w64?5?$AA@ 7d041eb4     eh:undname.obj
 0002:00002ebc       ??_C@_06EBGKOKIG@__int8?$AA@ 7d041ebc     eh:undname.obj
 0002:00002ec4       ??_C@_05KNFBNCOH@float?$AA@ 7d041ec4     eh:undname.obj
 0002:00002ecc       ??_C@_04GOKPGOLB@long?$AA@ 7d041ecc     eh:undname.obj
 0002:00002ed4       ??_C@_03JBIPMCLC@int?$AA@  7d041ed4     eh:undname.obj
 0002:00002ed8       ??_C@_05BFKKPKCG@short?$AA@ 7d041ed8     eh:undname.obj
 0002:00002ee0       ??_C@_04ENMBGAPA@char?$AA@ 7d041ee0     eh:undname.obj
 0002:00002ee8       ??_C@_02CEGDFPFP@?4?2?$AA@ 7d041ee8     exec:execve.obj
 0002:00002eec       ??_C@_01KICIPPFI@?2?$AA@   7d041eec     exec:execvpe.obj
 0002:00002ef0       ??_C@_04HBHDLLBA@PATH?$AA@ 7d041ef0     exec:execvpe.obj
 0002:00002ef8       ??_C@_15PCEAIKAA@?$AA?4?$AA?2?$AA?$AA@ 7d041ef8     exec:wexecve.obj
 0002:00002f00       ??_C@_13FPGAJAPJ@?$AA?2?$AA?$AA@ 7d041f00     exec:wexecvpe.obj
 0002:00002f04       ??_C@_19IJOJOJIB@?$AAP?$AAA?$AAT?$AAH?$AA?$AA@ 7d041f04     exec:wexecvpe.obj
 0002:00002f10       ??_C@_1BA@DBKIDAPL@?$AAc?$AAm?$AAd?$AA?4?$AAe?$AAx?$AAe?$AA?$AA@ 7d041f10     exec:wsystem.obj
 0002:00002f20       ??_C@_1BI@LHBFHNF@?$AAc?$AAo?$AAm?$AAm?$AAa?$AAn?$AAd?$AA?4?$AAc?$AAo?$AAm?$AA?$AA@ 7d041f20     exec:wsystem.obj
 0002:00002f38       ??_C@_15JBFELBFC@?$AA?1?$AAc?$AA?$AA@ 7d041f38     exec:wsystem.obj
 0002:00002f40       ??_C@_1BA@HMCCKBDK@?$AAC?$AAO?$AAM?$AAS?$AAP?$AAE?$AAC?$AA?$AA@ 7d041f40     exec:wsystem.obj
 0002:00002f50       ??_C@_07INNMNHPJ@cmd?4exe?$AA@ 7d041f50     exec:system.obj
 0002:00002f58       ??_C@_0M@BOIIGAL@command?4com?$AA@ 7d041f58     exec:system.obj
 0002:00002f64       ??_C@_02HNHPBPFE@?1c?$AA@  7d041f64     exec:system.obj
 0002:00002f68       ??_C@_07CFPBBAOO@COMSPEC?$AA@ 7d041f68     exec:system.obj
 0002:000032b0       ??_C@_06GDENEHCP@CONIN$?$AA@ 7d0422b0     lowio:initcon.obj
 0002:000032b8       ??_C@_07GPDNMNG@CONOUT$?$AA@ 7d0422b8     lowio:initcon.obj
 0002:000032c0       ??_C@_15ELOONFKJ@?$AA?3?$AA?5?$AA?$AA@ 7d0422c0     misc:_wcserr.obj
 0002:000032c8       ??_C@_02LMMGGCAJ@?3?5?$AA@ 7d0422c8     misc:_strerr.obj
 0002:000032cc       ??_C@_0BG@KLEAJEFJ@Illegal?5byte?5sequence?$AA@ 7d0422cc     misc:syserr.obj
 0002:000032e4       ??_C@_0BE@ICMCHPHH@Directory?5not?5empty?$AA@ 7d0422e4     misc:syserr.obj
 0002:000032f8       ??_C@_0BJ@IHEHINLI@Function?5not?5implemented?$AA@ 7d0422f8     misc:syserr.obj
 0002:00003314       ??_C@_0BD@CLHBCGPB@No?5locks?5available?$AA@ 7d042314     misc:syserr.obj
 0002:00003328       ??_C@_0BC@BEDIHIDK@Filename?5too?5long?$AA@ 7d042328     misc:syserr.obj
 0002:0000333c       ??_C@_0BK@JAEBMJJM@Resource?5deadlock?5avoided?$AA@ 7d04233c     misc:syserr.obj
 0002:00003358       ??_C@_0BB@FCBJFCAJ@Result?5too?5large?$AA@ 7d042358     misc:syserr.obj
 0002:0000336c       ??_C@_0N@MMJPGLJK@Domain?5error?$AA@ 7d04236c     misc:syserr.obj
 0002:0000337c       ??_C@_0M@LHEPIIOM@Broken?5pipe?$AA@ 7d04237c     misc:syserr.obj
 0002:00003388       ??_C@_0P@PKCJJLLM@Too?5many?5links?$AA@ 7d042388     misc:syserr.obj
 0002:00003398       ??_C@_0BG@DDBFNKBH@Read?9only?5file?5system?$AA@ 7d042398     misc:syserr.obj
 0002:000033b0       ??_C@_0N@FEHLOILP@Invalid?5seek?$AA@ 7d0423b0     misc:syserr.obj
 0002:000033c0       ??_C@_0BI@FEALHKLD@No?5space?5left?5on?5device?$AA@ 7d0423c0     misc:syserr.obj
 0002:000033d8       ??_C@_0P@LFMMIPAE@File?5too?5large?$AA@ 7d0423d8     misc:syserr.obj
 0002:000033e8       ??_C@_0CE@ONOKNLPF@Inappropriate?5I?1O?5control?5operat@ 7d0423e8     misc:syserr.obj
 0002:0000340c       ??_C@_0BE@INBJMKGG@Too?5many?5open?5files?$AA@ 7d04240c     misc:syserr.obj
 0002:00003420       ??_C@_0BO@IIFBODJE@Too?5many?5open?5files?5in?5system?$AA@ 7d042420     misc:syserr.obj
 0002:00003440       ??_C@_0BB@HMGGCEBG@Invalid?5argument?$AA@ 7d042440     misc:syserr.obj
 0002:00003454       ??_C@_0P@NDHGCGKE@Is?5a?5directory?$AA@ 7d042454     misc:syserr.obj
 0002:00003464       ??_C@_0BA@CJBACOOL@Not?5a?5directory?$AA@ 7d042464     misc:syserr.obj
 0002:00003474       ??_C@_0P@NLEIANHE@No?5such?5device?$AA@ 7d042474     misc:syserr.obj
 0002:00003484       ??_C@_0O@OAMDNOCP@Improper?5link?$AA@ 7d042484     misc:syserr.obj
 0002:00003494       ??_C@_0M@NAAJNNGH@File?5exists?$AA@ 7d042494     misc:syserr.obj
 0002:000034a0       ??_C@_0BA@BIBLIOEK@Resource?5device?$AA@ 7d0424a0     misc:syserr.obj
 0002:000034b0       ??_C@_0O@NIPGCINC@Unknown?5error?$AA@ 7d0424b0     misc:syserr.obj
 0002:000034c0       ??_C@_0M@LOEHLCJD@Bad?5address?$AA@ 7d0424c0     misc:syserr.obj
 0002:000034cc       ??_C@_0BC@HFNFNKAI@Permission?5denied?$AA@ 7d0424cc     misc:syserr.obj
 0002:000034e0       ??_C@_0BB@IMDKMPFB@Not?5enough?5space?$AA@ 7d0424e0     misc:syserr.obj
 0002:000034f4       ??_C@_0CB@EPFKGNAK@Resource?5temporarily?5unavailable@ 7d0424f4     misc:syserr.obj
 0002:00003518       ??_C@_0BD@LOHELEP@No?5child?5processes?$AA@ 7d042518     misc:syserr.obj
 0002:0000352c       ??_C@_0BE@NFGDDCEF@Bad?5file?5descriptor?$AA@ 7d04252c     misc:syserr.obj
 0002:00003540       ??_C@_0BC@HKPNECK@Exec?5format?5error?$AA@ 7d042540     misc:syserr.obj
 0002:00003554       ??_C@_0BC@MFFGCDFL@Arg?5list?5too?5long?$AA@ 7d042554     misc:syserr.obj
 0002:00003568       ??_C@_0BK@DPKMCKJ@No?5such?5device?5or?5address?$AA@ 7d042568     misc:syserr.obj
 0002:00003584       ??_C@_0BD@KKNFOBBD@Input?1output?5error?$AA@ 7d042584     misc:syserr.obj
 0002:00003598       ??_C@_0BK@FJBOAFDK@Interrupted?5function?5call?$AA@ 7d042598     misc:syserr.obj
 0002:000035b4       ??_C@_0BA@FKIAIBGA@No?5such?5process?$AA@ 7d0425b4     misc:syserr.obj
 0002:000035c4       ??_C@_0BK@FMDHKPNF@No?5such?5file?5or?5directory?$AA@ 7d0425c4     misc:syserr.obj
 0002:000035e0       ??_C@_0BI@BJFCGOHL@Operation?5not?5permitted?$AA@ 7d0425e0     misc:syserr.obj
 0002:000035f8       ??_C@_08INEPGKHH@No?5error?$AA@ 7d0425f8     misc:syserr.obj
 0002:00003608       ??_C@_1IA@JENHHBGD@?$AAV?$AAi?$AAs?$AAu?$AAa?$AAl?$AA?5?$AAC?$AA?$CL?$AA?$CL?$AA?5?$AAC?$AAR?$AAT?$AA?3?$AA?5?$AAN?$AAo?$AAt?$AA?5@ 7d042608     misc:wcserror.obj
 0002:00003688       ??_C@_0EA@FCLIIPNN@Visual?5C?$CL?$CL?5CRT?3?5Not?5enough?5memor@ 7d042688     misc:strerror.obj
 0002:000036c8       ??_C@_04NPFIMJFF@?5?1c?5?$AA@ 7d0426c8     stdio:popen.obj
 0002:000036d0       ??_C@_03FICNPLNB@TMP?$AA@  7d0426d0     stdio:tempnam.obj
 0002:000036d4       ??_C@_19FNCMDGGJ@?$AA?5?$AA?1?$AAc?$AA?5?$AA?$AA@ 7d0426d4     stdio:wpopen.obj
 0002:000036e0       ??_C@_17DDHKMLLK@?$AAT?$AAM?$AAP?$AA?$AA@ 7d0426e0     stdio:wtempnam.obj
 0002:000036e8       ??_C@_06IMKFLFPG@1?$CDQNAN?$AA@ 7d0426e8     conv:x10fout.obj
 0002:000036f0       ??_C@_05DNEBIAHO@1?$CDINF?$AA@ 7d0426f0     conv:x10fout.obj
 0002:000036f8       ??_C@_05PHHOCPM@1?$CDIND?$AA@ 7d0426f8     conv:x10fout.obj
 0002:00003700       ??_C@_06PGGFOGJG@1?$CDSNAN?$AA@ 7d042700     conv:x10fout.obj
 0002:00003708       ??_C@_05KLBDPFGC@e?$CL000?$AA@ 7d042708     conv:cvt.obj
 0002:00003710       __real@0010000000000000    7d042710     conv:cvt.obj
 0002:00003718       __real@3ff0000000000000    7d042718     tran:ieeemisc.obj
 0002:00003728       __real@4000000000000000    7d042728     tran:bessel.obj
 0002:00003730       __real@400921fb54442d18    7d042730     tran:bessel.obj
 0002:00003738       __real@3fe921fb54442d18    7d042738     tran:bessel.obj
 0002:00003740       __real@4020000000000000    7d042740     tran:bessel.obj
 0002:00003748       __real@401e000000000000    7d042748     tran:bessel.obj
 0002:00003750       __real@4002d97c7f3321d2    7d042750     tran:bessel.obj
 0002:00003758       __real@3fe45f306dc9c883    7d042758     tran:bessel.obj
 0002:00003840       __real@4150017ec0000000    7d042840     tran:testfdiv.obj
 0002:00003848       __real@4147ffff80000000    7d042848     tran:testfdiv.obj
 0002:00003850       ??_C@_0BK@NHEOCAHP@IsProcessorFeaturePresent?$AA@ 7d042850     tran:testfdiv.obj
 0002:0000386c       ??_C@_08CPNIBGIE@KERNEL32?$AA@ 7d04286c     tran:testfdiv.obj
 0002:00003888       __DEFAULT_CW_in_mem        7d042888     tran:common.obj
 0002:0000388a       __pi_by_2_to_61            7d04288a     tran:common.obj
 0002:00008b00       __real@3fe0000000000000    7d047b00     tran:powhlp.obj
 0002:00008b08       ??_C@_0L@KDOEJCKC@_nextafter?$AA@ 7d047b08     tran:fpexcept.obj
 0002:00008b14       ??_C@_05JGDBENOH@_logb?$AA@ 7d047b14     tran:fpexcept.obj
 0002:00008b1c       ??_C@_03ONILCKOB@_yn?$AA@  7d047b1c     tran:fpexcept.obj
 0002:00008b20       ??_C@_03NAKIGLHK@_y1?$AA@  7d047b20     tran:fpexcept.obj
 0002:00008b24       ??_C@_03MJLDFKDL@_y0?$AA@  7d047b24     tran:fpexcept.obj
 0002:00008b28       ??_C@_05GKKHEGJL@frexp?$AA@ 7d047b28     tran:fpexcept.obj
 0002:00008b30       ??_C@_04KEPJIHGP@fmod?$AA@ 7d047b30     tran:fpexcept.obj
 0002:00008b38       ??_C@_06MEIMCGCF@_hypot?$AA@ 7d047b38     tran:fpexcept.obj
 0002:00008b40       ??_C@_05KBKMEMPO@_cabs?$AA@ 7d047b40     tran:fpexcept.obj
 0002:00008b48       ??_C@_05CEJMAHNP@ldexp?$AA@ 7d047b48     tran:fpexcept.obj
 0002:00008b50       ??_C@_04EHEDPDJG@modf?$AA@ 7d047b50     tran:fpexcept.obj
 0002:00008b58       ??_C@_04ODHECPBC@fabs?$AA@ 7d047b58     tran:fpexcept.obj
 0002:00008b60       ??_C@_05PBJFFIGL@floor?$AA@ 7d047b60     tran:fpexcept.obj
 0002:00008b68       ??_C@_04GFPJNGEK@ceil?$AA@ 7d047b68     tran:fpexcept.obj
 0002:00008b70       ??_C@_03IIINPABG@tan?$AA@  7d047b70     tran:fpexcept.obj
 0002:00008b74       ??_C@_03LALBNOCG@cos?$AA@  7d047b74     tran:fpexcept.obj
 0002:00008b78       ??_C@_03BLEJJJBH@sin?$AA@  7d047b78     tran:fpexcept.obj
 0002:00008b7c       ??_C@_04EIAKFFMI@sqrt?$AA@ 7d047b7c     tran:fpexcept.obj
 0002:00008b84       ??_C@_05KNGEOGJB@atan2?$AA@ 7d047b84     tran:fpexcept.obj
 0002:00008b8c       ??_C@_04MLLJIGOK@atan?$AA@ 7d047b8c     tran:fpexcept.obj
 0002:00008b94       ??_C@_04PDIFKINK@acos?$AA@ 7d047b94     tran:fpexcept.obj
 0002:00008b9c       ??_C@_04FIHNOPOL@asin?$AA@ 7d047b9c     tran:fpexcept.obj
 0002:00008ba4       ??_C@_04FJHINJAO@tanh?$AA@ 7d047ba4     tran:fpexcept.obj
 0002:00008bac       ??_C@_04HPJJNFIM@cosh?$AA@ 7d047bac     tran:fpexcept.obj
 0002:00008bb4       ??_C@_04COOMCNPB@sinh?$AA@ 7d047bb4     tran:fpexcept.obj
 0002:00008bbc       ??_C@_05HGHHAHAP@log10?$AA@ 7d047bbc     tran:fpexcept.obj
 0002:00008bc4       ??_C@_03MGHMBJCF@log?$AA@  7d047bc4     tran:fpexcept.obj
 0002:00008bc8       ??_C@_03JGHBODFD@pow?$AA@  7d047bc8     tran:fpexcept.obj
 0002:00008bcc       ??_C@_03KHJOGHMM@exp?$AA@  7d047bcc     tran:fpexcept.obj
 0002:00008c38       ??_C@_04HPAFEEIN@exp2?$AA@ 7d047c38     tran:libm_error.obj
 0002:00008c40       ??_C@_05EOHGHCHD@exp10?$AA@ 7d047c40     tran:libm_error.obj
 0002:00008c48       ??_C@_04KGLCPMCP@log2?$AA@ 7d047c48     tran:libm_error.obj
 0002:00008c50       __atan_table               7d047c50     tran:atan_table.obj
 0002:0000a460       __load_config_used         7d049460     misc:loadcfg.obj
 0002:0000a4cc       ??_R1A@?0A@A@exception@std@@8 7d0494cc     eh:stdexcpt.obj
 0002:0000a4e4       ??_R2exception@std@@8      7d0494e4     eh:stdexcpt.obj
 0002:0000a4ec       ??_R3exception@std@@8      7d0494ec     eh:stdexcpt.obj
 0002:0000a4fc       ??_R4exception@std@@6B@    7d0494fc     eh:stdexcpt.obj
 0002:0000a510       ??_R1A@?0A@A@bad_cast@std@@8 7d049510     eh:stdexcpt.obj
 0002:0000a528       ??_R2bad_cast@std@@8       7d049528     eh:stdexcpt.obj
 0002:0000a534       ??_R3bad_cast@std@@8       7d049534     eh:stdexcpt.obj
 0002:0000a544       ??_R4bad_cast@std@@6B@     7d049544     eh:stdexcpt.obj
 0002:0000a558       ??_R1A@?0A@A@bad_typeid@std@@8 7d049558     eh:stdexcpt.obj
 0002:0000a570       ??_R2bad_typeid@std@@8     7d049570     eh:stdexcpt.obj
 0002:0000a57c       ??_R3bad_typeid@std@@8     7d04957c     eh:stdexcpt.obj
 0002:0000a58c       ??_R4bad_typeid@std@@6B@   7d04958c     eh:stdexcpt.obj
 0002:0000a5a0       ??_R1A@?0A@A@__non_rtti_object@std@@8 7d0495a0     eh:stdexcpt.obj
 0002:0000a5b8       ??_R2__non_rtti_object@std@@8 7d0495b8     eh:stdexcpt.obj
 0002:0000a5c8       ??_R3__non_rtti_object@std@@8 7d0495c8     eh:stdexcpt.obj
 0002:0000a5d8       ??_R4__non_rtti_object@std@@6B@ 7d0495d8     eh:stdexcpt.obj
 0002:0000a5ec       ??_R1A@?0A@A@type_info@@8  7d0495ec     eh:typname.obj
 0002:0000a604       ??_R2type_info@@8          7d049604     eh:typname.obj
 0002:0000a60c       ??_R3type_info@@8          7d04960c     eh:typname.obj
 0002:0000a61c       ??_R4type_info@@6B@        7d04961c     eh:typname.obj
 0002:0000a630       ??_R1A@?0A@A@exception@@8  7d049630     eh:oldexcpt.obj
 0002:0000a648       ??_R2exception@@8          7d049648     eh:oldexcpt.obj
 0002:0000a650       ??_R3exception@@8          7d049650     eh:oldexcpt.obj
 0002:0000a660       ??_R4exception@@6B@        7d049660     eh:oldexcpt.obj
 0002:0000a674       ??_R1A@?0A@A@bad_exception@std@@8 7d049674     eh:frame.obj
 0002:0000a68c       ??_R2bad_exception@std@@8  7d04968c     eh:frame.obj
 0002:0000a698       ??_R3bad_exception@std@@8  7d049698     eh:frame.obj
 0002:0000a6a8       ??_R4bad_exception@std@@6B@ 7d0496a8     eh:frame.obj
 0002:0000a6c0       ___safe_se_handler_table   7d0496c0     <linker-defined>
 0002:0000a6d4       ___rtc_iaa                 7d0496d4     rtc:initsect.obj
 0002:0000a6d8       ___rtc_izz                 7d0496d8     rtc:initsect.obj
 0002:0000a6dc       ___rtc_taa                 7d0496dc     rtc:initsect.obj
 0002:0000a6e0       ___rtc_tzz                 7d0496e0     rtc:initsect.obj
 0002:0000ac6c       __CT??_R0?AVexception@std@@@8??0exception@std@@QAE@ABV01@@Z12 7d049c6c     eh:frame.obj
 0002:0000ac88       __CT??_R0?AVbad_exception@std@@@8??0bad_exception@std@@QAE@ABV01@@Z12 7d049c88     eh:frame.obj
 0002:0000aca4       __CTA2?AVbad_exception@std@@ 7d049ca4     eh:frame.obj
 0002:0000acb0       __TI2?AVbad_exception@std@@ 7d049cb0     eh:frame.obj
 0002:0000acdc       __CT??_R0?AV__non_rtti_object@std@@@8??0__non_rtti_object@std@@QAE@ABV01@@Z12 7d049cdc     eh:rtti.obj
 0002:0000acf8       __CTA3?AV__non_rtti_object@std@@ 7d049cf8     eh:rtti.obj
 0002:0000ad08       __CT??_R0?AVbad_typeid@std@@@8??0bad_typeid@std@@QAE@ABV01@@Z12 7d049d08     eh:rtti.obj
 0002:0000ad24       __CTA2?AVbad_typeid@std@@  7d049d24     eh:rtti.obj
 0002:0000ad30       __TI3?AV__non_rtti_object@std@@ 7d049d30     eh:rtti.obj
 0002:0000ad40       __TI2?AVbad_typeid@std@@   7d049d40     eh:rtti.obj
 0002:0000ad6c       __CT??_R0?AVbad_cast@std@@@8??0bad_cast@std@@QAE@ABV01@@Z12 7d049d6c     eh:rtti.obj
 0002:0000ad88       __CTA2?AVbad_cast@std@@    7d049d88     eh:rtti.obj
 0002:0000ad94       __TI2?AVbad_cast@std@@     7d049d94     eh:rtti.obj
 0002:0000b460       __IMPORT_DESCRIPTOR_KERNEL32 7d04a460     kernel32:KERNEL32.dll
 0002:0000b474       __NULL_IMPORT_DESCRIPTOR   7d04a474     kernel32:KERNEL32.dll
 0003:00000000       ___xc_a                    7d051000     crt0init.obj
 0003:00000008       ___xc_z                    7d051008     crt0init.obj
 0003:0000000c       ___xi_a                    7d05100c     crt0init.obj
 0003:00000024       ___xi_z                    7d051024     crt0init.obj
 0003:00000028       ___xp_a                    7d051028     crt0init.obj
 0003:00000038       ___xp_z                    7d051038     crt0init.obj
 0003:0000003c       ___xt_a                    7d05103c     crt0init.obj
 0003:00000044       ___xt_z                    7d051044     crt0init.obj
 0003:00000050       __matherr_flag             7d051050     matherr.obj
 0003:00000060       __aexit_rtn                7d051060     crt0dat.obj
 0003:00000220       ___tlsindex                7d051220     tidtable.obj
 0003:00000398       __fileinfo                 7d051398     exec:fileinfo.obj
 0003:0000039c       __amblksiz                 7d05139c     heap:heapinit.obj
 0003:000003a0       ___old_small_block_heap    7d0513a0     heap:sbheap.obj
 0003:000023c4       ___old_sbh_threshold       7d0533c4     heap:sbheap.obj
 0003:000023c8       ___badioinfo               7d0533c8     lowio:ioinit.obj
 0003:00002548       ___lc_category             7d053548     misc:setlocal.obj
 0003:00002590       ___clocalestr              7d053590     misc:nlsdata2.obj
 0003:00002594       ___globallocalestatus      7d053594     misc:nlsdata2.obj
 0003:00002598       ___initiallocinfo          7d053598     misc:nlsdata2.obj
 0003:00002668       ___ptlocinfo               7d053668     misc:nlsdata2.obj
 0003:0000266c       ___lc_clike                7d05366c     misc:nlsdata2.obj
 0003:00002670       __pctype                   7d053670     misc:ctype.obj
 0003:00002674       __pwctype                  7d053674     misc:ctype.obj
 0003:00002678       __NLG_Destination          7d053678     misc:exsup.obj
 0003:00002688       __XcptActTab               7d053688     misc:winxfltr.obj
 0003:00002700       __First_FPE_Indx           7d053700     misc:winxfltr.obj
 0003:00002704       __Num_FPE                  7d053704     misc:winxfltr.obj
 0003:00002708       __XcptActTabSize           7d053708     misc:winxfltr.obj
 0003:0000270c       __XcptActTabCount          7d05370c     misc:winxfltr.obj
 0003:00002710       ___security_cookie         7d053710     misc:seccook.obj
 0003:00002748       ?f_use@?1??__crtwsetenv@@9@9 7d053748     misc:wsetenv.obj
 0003:0000274c       ___lconv_static_decimal    7d05374c     misc:lconv.obj
 0003:00002750       ___lconv_c                 7d053750     misc:lconv.obj
 0003:00002780       ___lconv                   7d053780     misc:lconv.obj
 0003:00002784       ___mb_cur_max              7d053784     misc:nlsdata1.obj
 0003:00002788       ___decimal_point           7d053788     misc:nlsdata1.obj
 0003:0000278c       ___decimal_point_length    7d05378c     misc:nlsdata1.obj
 0003:00002790       __iob                      7d053790     stdio:_file.obj
 0003:00002a10       __nstream                  7d053a10     stdio:_file.obj
 0003:00002a14       ___nullstring              7d053a14     stdio:output.obj
 0003:00002a18       ___wnullstring             7d053a18     stdio:output.obj
 0003:00002a20       __timezone                 7d053a20     time:timeset.obj
 0003:00002a24       __daylight                 7d053a24     time:timeset.obj
 0003:00002a28       __dstbias                  7d053a28     time:timeset.obj
 0003:00002ab0       __tzname                   7d053ab0     time:timeset.obj
 0003:00002ab8       ___lc_time_curr            7d053ab8     time:strftime.obj
 0003:00002ac0       ___lc_time_c               7d053ac0     time:strftime.obj
 0003:00002b90       __lpdays                   7d053b90     time:days.obj
 0003:00002bc4       __days                     7d053bc4     time:days.obj
 0003:00002c10       ?__DAZ_ENABLED@?1??__set_fpsr_sse2@@9@9 7d053c10     tran:fpctrl.obj
 0003:00002c20       __cfltcvt_tab              7d053c20     misc:cmiscdat.obj
 0003:00002c40       ??_R0?AVexception@std@@@8  7d053c40     eh:stdexcpt.obj
 0003:00002c5c       ??_R0?AVbad_cast@std@@@8   7d053c5c     eh:stdexcpt.obj
 0003:00002c78       ??_R0?AVbad_typeid@std@@@8 7d053c78     eh:stdexcpt.obj
 0003:00002c98       ??_R0?AV__non_rtti_object@std@@@8 7d053c98     eh:stdexcpt.obj
 0003:00002cbc       ??_R0?AVtype_info@@@8      7d053cbc     eh:typname.obj
 0003:00002cd4       ??_R0?AVexception@@@8      7d053cd4     eh:oldexcpt.obj
 0003:00002cf0       ??_R0?AVbad_exception@std@@@8 7d053cf0     eh:frame.obj
 0003:00002d10       ?__pInconsistency@@3P6AXXZA 7d053d10     eh:hooks.obj
 0003:00002d14       ?__pMyUnhandledExceptionFilter@@3PAXA 7d053d14     eh:throw.obj
 0003:00002d60       __p_overlay                7d053d60     exec:dospawn.obj
 0003:00002d74       ?use_w@?1??_putwch_lk@@9@9 7d053d74     lowio:putwch.obj
 0003:00002d90       __coninpfh                 7d053d90     lowio:initcon.obj
 0003:00002d94       __confh                    7d053d94     lowio:initcon.obj
 0003:00003054       __setjmpexused             7d054054     misc:setjmpex.obj
 0003:00003058       __sys_errlist              7d054058     misc:syserr.obj
 0003:00003108       __sys_nerr                 7d054108     misc:syserr.obj
 0003:0000310c       __tempoff                  7d05410c     stdio:rmtmp.obj
 0003:00003118       __fltused                  7d054118     conv:fpinit.obj
 0003:0000311c       __ldused                   7d05411c     conv:fpinit.obj
 0003:00003120       __FPinit                   7d054120     conv:fpinit.obj
 0003:00003124       __FPmtinit                 7d054124     conv:fpinit.obj
 0003:00003128       __FPmtterm                 7d054128     conv:fpinit.obj
 0003:00003160       __pow10pos                 7d054160     conv:constpow.obj
 0003:000032c0       __pow10neg                 7d0542c0     conv:constpow.obj
 0003:00003460       __OP_FMODjmptab            7d054460     tran:87fmod.obj
 0003:000034d0       __half                     7d0544d0     tran:pow.obj
 0003:00003510       __HUGE                     7d054510     tran:huge.obj
 0003:00003c20       __indefinite               7d054c20     tran:87disp.obj
 0003:00003c2a       __piby2                    7d054c2a     tran:87disp.obj
 0003:00003c50       __OP_ATAN2jmptab           7d054c50     tran:87triga.obj
 0003:00003caa       __OP_SINHjmptab            7d054caa     tran:87trigh.obj
 0003:00003cca       __OP_COSHjmptab            7d054cca     tran:87trigh.obj
 0003:00003cea       __OP_TANHjmptab            7d054cea     tran:87trigh.obj
 0003:00003d10       __infinity                 7d054d10     tran:87tran.obj
 0003:00003d1a       __minfinity                7d054d1a     tran:87tran.obj
 0003:00003d24       __logemax                  7d054d24     tran:87tran.obj
 0003:00003d4a       __OP_EXPjmptab             7d054d4a     tran:87tran.obj
 0003:00003d70       ?_names@?1??_get_fname@@9@9 7d054d70     tran:fpexcept.obj
 0003:00003e58       __d_inf                    7d054e58     tran:util.obj
 0003:00003e60       __d_ind                    7d054e60     tran:util.obj
 0003:00003e68       __d_max                    7d054e68     tran:util.obj
 0003:00003e70       __d_min                    7d054e70     tran:util.obj
 0003:00003e78       __d_mzero                  7d054e78     tran:util.obj
 0003:000048c0       __pmatherr                 7d0558c0     tran:libm_error.obj
 0003:00004980       ?_pnhHeap@@3P6AHI@ZA       7d055980     handler.obj
 0003:00004984       _pusermatherr              7d055984     matherr.obj
 0003:00004988       __umaskval                 7d055988     crt0dat.obj
 0003:0000498c       __osplatform               7d05598c     crt0dat.obj
 0003:00004990       __osver                    7d055990     crt0dat.obj
 0003:00004994       __winver                   7d055994     crt0dat.obj
 0003:00004998       __winmajor                 7d055998     crt0dat.obj
 0003:0000499c       __winminor                 7d05599c     crt0dat.obj
 0003:000049a0       ___argc                    7d0559a0     crt0dat.obj
 0003:000049a4       ___argv                    7d0559a4     crt0dat.obj
 0003:000049a8       ___wargv                   7d0559a8     crt0dat.obj
 0003:000049ac       __environ                  7d0559ac     crt0dat.obj
 0003:000049b0       ___initenv                 7d0559b0     crt0dat.obj
 0003:000049b4       __wenviron                 7d0559b4     crt0dat.obj
 0003:000049b8       ___winitenv                7d0559b8     crt0dat.obj
 0003:000049bc       __pgmptr                   7d0559bc     crt0dat.obj
 0003:000049c0       __wpgmptr                  7d0559c0     crt0dat.obj
 0003:000049c4       __exitflag                 7d0559c4     crt0dat.obj
 0003:000049c8       __C_Termination_Done       7d0559c8     crt0dat.obj
 0003:000049cc       __C_Exit_Done              7d0559cc     crt0dat.obj
 0003:000049d0       __adbgmsg                  7d0559d0     crt0msg.obj
 0003:000049d8       __wcmdln                   7d0559d8     crtlib.obj
 0003:000049dc       __acmdln                   7d0559dc     crtlib.obj
 0003:000049e0       __aenvptr                  7d0559e0     crtlib.obj
 0003:000049e4       __wenvptr                  7d0559e4     crtlib.obj
 0003:000049e8       ___error_mode              7d0559e8     crtlib.obj
 0003:000049ec       ___app_type                7d0559ec     crtlib.obj
 0003:00004b40       _gpFlsAlloc                7d055b40     tidtable.obj
 0003:00004b44       _gpFlsGetValue             7d055b44     tidtable.obj
 0003:00004b48       _gpFlsSetValue             7d055b48     tidtable.obj
 0003:00004b4c       _gpFlsFree                 7d055b4c     tidtable.obj
 0003:00004b60       __newmode                  7d055b60     heap:_newmode.obj
 0003:00004b64       __maxwait                  7d055b64     heap:crtheap.obj
 0003:00004b6c       __fmode                    7d055b6c     lowio:txtmode.obj
 0003:00004b74       ?pfnGetProcessWindowStation@?1??__crtMessageBoxA@@9@9 7d055b74     misc:crtmbox.obj
 0003:00004b78       ?pfnGetUserObjectInformation@?1??__crtMessageBoxA@@9@9 7d055b78     misc:crtmbox.obj
 0003:00004b7c       ?pfnGetLastActivePopup@?1??__crtMessageBoxA@@9@9 7d055b7c     misc:crtmbox.obj
 0003:00004b80       ?pfnGetActiveWindow@?1??__crtMessageBoxA@@9@9 7d055b80     misc:crtmbox.obj
 0003:00004b84       ?pfnMessageBox@?1??__crtMessageBoxA@@9@9 7d055b84     misc:crtmbox.obj
 0003:00004b88       ?f_use@?1??__crtGetEnvironmentStringsW@@9@9 7d055b88     misc:w_env.obj
 0003:00004b8c       ?f_use@?1??__crtGetCommandLineW@@9@9 7d055b8c     misc:aw_com.obj
 0003:00004b90       ?f_use@?1??__crtGetEnvironmentStringsA@@9@9 7d055b90     misc:a_env.obj
 0003:00004b94       ___lc_handle               7d055b94     misc:nlsdata2.obj
 0003:00004bac       ___lc_codepage             7d055bac     misc:nlsdata2.obj
 0003:00004bb0       ___lc_collate_cp           7d055bb0     misc:nlsdata2.obj
 0003:00004bb4       ?__crtInitCritSecAndSpinCount@?1??0@@9@9 7d055bb4     misc:initcrit.obj
 0003:00004bb8       ?f_use@?1??__crtLCMapStringA@@9@9 7d055bb8     misc:a_map.obj
 0003:00004bbc       ?f_use@?1??__crtGetStringTypeA@@9@9 7d055bbc     misc:a_str.obj
 0003:00004bd4       ?pfnGetProcessWindowStation@?1??__crtMessageBoxW@@9@9 7d055bd4     misc:crtmboxw.obj
 0003:00004bd8       ?pfnGetUserObjectInformation@?1??__crtMessageBoxW@@9@9 7d055bd8     misc:crtmboxw.obj
 0003:00004bdc       ?pfnGetLastActivePopup@?1??__crtMessageBoxW@@9@9 7d055bdc     misc:crtmboxw.obj
 0003:00004be0       ?pfnGetActiveWindow@?1??__crtMessageBoxW@@9@9 7d055be0     misc:crtmboxw.obj
 0003:00004be4       ?pfnMessageBox@?1??__crtMessageBoxW@@9@9 7d055be4     misc:crtmboxw.obj
 0003:00004c34       ___lconv_static_null       7d055c34     misc:lconv.obj
 0003:00004c40       ?f_use@?1??__crtGetLocaleInfoW@@9@9 7d055c40     misc:w_loc.obj
 0003:00004c44       ?f_use@?1??__crtGetLocaleInfoA@@9@9 7d055c44     misc:a_loc.obj
 0003:00004c48       __commode                  7d055c48     stdio:ncommode.obj
 0003:00004c4c       __stdbuf                   7d055c4c     stdio:_sftbuf.obj
 0003:00004d0c       ?first_time@?1??__tzset@@9@9 7d055d0c     time:tzset.obj
 0003:00004d10       ?f_use@?1??__crtCompareStringW@@9@9 7d055d10     misc:w_cmp.obj
 0003:00004d14       ___pInvalidArgHandler      7d055d14     misc:invarg.obj
 0003:00004d18       ?f_use@?1??__crtLCMapStringW@@9@9 7d055d18     misc:w_map.obj
 0003:00004d1c       ?f_use@?1??__crtGetStringTypeW@@9@9 7d055d1c     misc:w_str.obj
 0003:00004d20       ?f_use@?1??__crtCompareStringA@@9@9 7d055d20     misc:a_cmp.obj
 0003:00004d40       ?pArgList@UnDecorator@@0PAVReplicator@@A 7d055d40     eh:undname.obj
 0003:00004d44       ?pZNameList@UnDecorator@@0PAVReplicator@@A 7d055d44     eh:undname.obj
 0003:00004d48       ?pTemplateArgList@UnDecorator@@0PAVReplicator@@A 7d055d48     eh:undname.obj
 0003:00004d4c       ?gName@UnDecorator@@0PBDB  7d055d4c     eh:undname.obj
 0003:00004d50       ?name@UnDecorator@@0PBDB   7d055d50     eh:undname.obj
 0003:00004d54       ?outputString@UnDecorator@@0PADA 7d055d54     eh:undname.obj
 0003:00004d58       ?maxStringLength@UnDecorator@@0HA 7d055d58     eh:undname.obj
 0003:00004d5c       ?disableFlags@UnDecorator@@0KA 7d055d5c     eh:undname.obj
 0003:00004d60       ?m_pGetParameter@UnDecorator@@0P6APADJ@ZA 7d055d60     eh:undname.obj
 0003:00004d64       ?fExplicitTemplateParams@UnDecorator@@0_NA 7d055d64     eh:undname.obj
 0003:00004d65       ?fGetTemplateArgumentList@UnDecorator@@0_NA 7d055d65     eh:undname.obj
 0003:00004d6c       ?was_buff_full@?N@??_cgetws@@9@9 7d055d6c     lowio:cgetws.obj
 0003:00004d70       ?in_buff@?N@??_cgetws@@9@9 7d055d70     lowio:cgetws.obj
 0003:00004d74       ___pPurecall               7d055d74     misc:purevirt.obj
 0003:00004d78       ___idtabsiz                7d055d78     stdio:popen.obj
 0003:00004d7c       ___idpairs                 7d055d7c     stdio:popen.obj
 0003:00004d80       __old_pfxlen               7d055d80     stdio:rmtmp.obj
 0003:00004e40       ___fastflag                7d055e40     conv:fpinit.obj
 0003:00004e44       __adjust_fdiv              7d055e44     conv:fpinit.obj
 0003:00004e64       ?findbuf@?1??wfind@@9@9    7d055e64     <common>
 0003:00004e68       ?_WildFindHandle@?1??wfind@@9@9 7d055e68     <common>
 0003:00004e80       ?_pgmname@?1??_wsetargv@@9@9 7d055e80     <common>
 0003:0000508c       ?findbuf@?1??find@@9@9     7d05608c     <common>
 0003:00005090       ?_WildFindHandle@?1??find@@9@9 7d056090     <common>
 0003:000050a0       ?_pgmname@?1??_setargv@@9@9 7d0560a0     <common>
 0003:000051c0       ?outmsg@?5??_NMSG_WRITE@@9@9 7d0561c0     <common>
 0003:000054d4       ___onexitend               7d0564d4     <common>
 0003:000054d8       ___onexitbegin             7d0564d8     <common>
 0003:000054e0       ?_pgmname@?1??__wsetargv@@9@9 7d0564e0     <common>
 0003:00005700       ?_pgmname@?1??__setargv@@9@9 7d056700     <common>
 0003:00005808       ___sbh_pHeaderDefer        7d056808     <common>
 0003:0000580c       ___sbh_cntHeaderList       7d05680c     <common>
 0003:00005810       ___sbh_pHeaderList         7d056810     <common>
 0003:00005814       ___sbh_threshold           7d056814     <common>
 0003:00005818       ___sbh_pHeaderScan         7d056818     <common>
 0003:0000581c       ___sbh_sizeHeaderList      7d05681c     <common>
 0003:00005820       ___sbh_indGroupDefer       7d056820     <common>
 0003:00005824       __crtheap                  7d056824     <common>
 0003:00005828       ___active_heap             7d056828     <common>
 0003:00005840       ?AStr@?N@??_cgetws@@9@9    7d056840     <common>
 0003:00005884       __nhandle                  7d056884     <common>
 0003:000058a0       ___pioinfo                 7d0568a0     <common>
 0003:000059a0       ___mblcid                  7d0569a0     <common>
 0003:000059a4       ___ptmbcinfo               7d0569a4     <common>
 0003:000059a8       ___ismbcodepage            7d0569a8     <common>
 0003:000059c0       __mbctype                  7d0569c0     <common>
 0003:00005ac4       ___mbcodepage              7d056ac4     <common>
 0003:00005ad0       ___mbulinfo                7d056ad0     <common>
 0003:00005ae0       __mbcasemap                7d056ae0     <common>
 0003:00005be0       ?wcbuffer@?4??__getlocaleinfo@@9@9 7d056be0     <common>
 0003:00005be8       ___setlc_active            7d056be8     <common>
 0003:00005bec       ___unguarded_readlc_active 7d056bec     <common>
 0003:00005bf0       ___piob                    7d056bf0     <common>
 0003:00005c00       __bufin                    7d056c00     <common>
 0003:00006c00       ___use_sse2_mathfcns       7d057c00     <common>
 0003:00006c04       ___sse2_available          7d057c04     <common>

 entry point at        0000:00000000

 Static symbols

 0001:000000df       _parse_cmdline             7d0010df f   _setargv.obj
 0001:0000030f       _wparse_cmdline            7d00130f f   _wstargv.obj
 0001:00000640       _doexit                    7d001640 f   crt0dat.obj
 0001:00000daf       _parse_cmdline             7d001daf f   stdargv.obj
 0001:00001093       __threadstart@4            7d002093 f   thread.obj
 0001:000011e8       __threadstartex@4          7d0021e8 f   threadex.obj
 0001:00001692       _add                       7d002692 f   wild.obj
 0001:000016cd       _find                      7d0026cd f   wild.obj
 0001:00001756       _match                     7d002756 f   wild.obj
 0001:0000197c       _wparse_cmdline            7d00297c f   wstdargv.obj
 0001:00001c36       _wadd                      7d002c36 f   wwild.obj
 0001:00001c71       _wfind                     7d002c71 f   wwild.obj
 0001:00001cfa       _wmatch                    7d002cfa f   wwild.obj
 0001:00004482       _getSystemCP               7d005482 f   mbstring:mbctype.obj
 0001:000044eb       _CPtoLCID                  7d0054eb f   mbstring:mbctype.obj
 0001:0000451a       _setSBCS                   7d00551a f   mbstring:mbctype.obj
 0001:00004543       _setSBUpLow                7d005543 f   mbstring:mbctype.obj
 0001:00004739       __setmbcp_lk               7d005739 f   mbstring:mbctype.obj
 0001:00004d73       _swprintf                  7d005d73 f   misc:wassert.obj
 0001:000052e5       __onexit_lk                7d0062e5 f   misc:onexit.obj
 0001:000055bd       $$$00003                   7d0065bd f   misc:exsup3.obj
 0001:00005c97       ___updatetlocinfoEx_lk     7d006c97 f   misc:setlocal.obj
 0001:00005db1       _sync_lagacy_variables_lk  7d006db1 f   misc:setlocal.obj
 0001:00005f52       __setlocale_get_all        7d006f52 f   misc:setlocal.obj
 0001:000061ec       __setlocale_set_cat        7d0071ec f   misc:setlocal.obj
 0001:000064ac       __setlocale_lk             7d0074ac f   misc:setlocal.obj
 0001:000067b6       ___crtInitCritSecNoSpinCount@8 7d0077b6 f   misc:initcrit.obj
 0001:0000685c       $$$00001                   7d00785c f   misc:exsup.obj
 0001:0000687c       $$$00003                   7d00787c f   misc:exsup.obj
 0001:0000687c       __unwind_handler           7d00787c f   misc:exsup.obj
 0001:000068b7       $$$00005                   7d0078b7 f   misc:exsup.obj
 0001:00006927       $$$00007                   7d007927 f   misc:exsup.obj
 0001:00006971       $$$00011                   7d007971 f   misc:exsup.obj
 0001:000070ae       _report_failure            7d0080ae f   misc:secchk.obj
 0001:00007105       _ctrlevent_capture@4       7d008105 f   misc:winsig.obj
 0001:00007194       _siglookup                 7d008194 f   misc:winsig.obj
 0001:00007c2e       _wfindenv                  7d008c2e f   misc:wsetenv.obj
 0001:00007c7f       _copy_environ              7d008c7f f   misc:wsetenv.obj
 0001:00007fb4       __get_lc_time              7d008fb4 f   misc:inittime.obj
 0001:00008d0e       _TranslateName             7d009d0e f   misc:getqloc.obj
 0001:00008d6e       _ProcessCodePage           7d009d6e f   misc:getqloc.obj
 0001:00008de1       _TestDefaultCountry        7d009de1 f   misc:getqloc.obj
 0001:00008dff       _crtGetLocaleInfoA@16      7d009dff f   misc:getqloc.obj
 0001:00008ee2       _LcidFromHexString         7d009ee2 f   misc:getqloc.obj
 0001:00008f14       _GetPrimaryLen             7d009f14 f   misc:getqloc.obj
 0001:00008f2f       _CountryEnumProc@4         7d009f2f f   misc:getqloc.obj
 0001:00008fbf       _TestDefaultLanguage       7d009fbf f   misc:getqloc.obj
 0001:0000902e       _LangCountryEnumProc@4     7d00a02e f   misc:getqloc.obj
 0001:0000920b       _LanguageEnumProc@4        7d00a20b f   misc:getqloc.obj
 0001:000092c8       _GetLcidFromLangCountry    7d00a2c8 f   misc:getqloc.obj
 0001:0000932d       _GetLcidFromLanguage       7d00a32d f   misc:getqloc.obj
 0001:00009fa2       _flsall                    7d00afa2 f   stdio:fflush.obj
 0001:0000a41d       _write_char                7d00b41d f   stdio:woutput.obj
 0001:0000a442       _write_multi_char          7d00b442 f   stdio:woutput.obj
 0001:0000a467       _write_string              7d00b467 f   stdio:woutput.obj
 0001:0000ae4a       _write_char                7d00be4a f   stdio:output.obj
 0001:0000ae7d       _write_multi_char          7d00be7d f   stdio:output.obj
 0001:0000aea1       _write_string              7d00bea1 f   stdio:output.obj
 0001:0000bf70       _$$$00001                  7d00cf70 f   string:strchr.obj
 0001:0000d039       __store_str                7d00e039 f   time:strftime.obj
 0001:0000d059       __store_number             7d00e059 f   time:strftime.obj
 0001:0000d0a5       __store_num                7d00e0a5 f   time:strftime.obj
 0001:0000d108       __expandtime               7d00e108 f   time:strftime.obj
 0001:0000d4aa       __store_winword            7d00e4aa f   time:strftime.obj
 0001:0000db95       __tzset_lk                 7d00eb95 f   time:tzset.obj
 0001:0000de5c       _cvtdate                   7d00ee5c f   time:tzset.obj
 0001:0000e02d       __isindst_lk               7d00f02d f   time:tzset.obj
 0001:0000e273       __abstract_cw              7d00f273 f   tran:ieee87.obj
 0001:0000e307       __hw_cw                    7d00f307 f   tran:ieee87.obj
 0001:0000e395       __abstract_sw              7d00f395 f   tran:ieee87.obj
 0001:0000e3ce       ___abstract_cw_sse2        7d00f3ce f   tran:ieee87.obj
 0001:0000e46b       ___hw_cw_sse2              7d00f46b f   tran:ieee87.obj
 0001:0000e541       ___statusfp_sse2           7d00f541 f   tran:ieee87.obj
 0001:0000e578       ___control87_sse2          7d00f578 f   tran:ieee87.obj
 0001:0000e82c       _has_osfxsr_set            7d00f82c f   tran:cpu_disp.obj
 0001:0000e964       _xtow_s@20                 7d00f964 f   convert:xtow.obj
 0001:0000ea78       _xtow@16                   7d00fa78 f   convert:xtow.obj
 0001:0000eb02       @x64tow_s@24               7d00fb02 f   convert:xtow.obj
 0001:0000ec3c       @x64tow@20                 7d00fc3c f   convert:xtow.obj
 0001:0000ee9c       _xtoa_s@20                 7d00fe9c f   convert:xtoa.obj
 0001:0000efae       _xtoa@16                   7d00ffae f   convert:xtoa.obj
 0001:0000f038       @x64toa_s@24               7d010038 f   convert:xtoa.obj
 0001:0000f15a       @x64toa@20                 7d01015a f   convert:xtoa.obj
 0001:0000f88f       _strtoxl                   7d01088f f   convert:strtol.obj
 0001:0000faa2       _strtoxq                   7d010aa2 f   convert:strtoq.obj
 0001:00010f0a       _wcsncnt                   7d011f0a f   misc:w_cmp.obj
 0001:000117b2       _findenv                   7d0127b2 f   misc:setenv.obj
 0001:000117ff       _copy_environ              7d0127ff f   misc:setenv.obj
 0001:00012110       __fpcvt                    7d013110 f   convert:fcvt.obj
 0001:00012525       _wcstoxq                   7d013525 f   convert:wcstoq.obj
 0001:00012d9b       _wcstoxl                   7d013d9b f   convert:wcstol.obj
 0001:00014f95       _IsRootUNCName             7d015f95 f   dos:stat64.obj
 0001:00014f95       _IsRootUNCName             7d015f95 f   dos:stat64.obj
 0001:00014f95       _IsRootUNCName             7d015f95 f   dos:stat64.obj
 0001:00014f95       _IsRootUNCName             7d015f95 f   dos:stat64.obj
 0001:000162b4       _IsRootUNCName             7d0172b4 f   dos:wstat64.obj
 0001:000162b4       _IsRootUNCName             7d0172b4 f   dos:wstat64.obj
 0001:000162b4       _IsRootUNCName             7d0172b4 f   dos:wstat64.obj
 0001:000162b4       _IsRootUNCName             7d0172b4 f   dos:wstat64.obj
 0001:000170db       ?AdjustPointer@@YAPAXPAXABUPMD@@@Z 7d0180db f   eh:frame.obj
 0001:0001730f       ?IsInExceptionSpec@@YAEPAUEHExceptionRecord@@PBU_s_ESTypeList@@@Z 7d01830f f   eh:frame.obj
 0001:00017383       ?CallUnexpected@@YAXPBU_s_ESTypeList@@@Z 7d018383 f   eh:frame.obj
 0001:000173b0       __catch$?CallUnexpected@@YAXPBU_s_ESTypeList@@@Z$0 7d0183b0 f   eh:frame.obj
 0001:000173c8       ?CallCatchBlock@@YAPAXPAUEHExceptionRecord@@PAUEHRegistrationNode@@PAU_CONTEXT@@PBU_s_FuncInfo@@PAXHK@Z 7d0183c8 f   eh:frame.obj
 0001:00017865       ?CatchIt@@YAXPAUEHExceptionRecord@@PAUEHRegistrationNode@@PAU_CONTEXT@@PAXPBU_s_FuncInfo@@PBU_s_HandlerType@@PBU_s_CatchableType@@PBU_s_TryBlockMapEntry@@H1E@Z 7d018865 f   eh:frame.obj
 0001:000178d1       ?FindHandlerForForeignException@@YAXPAUEHExceptionRecord@@PAUEHRegistrationNode@@PAU_CONTEXT@@PAXPBU_s_FuncInfo@@HH1@Z 7d0188d1 f   eh:frame.obj
 0001:000179a4       ?FindHandler@@YAXPAUEHExceptionRecord@@PAUEHRegistrationNode@@PAU_CONTEXT@@PAXPBU_s_FuncInfo@@EH1@Z 7d0189a4 f   eh:frame.obj
 0001:00018005       ?CatchGuardHandler@@YA?AW4_EXCEPTION_DISPOSITION@@PAUEHExceptionRecord@@PAUCatchGuardRN@@PAX2@Z 7d019005 f   eh:trnsctrl.obj
 0001:00018107       ?TranslatorGuardHandler@@YA?AW4_EXCEPTION_DISPOSITION@@PAUEHExceptionRecord@@PAUTranslatorGuardRN@@PAX2@Z 7d019107 f   eh:trnsctrl.obj
 0001:000183b8       ?FindCompleteObject@@YAPAXPAPAX@Z 7d0193b8 f   eh:rtti.obj
 0001:000183ce       ?FindSITargetTypeInstance@@YAPBU_s_RTTIBaseClassDescriptor@@PAXPBU_s_RTTICompleteObjectLocator@@PAUTypeDescriptor@@H2@Z 7d0193ce f   eh:rtti.obj
 0001:00018423       ?PMDtoOffset@@YAHPAXABUPMD@@@Z 7d019423 f   eh:rtti.obj
 0001:0001849f       ?FindMITargetTypeInstance@@YAPBU_s_RTTIBaseClassDescriptor@@PAXPBU_s_RTTICompleteObjectLocator@@PAUTypeDescriptor@@H2@Z 7d01949f f   eh:rtti.obj
 0001:00018598       ?FindVITargetTypeInstance@@YAPBU_s_RTTIBaseClassDescriptor@@PAXPBU_s_RTTICompleteObjectLocator@@PAUTypeDescriptor@@H2@Z 7d019598 f   eh:rtti.obj
 0001:00018eb5       ?und_strncpy@@YAPADPADPBDI@Z 7d019eb5 f   eh:undname.obj
 0001:0001d5de       _comexecmd                 7d01e5de f   exec:execve.obj
 0001:0001d9cd       _comexecmd                 7d01e9cd f   exec:spawnve.obj
 0001:0001dd62       _wcomexecmd                7d01ed62 f   exec:wexecve.obj
 0001:0001e0da       _wcomexecmd                7d01f0da f   exec:wspawnve.obj
 0001:0001faee       __dup_lk                   7d020aee f   lowio:dup.obj
 0001:0001fc7f       __dup2_lk                  7d020c7f f   lowio:dup2.obj
 0001:0001fd67       _extend_ioinfo_arrays      7d020d67 f   lowio:dup2.obj
 0001:00021348       __locking_lk               7d022348 f   lowio:locking.obj
 0001:00021573       __tsopen_lk                7d022573 f   lowio:open.obj
 0001:0002201c       __tsopen_lk                7d02301c f   lowio:wopen.obj
 0001:0002241c       _x_ismbbtype               7d02341c f   mbstring:ismbbyte.obj
 0001:000241dc       $$$00001                   7d0251dc f   misc:exsup2.obj
 0001:0002428a       $$$00003                   7d02528a f   misc:exsup2.obj
 0001:0002432d       $$$00002                   7d02532d f   misc:setjmpex.obj
 0001:0002478c       $$$00002                   7d02578c f   misc:setjmp.obj
 0001:00024807       $$$00002                   7d025807 f   misc:setjmp3.obj
 0001:00025264       $$$00001                   7d026264 f   misc:longjmp.obj
 0001:000252dd       $$$00003                   7d0262dd f   misc:longjmp.obj
 0001:00025390       _swap                      7d026390 f   misc:qsort.obj
 0001:000253c0       _shortsort                 7d0263c0 f   misc:qsort.obj
 0001:0002591e       _write_char                7d02691e f   stdio:cprintf.obj
 0001:00025933       _write_multi_char          7d026933 f   stdio:cprintf.obj
 0001:00025953       _write_string              7d026953 f   stdio:cprintf.obj
 0001:000261c3       ___check_float_string      7d0271c3 f   stdio:cscanf.obj
 0001:000261c3       ___check_float_string      7d0271c3 f   stdio:cscanf.obj
 0001:00026214       __hextodec                 7d027214 f   stdio:cscanf.obj
 0001:00026214       __hextodec                 7d027214 f   stdio:cscanf.obj
 0001:0002622f       __un_inc                   7d02722f f   stdio:cscanf.obj
 0001:0002623c       _input                     7d02723c f   stdio:cscanf.obj
 0001:00026cd9       _write_char                7d027cd9 f   stdio:cwprintf.obj
 0001:00026cf0       _write_multi_char          7d027cf0 f   stdio:cwprintf.obj
 0001:00026d11       _write_string              7d027d11 f   stdio:cwprintf.obj
 0001:000275cd       __un_inc                   7d0285cd f   stdio:cwscanf.obj
 0001:000275dc       _input                     7d0285dc f   stdio:cwscanf.obj
 0001:0002862a       _idtab                     7d02962a f   stdio:popen.obj
 0001:0002862a       _idtab                     7d02962a f   stdio:popen.obj
 0001:00028ff6       __stripquote               7d029ff6 f   stdio:tempnam.obj
 0001:000299fe       __wstripquote              7d02a9fe f   stdio:wtempnam.obj
 0001:00029c11       _winit_namebuf             7d02ac11 f   stdio:wtmpfile.obj
 0001:00029c7d       _wgenfname                 7d02ac7d f   stdio:wtmpfile.obj
 0001:0002ab7d       _init_namebuf              7d02bb7d f   stdio:tmpfile.obj
 0001:0002abde       _genfname                  7d02bbde f   stdio:tmpfile.obj
 0001:0002b51f       __inc                      7d02c51f f   stdio:input.obj
 0001:0002c0f5       ___check_float_string      7d02d0f5 f   stdio:winput.obj
 0001:0002c0f5       ___check_float_string      7d02d0f5 f   stdio:winput.obj
 0001:0002c14d       __hextodec                 7d02d14d f   stdio:winput.obj
 0001:0002c14d       __hextodec                 7d02d14d f   stdio:winput.obj
 0001:0002c179       __un_inc                   7d02d179 f   stdio:winput.obj
 0001:0002c188       __whiteout                 7d02d188 f   stdio:winput.obj
 0001:0002f51e       __make__time32_t           7d03051e f   time:mktime.obj
 0001:0002f733       __make__time64_t           7d030733 f   time:mktime64.obj
 0001:0002fbfb       _store_dt                  7d030bfb f   time:wasctime.obj
 0001:00030239       _store_dt                  7d031239 f   time:asctime.obj
 0001:00031857       __shift                    7d032857 f   conv:cvt.obj
 0001:00031874       __cftoe2                   7d032874 f   conv:cvt.obj
 0001:00031d6a       __cftof2                   7d032d6a f   conv:cvt.obj
 0001:00032c7f       _$$$00002                  7d033c7f f   tran:atan.obj
 0001:00032e9b       _$$$00002                  7d033e9b f   tran:87ctran.obj
 0001:00032f04       _$$$00003                  7d033f04 f   tran:87fmod.obj
 0001:00032f6f       _$$$00002                  7d033f6f f   tran:log.obj
 0001:000330bf       _$$$00002                  7d0340bf f   tran:log10.obj
 0001:0003320f       _$$$00002                  7d03420f f   tran:pow.obj
 0001:0003441b       __hypothlp                 7d03541b f   tran:hypot.obj
 0001:00035637       _evaluate                  7d036637 f   tran:bessel.obj
 0001:00035990       _domain_err                7d036990 f   tran:bessel.obj
 0001:000364d3       _$$$00003                  7d0374d3 f   tran:87disp.obj
 0001:00036a90       _$$$00001                  7d037a90 f   tran:87triga.obj
 0001:00036dc0       _$$$00001                  7d037dc0 f   tran:87trigh.obj
 0001:00037180       _$$$00001                  7d038180 f   tran:87tran.obj
 0001:00039424       _ax0                       7d03a424 f   tran:filter_simd.obj
 0001:00039437       _ax8                       7d03a437 f   tran:filter_simd.obj
 0001:00039452       _ax32                      7d03a452 f   tran:filter_simd.obj
 0001:0003946c       _cx0                       7d03a46c f   tran:filter_simd.obj
 0001:0003947f       _cx8                       7d03a47f f   tran:filter_simd.obj
 0001:0003949a       _cx32                      7d03a49a f   tran:filter_simd.obj
 0001:000394b4       _dx0                       7d03a4b4 f   tran:filter_simd.obj
 0001:000394c7       _dx8                       7d03a4c7 f   tran:filter_simd.obj
 0001:000394e2       _dx32                      7d03a4e2 f   tran:filter_simd.obj
 0001:000394fc       _bx0                       7d03a4fc f   tran:filter_simd.obj
 0001:0003950f       _bx8                       7d03a50f f   tran:filter_simd.obj
 0001:0003952a       _bx32                      7d03a52a f   tran:filter_simd.obj
 0001:00039544       _sib0                      7d03a544 f   tran:filter_simd.obj
 0001:0003968b       _sib8                      7d03a68b f   tran:filter_simd.obj
 0001:000397ca       _sib32                     7d03a7ca f   tran:filter_simd.obj
 0001:00039903       _d32                       7d03a903 f   tran:filter_simd.obj
 0001:00039913       _bp8                       7d03a913 f   tran:filter_simd.obj
 0001:0003992e       _bp32                      7d03a92e f   tran:filter_simd.obj
 0001:00039948       _si0                       7d03a948 f   tran:filter_simd.obj
 0001:0003995b       _si8                       7d03a95b f   tran:filter_simd.obj
 0001:00039976       _si32                      7d03a976 f   tran:filter_simd.obj
 0001:00039990       _di0                       7d03a990 f   tran:filter_simd.obj
 0001:000399a3       _di8                       7d03a9a3 f   tran:filter_simd.obj
 0001:000399be       _di32                      7d03a9be f   tran:filter_simd.obj
 0001:000399d8       _reg                       7d03a9d8 f   tran:filter_simd.obj
 0001:0003aa57       _issnand                   7d03ba57 f   tran:xmmi2_fp_emul.obj
 0001:0003aa7f       _isnand                    7d03ba7f f   tran:xmmi2_fp_emul.obj
 0001:0003aaa6       _isdenormald               7d03baa6 f   tran:xmmi2_fp_emul.obj
 0001:0003aac8       _Fill_FPIEEE_RECORD        7d03bac8 f   tran:xmmi2_fp_emul.obj
 0001:0003aac8       _Fill_FPIEEE_RECORD        7d03bac8 f   tran:xmmi2_fp_emul.obj
 0001:0003c0f2       _issnanf                   7d03d0f2 f   tran:xmmi_fp_emul.obj
 0001:0003c113       _isnanf                    7d03d113 f   tran:xmmi_fp_emul.obj
 0001:0003c133       _isdenormalf               7d03d133 f   tran:xmmi_fp_emul.obj
 0001:0003c133       _isdenormalf               7d03d133 f   tran:xmmi_fp_emul.obj
 0001:0003d152       __ehhandler$?CallUnexpected@@YAXPBU_s_ESTypeList@@@Z 7d03e152 f   eh:frame.obj
