 msvcp80

 Timestamp is 3f60fe83 (Thu Sep 11 16:00:19 2003)

 Preferred load address is 7c080000

 Start         Length     Name                   Class
 0001:00000000 0002bf82H .text                   CODE
 0001:0002bf82 00001ee2H .text$x                 CODE
 0001:0002de64 000004b5H .text$yc                CODE
 0001:0002e319 000001a5H .text$yd                CODE
 0002:00000000 000001c0H .idata$5                DATA
 0002:000001c0 000011c8H .rdata                  DATA
 0002:00001388 00000024H .rdata$debug            DATA
 0002:000013ac 00001f8cH .rdata$r                DATA
 0002:00003340 0000040cH .rdata$sxdata           DATA
 0002:0000374c 00000004H .rtc$IAA                DATA
 0002:00003750 00000004H .rtc$IZZ                DATA
 0002:00003754 00000004H .rtc$TAA                DATA
 0002:00003758 00000004H .rtc$TZZ                DATA
 0002:00003760 00004e2cH .xdata$x                DATA
 0002:0000858c 00000028H .idata$2                DATA
 0002:000085b4 00000014H .idata$3                DATA
 0002:000085c8 000001c0H .idata$4                DATA
 0002:00008788 00000714H .idata$6                DATA
 0002:00008ea0 00039b24H .edata                  DATA
 0003:00000000 00000004H .CRT$XCA                DATA
 0003:00000004 00000004H .CRT$XCAA               DATA
 0003:00000008 000000ccH .CRT$XCC                DATA
 0003:000000d4 00000004H .CRT$XCU                DATA
 0003:000000d8 00000004H .CRT$XCZ                DATA
 0003:000000dc 00000004H .CRT$XIA                DATA
 0003:000000e0 00000004H .CRT$XIZ                DATA
 0003:000000f0 00001780H .data                   DATA
 0003:00001870 00000a30H .bss                    DATA
 0004:00000000 00000058H .rsrc$01                DATA
 0004:00000060 00000368H .rsrc$02                DATA

  Address         Publics by Value              Rva+Base     Lib:Object

 0000:00000000       __except_list              00000000     <absolute>
 0000:00000103       ___safe_se_handler_count   00000103     <absolute>
 0000:00009876       __ldused                   00009876     <absolute>
 0000:00009876       __fltused                  00009876     <absolute>
 0001:00000000       _wmemchr                   7c081000 f i cerr.obj
 0001:00000020       _wmemcmp                   7c081020 f i cerr.obj
 0001:00000051       _wmemcpy                   7c081051 f i cerr.obj
 0001:00000069       _wmemmove                  7c081069 f i cerr.obj
 0001:00000082       _wmemset                   7c081082 f i cerr.obj
 0001:000000ad       ?assign@?$char_traits@_W@std@@SAXAA_WAB_W@Z 7c0810ad f i cerr.obj
 0001:000000ad       ?assign@?$char_traits@G@std@@SAXAAGABG@Z 7c0810ad f i cerr.obj
 0001:000000bc       ?compare@?$char_traits@G@std@@SAHPBG0I@Z 7c0810bc f i cerr.obj
 0001:000000bc       ?compare@?$char_traits@_W@std@@SAHPB_W0I@Z 7c0810bc f i cerr.obj
 0001:000000c1       ?copy@?$char_traits@_W@std@@SAPA_WPA_WPB_WI@Z 7c0810c1 f i cerr.obj
 0001:000000c1       ?copy@?$char_traits@G@std@@SAPAGPAGPBGI@Z 7c0810c1 f i cerr.obj
 0001:000000c6       ?assign@?$char_traits@_W@std@@SAPA_WPA_WI_W@Z 7c0810c6 f i cerr.obj
 0001:000000c6       ?assign@?$char_traits@G@std@@SAPAGPAGIG@Z 7c0810c6 f i cerr.obj
 0001:000000db       ?to_char_type@?$char_traits@G@std@@SAGABG@Z 7c0810db f i cerr.obj
 0001:000000db       ?to_char_type@?$char_traits@_W@std@@SA_WABG@Z 7c0810db f i cerr.obj
 0001:000000db       ?to_int_type@?$char_traits@G@std@@SAGABG@Z 7c0810db f i cerr.obj
 0001:000000db       ?to_int_type@?$char_traits@_W@std@@SAGAB_W@Z 7c0810db f i cerr.obj
 0001:000000e3       ?eq_int_type@?$char_traits@_W@std@@SA_NABG0@Z 7c0810e3 f i cerr.obj
 0001:000000e3       ?eq@?$char_traits@_W@std@@SA_NAB_W0@Z 7c0810e3 f i cerr.obj
 0001:000000e3       ?eq@?$char_traits@G@std@@SA_NABG0@Z 7c0810e3 f i cerr.obj
 0001:000000e3       ?eq_int_type@?$char_traits@G@std@@SA_NABG0@Z 7c0810e3 f i cerr.obj
 0001:000000f8       ?not_eof@?$char_traits@G@std@@SAGABG@Z 7c0810f8 f i cerr.obj
 0001:000000f8       ?not_eof@?$char_traits@_W@std@@SAGABG@Z 7c0810f8 f i cerr.obj
 0001:0000010c       ?lt@?$char_traits@G@std@@SA_NABG0@Z 7c08110c f i cerr.obj
 0001:0000010c       ?lt@?$char_traits@_W@std@@SA_NAB_W0@Z 7c08110c f i cerr.obj
 0001:0000011f       ?length@?$char_traits@_W@std@@SAIPB_W@Z 7c08111f f i cerr.obj
 0001:0000011f       ?length@?$char_traits@G@std@@SAIPBG@Z 7c08111f f i cerr.obj
 0001:00000125       ?find@?$char_traits@_W@std@@SAPB_WPB_WIAB_W@Z 7c081125 f i cerr.obj
 0001:00000125       ?find@?$char_traits@G@std@@SAPBGPBGIABG@Z 7c081125 f i cerr.obj
 0001:0000013e       ?move@?$char_traits@G@std@@SAPAGPAGPBGI@Z 7c08113e f i cerr.obj
 0001:0000013e       ?move@?$char_traits@_W@std@@SAPA_WPA_WPB_WI@Z 7c08113e f i cerr.obj
 0001:00000143       ?assign@?$char_traits@D@std@@SAXAADABD@Z 7c081143 f i cerr.obj
 0001:00000150       ?eq@?$char_traits@D@std@@SA_NABD0@Z 7c081150 f i cerr.obj
 0001:00000162       ?lt@?$char_traits@D@std@@SA_NABD0@Z 7c081162 f i cerr.obj
 0001:00000176       ?compare@?$char_traits@D@std@@SAHPBD0I@Z 7c081176 f i cerr.obj
 0001:0000017b       ?length@?$char_traits@D@std@@SAIPBD@Z 7c08117b f i cerr.obj
 0001:00000180       ?copy@?$char_traits@D@std@@SAPADPADPBDI@Z 7c081180 f i cerr.obj
 0001:00000185       ?find@?$char_traits@D@std@@SAPBDPBDIABD@Z 7c081185 f i cerr.obj
 0001:0000019f       ?move@?$char_traits@D@std@@SAPADPADPBDI@Z 7c08119f f i cerr.obj
 0001:000001a5       ?assign@?$char_traits@D@std@@SAPADPADID@Z 7c0811a5 f i cerr.obj
 0001:000001bc       ?to_char_type@?$char_traits@D@std@@SADABH@Z 7c0811bc f i cerr.obj
 0001:000001c3       ?to_int_type@?$char_traits@D@std@@SAHABD@Z 7c0811c3 f i cerr.obj
 0001:000001cb       ?eq_int_type@?$char_traits@D@std@@SA_NABH0@Z 7c0811cb f i cerr.obj
 0001:000001dd       ?not_eof@?$char_traits@D@std@@SAHABH@Z 7c0811dd f i cerr.obj
 0001:000001ed       ??0?$allocator@X@std@@QAE@XZ 7c0811ed f i cerr.obj
 0001:000001f0       ??4?$_String_val@_WV?$allocator@_W@std@@@std@@QAEAAV01@ABV01@@Z 7c0811f0 f i instances.obj
 0001:000001f0       ??4?$_String_val@GV?$allocator@G@std@@@std@@QAEAAV01@ABV01@@Z 7c0811f0 f i instances.obj
 0001:000001f0       ??4?$_String_val@DV?$allocator@D@std@@@std@@QAEAAV01@ABV01@@Z 7c0811f0 f i cerr.obj
 0001:000001fd       ??0_Timevec@std@@QAE@PAX@Z 7c0811fd f i cerr.obj
 0001:000001fd       ??0id@locale@std@@QAE@I@Z  7c0811fd f i cerr.obj
 0001:000001fd       ??0locale@std@@AAE@PAV_Locimp@01@@Z 7c0811fd f i cerr.obj
 0001:00000208       ??1_Timevec@std@@QAE@XZ    7c081208 f i cerr.obj
 0001:00000212       ?_Getptr@_Timevec@std@@QBEPAXXZ 7c081212 f i cerr.obj
 0001:00000215       ?_Getcoll@_Locinfo@std@@QBE?AU_Collvec@@XZ 7c081215 f i cerr.obj
 0001:00000228       ?_Getctype@_Locinfo@std@@QBE?AU_Ctypevec@@XZ 7c081228 f i cerr.obj
 0001:0000024b       ?_Getcvt@_Locinfo@std@@QBE?AU_Cvtvec@@XZ 7c08124b f i cerr.obj
 0001:0000025e       ?_Getlconv@_Locinfo@std@@QBEPBUlconv@@XZ 7c08125e f i cerr.obj
 0001:00000264       ?_Gettnames@_Locinfo@std@@QBE?AV_Timevec@2@XZ 7c081264 f i cerr.obj
 0001:0000027c       ?_Getfalse@_Locinfo@std@@QBEPBDXZ 7c08127c f i cerr.obj
 0001:00000282       ?_Gettrue@_Locinfo@std@@QBEPBDXZ 7c081282 f i cerr.obj
 0001:00000288       ?_Getdateorder@_Locinfo@std@@QBEHXZ 7c081288 f i cerr.obj
 0001:0000028d       ??_F_Locinfo@std@@QAEXXZ   7c08128d f i cerr.obj
 0001:00000298       ??Bid@locale@std@@QAEIXZ   7c081298 f i cerr.obj
 0001:000002cd       ?_Incref@facet@locale@std@@QAEXXZ 7c0812cd f i cerr.obj
 0001:000002f5       ?_Decref@facet@locale@std@@QAEPAV123@XZ 7c0812f5 f i cerr.obj
 0001:00000330       ??0facet@locale@std@@IAE@I@Z 7c081330 f i cerr.obj
 0001:00000342       ??0locale@std@@QAE@ABV01@@Z 7c081342 f i cerr.obj
 0001:00000358       ??1locale@std@@QAE@XZ      7c081358 f i cerr.obj
 0001:00000370       ??4locale@std@@QAEAAV01@ABV01@@Z 7c081370 f i cerr.obj
 0001:0000039f       ??9locale@std@@QBE_NABV01@@Z 7c08139f f i cerr.obj
 0001:000003b0       ??_Fid@locale@std@@QAEXXZ  7c0813b0 f i cerr.obj
 0001:000003b0       ??_F_Timevec@std@@QAEXXZ   7c0813b0 f i cerr.obj
 0001:000003b4       ??_Ffacet@locale@std@@QAEXXZ 7c0813b4 f i cerr.obj
 0001:000003bf       ??_F_Locimp@locale@std@@QAEXXZ 7c0813bf f i cerr.obj
 0001:000003c7       ??0codecvt_base@std@@QAE@I@Z 7c0813c7 f i cerr.obj
 0001:000003d9       ??1time_base@std@@UAE@XZ   7c0813d9 f i instances.obj
 0001:000003d9       ??1?$num_put@DV?$ostreambuf_iterator@DU?$char_traits@D@std@@@std@@@std@@MAE@XZ 7c0813d9 f i instances.obj
 0001:000003d9       ??1?$messages@D@std@@UAE@XZ 7c0813d9 f i instances.obj
 0001:000003d9       ??1messages_base@std@@UAE@XZ 7c0813d9 f i instances.obj
 0001:000003d9       ??1?$num_put@GV?$ostreambuf_iterator@GU?$char_traits@G@std@@@std@@@std@@MAE@XZ 7c0813d9 f i instances.obj
 0001:000003d9       ??1?$num_get@_WV?$istreambuf_iterator@_WU?$char_traits@_W@std@@@std@@@std@@MAE@XZ 7c0813d9 f i instances.obj
 0001:000003d9       ??1?$num_get@DV?$istreambuf_iterator@DU?$char_traits@D@std@@@std@@@std@@MAE@XZ 7c0813d9 f i instances.obj
 0001:000003d9       ??1?$num_put@_WV?$ostreambuf_iterator@_WU?$char_traits@_W@std@@@std@@@std@@MAE@XZ 7c0813d9 f i instances.obj
 0001:000003d9       ??1?$messages@_W@std@@UAE@XZ 7c0813d9 f i instances.obj
 0001:000003d9       ??1money_base@std@@UAE@XZ  7c0813d9 f i instances.obj
 0001:000003d9       ??1?$money_put@GV?$ostreambuf_iterator@GU?$char_traits@G@std@@@std@@@std@@MAE@XZ 7c0813d9 f i instances.obj
 0001:000003d9       ??1facet@locale@std@@UAE@XZ 7c0813d9 f i cerr.obj
 0001:000003d9       ??1?$collate@D@std@@MAE@XZ 7c0813d9 f i instances.obj
 0001:000003d9       ??1?$money_get@GV?$istreambuf_iterator@GU?$char_traits@G@std@@@std@@@std@@MAE@XZ 7c0813d9 f i instances.obj
 0001:000003d9       ??1?$num_get@GV?$istreambuf_iterator@GU?$char_traits@G@std@@@std@@@std@@MAE@XZ 7c0813d9 f i instances.obj
 0001:000003d9       ??1codecvt_base@std@@UAE@XZ 7c0813d9 f i cerr.obj
 0001:000003d9       ??1?$codecvt@_WDH@std@@MAE@XZ 7c0813d9 f i cerr.obj
 0001:000003d9       ??1?$money_get@DV?$istreambuf_iterator@DU?$char_traits@D@std@@@std@@@std@@MAE@XZ 7c0813d9 f i instances.obj
 0001:000003d9       ??1?$money_put@DV?$ostreambuf_iterator@DU?$char_traits@D@std@@@std@@@std@@MAE@XZ 7c0813d9 f i instances.obj
 0001:000003d9       ??1?$messages@G@std@@UAE@XZ 7c0813d9 f i instances.obj
 0001:000003d9       ??1ctype_base@std@@UAE@XZ  7c0813d9 f i cerr.obj
 0001:000003d9       ??1?$money_get@_WV?$istreambuf_iterator@_WU?$char_traits@_W@std@@@std@@@std@@MAE@XZ 7c0813d9 f i instances.obj
 0001:000003d9       ??1?$collate@_W@std@@MAE@XZ 7c0813d9 f i instances.obj
 0001:000003d9       ??1?$codecvt@DDH@std@@MAE@XZ 7c0813d9 f i cerr.obj
 0001:000003d9       ??1?$money_put@_WV?$ostreambuf_iterator@_WU?$char_traits@_W@std@@@std@@@std@@MAE@XZ 7c0813d9 f i instances.obj
 0001:000003d9       ??1?$collate@G@std@@MAE@XZ 7c0813d9 f i instances.obj
 0001:000003d9       ??1?$codecvt@GDH@std@@MAE@XZ 7c0813d9 f i cerr.obj
 0001:000003e0       ?do_encoding@codecvt_base@std@@MBEHXZ 7c0813e0 f i cerr.obj
 0001:000003e0       ?do_max_length@codecvt_base@std@@MBEHXZ 7c0813e0 f i cerr.obj
 0001:000003e4       ??_Fcodecvt_base@std@@QAEXXZ 7c0813e4 f i cerr.obj
 0001:000003ef       ?out@?$codecvt@DDH@std@@QBEHAAHPBD1AAPBDPAD3AAPAD@Z 7c0813ef f i cerr.obj
 0001:000003ef       ?out@?$codecvt@GDH@std@@QBEHAAHPBG1AAPBGPAD3AAPAD@Z 7c0813ef f i cerr.obj
 0001:000003ef       ?out@?$codecvt@_WDH@std@@QBEHAAHPB_W1AAPB_WPAD3AAPAD@Z 7c0813ef f i cerr.obj
 0001:000003f8       ?do_in@?$codecvt@_WDH@std@@MBEHAAHPBD1AAPBDPA_W3AAPA_W@Z 7c0813f8 f i cerr.obj
 0001:000003f8       ?do_in@?$codecvt@GDH@std@@MBEHAAHPBD1AAPBDPAG3AAPAG@Z 7c0813f8 f i cerr.obj
 0001:00000485       ?do_out@?$codecvt@_WDH@std@@MBEHAAHPB_W1AAPB_WPAD3AAPAD@Z 7c081485 f i cerr.obj
 0001:00000485       ?do_out@?$codecvt@GDH@std@@MBEHAAHPBG1AAPBGPAD3AAPAD@Z 7c081485 f i cerr.obj
 0001:00000575       ?do_max_length@?$codecvt@GDH@std@@MBEHXZ 7c081575 f i cerr.obj
 0001:00000575       ?do_max_length@?$codecvt@_WDH@std@@MBEHXZ 7c081575 f i cerr.obj
 0001:00000579       ?do_unshift@?$codecvt@_WDH@std@@MBEHAAHPAD1AAPAD@Z 7c081579 f i cerr.obj
 0001:00000579       ?do_unshift@?$codecvt@GDH@std@@MBEHAAHPAD1AAPAD@Z 7c081579 f i cerr.obj
 0001:00000600       ?do_length@?$codecvt@_WDH@std@@MBEHABHPBD1I@Z 7c081600 f i cerr.obj
 0001:00000600       ?do_length@?$codecvt@GDH@std@@MBEHABHPBD1I@Z 7c081600 f i cerr.obj
 0001:00000668       ??_E?$codecvt@_WDH@std@@MAEPAXI@Z 7c081668 f i cerr.obj
 0001:00000668       ??_E?$num_get@_WV?$istreambuf_iterator@_WU?$char_traits@_W@std@@@std@@@std@@MAEPAXI@Z 7c081668 f i instances.obj
 0001:00000668       ??_E?$money_get@_WV?$istreambuf_iterator@_WU?$char_traits@_W@std@@@std@@@std@@MAEPAXI@Z 7c081668 f i instances.obj
 0001:00000668       ??_E?$collate@G@std@@MAEPAXI@Z 7c081668 f i instances.obj
 0001:00000668       ??_E?$collate@_W@std@@MAEPAXI@Z 7c081668 f i instances.obj
 0001:00000668       ??_E?$money_get@GV?$istreambuf_iterator@GU?$char_traits@G@std@@@std@@@std@@MAEPAXI@Z 7c081668 f i instances.obj
 0001:00000668       ??_E?$num_get@DV?$istreambuf_iterator@DU?$char_traits@D@std@@@std@@@std@@MAEPAXI@Z 7c081668 f i instances.obj
 0001:00000668       ??_E?$money_put@GV?$ostreambuf_iterator@GU?$char_traits@G@std@@@std@@@std@@MAEPAXI@Z 7c081668 f i instances.obj
 0001:00000668       ??_E?$collate@D@std@@MAEPAXI@Z 7c081668 f i instances.obj
 0001:00000668       ??_E?$codecvt@GDH@std@@MAEPAXI@Z 7c081668 f i cerr.obj
 0001:00000668       ??_E?$num_put@DV?$ostreambuf_iterator@DU?$char_traits@D@std@@@std@@@std@@MAEPAXI@Z 7c081668 f i instances.obj
 0001:00000668       ??_E?$num_get@GV?$istreambuf_iterator@GU?$char_traits@G@std@@@std@@@std@@MAEPAXI@Z 7c081668 f i instances.obj
 0001:00000668       ??_E?$money_put@_WV?$ostreambuf_iterator@_WU?$char_traits@_W@std@@@std@@@std@@MAEPAXI@Z 7c081668 f i instances.obj
 0001:00000668       ??_E?$num_put@_WV?$ostreambuf_iterator@_WU?$char_traits@_W@std@@@std@@@std@@MAEPAXI@Z 7c081668 f i instances.obj
 0001:00000668       ??_E?$money_get@DV?$istreambuf_iterator@DU?$char_traits@D@std@@@std@@@std@@MAEPAXI@Z 7c081668 f i instances.obj
 0001:00000668       ??_E?$num_put@GV?$ostreambuf_iterator@GU?$char_traits@G@std@@@std@@@std@@MAEPAXI@Z 7c081668 f i instances.obj
 0001:00000668       ??_E?$money_put@DV?$ostreambuf_iterator@DU?$char_traits@D@std@@@std@@@std@@MAEPAXI@Z 7c081668 f i instances.obj
 0001:000006b2       ??0ctype_base@std@@QAE@I@Z 7c0816b2 f i cerr.obj
 0001:000006c4       ??_Fctype_base@std@@QAEXXZ 7c0816c4 f i cerr.obj
 0001:000006cf       ?is@?$ctype@D@std@@QBE_NFD@Z 7c0816cf f i cerr.obj
 0001:000006ea       ?is@?$ctype@D@std@@QBEPBDPBD0PAF@Z 7c0816ea f i cerr.obj
 0001:00000715       ?scan_is@?$ctype@D@std@@QBEPBDFPBD0@Z 7c081715 f i cerr.obj
 0001:0000073c       ?scan_not@?$ctype@D@std@@QBEPBDFPBD0@Z 7c08173c f i cerr.obj
 0001:00000763       ?_Init@?$ctype@D@std@@IAEXABV_Locinfo@2@@Z 7c081763 f i cerr.obj
 0001:00000788       ?_Tidy@?$ctype@D@std@@IAEXXZ 7c081788 f i cerr.obj
 0001:000007a6       ?do_tolower@?$ctype@D@std@@MBEDD@Z 7c0817a6 f i cerr.obj
 0001:000007ba       ?do_tolower@?$ctype@D@std@@MBEPBDPADPBD@Z 7c0817ba f i cerr.obj
 0001:000007e5       ?do_toupper@?$ctype@D@std@@MBEDD@Z 7c0817e5 f i cerr.obj
 0001:000007f9       ?do_toupper@?$ctype@D@std@@MBEPBDPADPBD@Z 7c0817f9 f i cerr.obj
 0001:00000824       ?do_widen@?$ctype@D@std@@MBEDD@Z 7c081824 f i cerr.obj
 0001:0000082b       ?do_widen@?$ctype@D@std@@MBEPBDPBD0PAD@Z 7c08182b f i cerr.obj
 0001:0000084a       ?do_narrow@?$ctype@D@std@@MBEDDD@Z 7c08184a f i cerr.obj
 0001:00000851       ?do_narrow@?$ctype@D@std@@MBEPBDPBD0DPAD@Z 7c081851 f i cerr.obj
 0001:00000870       ?pubsetbuf@?$basic_streambuf@GU?$char_traits@G@std@@@std@@QAEPAV12@PAGH@Z 7c081870 f i instances.obj
 0001:00000870       ?widen@?$ctype@G@std@@QBEGD@Z 7c081870 f i cerr.obj
 0001:00000870       ?widen@?$ctype@_W@std@@QBE_WD@Z 7c081870 f i cerr.obj
 0001:00000870       ?pubsetbuf@?$basic_streambuf@DU?$char_traits@D@std@@@std@@QAEPAV12@PADH@Z 7c081870 f i instances.obj
 0001:00000870       ?pubsetbuf@?$basic_streambuf@_WU?$char_traits@_W@std@@@std@@QAEPAV12@PA_WH@Z 7c081870 f i instances.obj
 0001:00000875       ??1?$ctype@_W@std@@MAE@XZ  7c081875 f i cerr.obj
 0001:00000896       ?do_is@?$ctype@_W@std@@MBE_NF_W@Z 7c081896 f i cerr.obj
 0001:00000896       ?do_is@?$ctype@G@std@@MBE_NFG@Z 7c081896 f i cerr.obj
 0001:000008b4       ?do_scan_not@?$ctype@_W@std@@MBEPB_WFPB_W0@Z 7c0818b4 f i cerr.obj
 0001:000008b4       ?do_scan_not@?$ctype@G@std@@MBEPBGFPBG0@Z 7c0818b4 f i cerr.obj
 0001:000008e0       ?do_tolower@?$ctype@_W@std@@MBEPB_WPA_WPB_W@Z 7c0818e0 f i cerr.obj
 0001:000008e0       ?do_tolower@?$ctype@G@std@@MBEPBGPAGPBG@Z 7c0818e0 f i cerr.obj
 0001:0000090d       ?do_toupper@?$ctype@G@std@@MBEPBGPAGPBG@Z 7c08190d f i cerr.obj
 0001:0000090d       ?do_toupper@?$ctype@_W@std@@MBEPB_WPA_WPB_W@Z 7c08190d f i cerr.obj
 0001:0000093a       ?_Dowiden@?$ctype@_W@std@@IBE_WD@Z 7c08193a f i cerr.obj
 0001:0000093a       ?_Dowiden@?$ctype@G@std@@IBEGD@Z 7c08193a f i cerr.obj
 0001:0000096e       ?do_widen@?$ctype@_W@std@@MBE_WD@Z 7c08196e f i cerr.obj
 0001:0000096e       ?do_widen@?$ctype@G@std@@MBEGD@Z 7c08196e f i cerr.obj
 0001:00000973       ?do_widen@?$ctype@G@std@@MBEPBDPBD0PAG@Z 7c081973 f i cerr.obj
 0001:00000973       ?do_widen@?$ctype@_W@std@@MBEPBDPBD0PA_W@Z 7c081973 f i cerr.obj
 0001:000009a5       ?_Donarrow@?$ctype@_W@std@@IBED_WD@Z 7c0819a5 f i cerr.obj
 0001:000009a5       ?_Donarrow@?$ctype@G@std@@IBEDGD@Z 7c0819a5 f i cerr.obj
 0001:000009e5       ?do_narrow@?$ctype@_W@std@@MBED_WD@Z 7c0819e5 f i cerr.obj
 0001:000009e5       ?do_narrow@?$ctype@G@std@@MBEDGD@Z 7c0819e5 f i cerr.obj
 0001:000009ea       ?scan_not@?$ctype@_W@std@@QBEPB_WFPB_W0@Z 7c0819ea f i cerr.obj
 0001:000009ea       ?toupper@?$ctype@D@std@@QBEDD@Z 7c0819ea f i cerr.obj
 0001:000009ea       ?scan_not@?$ctype@G@std@@QBEPBGFPBG0@Z 7c0819ea f i cerr.obj
 0001:000009ef       ?tolower@?$ctype@_W@std@@QBE_W_W@Z 7c0819ef f i cerr.obj
 0001:000009ef       ?unshift@?$codecvt@DDH@std@@QBEHAAHPAD1AAPAD@Z 7c0819ef f i cerr.obj
 0001:000009ef       ?sgetn@?$basic_streambuf@_WU?$char_traits@_W@std@@@std@@QAEHPA_WH@Z 7c0819ef f i instances.obj
 0001:000009ef       ?unshift@?$codecvt@GDH@std@@QBEHAAHPAD1AAPAD@Z 7c0819ef f i cerr.obj
 0001:000009ef       ?unshift@?$codecvt@_WDH@std@@QBEHAAHPAD1AAPAD@Z 7c0819ef f i cerr.obj
 0001:000009ef       ?tolower@?$ctype@G@std@@QBEGG@Z 7c0819ef f i cerr.obj
 0001:000009ef       ?widen@?$ctype@D@std@@QBEDD@Z 7c0819ef f i cerr.obj
 0001:000009ef       ?sgetn@?$basic_streambuf@GU?$char_traits@G@std@@@std@@QAEHPAGH@Z 7c0819ef f i instances.obj
 0001:000009ef       ?sgetn@?$basic_streambuf@DU?$char_traits@D@std@@@std@@QAEHPADH@Z 7c0819ef f i instances.obj
 0001:000009f4       ?tolower@?$ctype@_W@std@@QBEPB_WPA_WPB_W@Z 7c0819f4 f i cerr.obj
 0001:000009f4       ?widen@?$ctype@D@std@@QBEPBDPBD0PAD@Z 7c0819f4 f i cerr.obj
 0001:000009f4       ?tolower@?$ctype@G@std@@QBEPBGPAGPBG@Z 7c0819f4 f i cerr.obj
 0001:000009f9       ?toupper@?$ctype@G@std@@QBEGG@Z 7c0819f9 f i cerr.obj
 0001:000009f9       ?narrow@?$ctype@D@std@@QBEDDD@Z 7c0819f9 f i cerr.obj
 0001:000009f9       ?toupper@?$ctype@_W@std@@QBE_W_W@Z 7c0819f9 f i cerr.obj
 0001:000009fe       ?widen@?$ctype@_W@std@@QBEPBDPBD0PA_W@Z 7c0819fe f i cerr.obj
 0001:000009fe       ?widen@?$ctype@G@std@@QBEPBDPBD0PAG@Z 7c0819fe f i cerr.obj
 0001:00000a03       ?narrow@?$ctype@G@std@@QBEDGD@Z 7c081a03 f i cerr.obj
 0001:00000a03       ?narrow@?$ctype@_W@std@@QBED_WD@Z 7c081a03 f i cerr.obj
 0001:00000a08       ?pubsync@?$basic_streambuf@GU?$char_traits@G@std@@@std@@QAEHXZ 7c081a08 f i cerr.obj
 0001:00000a08       ?narrow@?$ctype@G@std@@QBEPBGPBG0DPAD@Z 7c081a08 f i cerr.obj
 0001:00000a08       ?pubsync@?$basic_streambuf@_WU?$char_traits@_W@std@@@std@@QAEHXZ 7c081a08 f i cerr.obj
 0001:00000a08       ?narrow@?$ctype@_W@std@@QBEPB_WPB_W0DPAD@Z 7c081a08 f i cerr.obj
 0001:00000a08       ?pubsync@?$basic_streambuf@DU?$char_traits@D@std@@@std@@QAEHXZ 7c081a08 f i cerr.obj
 0001:00000a0d       ??1?$ctype@G@std@@MAE@XZ   7c081a0d f i cerr.obj
 0001:00000a2e       ?_Init@?$ctype@_W@std@@IAEXABV_Locinfo@2@@Z 7c081a2e f i cerr.obj
 0001:00000a2e       ?_Init@?$ctype@G@std@@IAEXABV_Locinfo@2@@Z 7c081a2e f i cerr.obj
 0001:00000a60       ?do_is@?$ctype@_W@std@@MBEPB_WPB_W0PAF@Z 7c081a60 f i cerr.obj
 0001:00000a60       ?do_is@?$ctype@G@std@@MBEPBGPBG0PAF@Z 7c081a60 f i cerr.obj
 0001:00000a7b       ?do_scan_is@?$ctype@_W@std@@MBEPB_WFPB_W0@Z 7c081a7b f i cerr.obj
 0001:00000a7b       ?do_scan_is@?$ctype@G@std@@MBEPBGFPBG0@Z 7c081a7b f i cerr.obj
 0001:00000aa7       ?do_tolower@?$ctype@G@std@@MBEGG@Z 7c081aa7 f i cerr.obj
 0001:00000aa7       ?do_tolower@?$ctype@_W@std@@MBE_W_W@Z 7c081aa7 f i cerr.obj
 0001:00000ab9       ?do_toupper@?$ctype@G@std@@MBEGG@Z 7c081ab9 f i cerr.obj
 0001:00000ab9       ?do_toupper@?$ctype@_W@std@@MBE_W_W@Z 7c081ab9 f i cerr.obj
 0001:00000acb       ?do_narrow@?$ctype@G@std@@MBEPBGPBG0DPAD@Z 7c081acb f i cerr.obj
 0001:00000acb       ?do_narrow@?$ctype@_W@std@@MBEPB_WPB_W0DPAD@Z 7c081acb f i cerr.obj
 0001:00000aff       ??_E?$ctype@_W@std@@MAEPAXI@Z 7c081aff f i cerr.obj
 0001:00000b48       ??_E?$ctype@G@std@@MAEPAXI@Z 7c081b48 f i cerr.obj
 0001:00000b91       ??4ios_base@std@@QAEAAV01@ABV01@@Z 7c081b91 f i cerr.obj
 0001:00000bb0       ?clear@ios_base@std@@QAEXI@Z 7c081bb0 f i cerr.obj
 0001:00000bb0       ?clear@ios_base@std@@QAEXH@Z 7c081bb0 f i cerr.obj
 0001:00000bbe       ?rdstate@ios_base@std@@QBEHXZ 7c081bbe f i cerr.obj
 0001:00000bc2       ?setstate@ios_base@std@@QAEXH_N@Z 7c081bc2 f i cerr.obj
 0001:00000bdd       ?setstate@ios_base@std@@QAEXH@Z 7c081bdd f i cerr.obj
 0001:00000bf6       ?setstate@ios_base@std@@QAEXI@Z 7c081bf6 f i cerr.obj
 0001:00000bfb       ?good@ios_base@std@@QBE_NXZ 7c081bfb f i cerr.obj
 0001:00000c04       ?eof@ios_base@std@@QBE_NXZ 7c081c04 f i cerr.obj
 0001:00000c0b       ?fail@ios_base@std@@QBE_NXZ 7c081c0b f i cerr.obj
 0001:00000c0b       ??7ios_base@std@@QBE_NXZ   7c081c0b f i cerr.obj
 0001:00000c17       ?bad@ios_base@std@@QBE_NXZ 7c081c17 f i cerr.obj
 0001:00000c21       ?exceptions@ios_base@std@@QBEHXZ 7c081c21 f i cerr.obj
 0001:00000c25       ?exceptions@ios_base@std@@QAEXH@Z 7c081c25 f i cerr.obj
 0001:00000c3c       ?exceptions@ios_base@std@@QAEXI@Z 7c081c3c f i cerr.obj
 0001:00000c41       ?flags@ios_base@std@@QAEHH@Z 7c081c41 f i cerr.obj
 0001:00000c54       ?setf@ios_base@std@@QAEHH@Z 7c081c54 f i cerr.obj
 0001:00000c69       ?setf@ios_base@std@@QAEHHH@Z 7c081c69 f i cerr.obj
 0001:00000c8c       ?unsetf@ios_base@std@@QAEXH@Z 7c081c8c f i cerr.obj
 0001:00000c98       ?precision@ios_base@std@@QAEHH@Z 7c081c98 f i cerr.obj
 0001:00000ca5       ?width@ios_base@std@@QAEHH@Z 7c081ca5 f i cerr.obj
 0001:00000cb2       ?getloc@ios_base@std@@QBE?AVlocale@2@XZ 7c081cb2 f i cerr.obj
 0001:00000ccc       ?xalloc@ios_base@std@@SAHXZ 7c081ccc f i cerr.obj
 0001:00000cf4       ?iword@ios_base@std@@QAEAAJH@Z 7c081cf4 f i cerr.obj
 0001:00000d03       ?pword@ios_base@std@@QAEAAPAXH@Z 7c081d03 f i cerr.obj
 0001:00000d12       ?sync_with_stdio@ios_base@std@@SA_N_N@Z 7c081d12 f i cerr.obj
 0001:00000d3c       ??0ios_base@std@@IAE@XZ    7c081d3c f i cerr.obj
 0001:00000d45       ??4?$_Ctraits@M@std@@QAEAAV01@ABV01@@Z 7c081d45 f i instances.obj
 0001:00000d45       ??4?$char_traits@D@std@@QAEAAU01@ABU01@@Z 7c081d45 f i cerr.obj
 0001:00000d45       ??4?$_Ctraits@O@std@@QAEAAV01@ABV01@@Z 7c081d45 f i instances.obj
 0001:00000d45       ??4?$_Iosb@H@std@@QAEAAV01@ABV01@@Z 7c081d45 f i cerr.obj
 0001:00000d45       ??4?$numeric_limits@M@std@@QAEAAV01@ABV01@@Z 7c081d45 f i instances.obj
 0001:00000d45       ??0?$_String_val@_WV?$allocator@_W@std@@@std@@IAE@V?$allocator@_W@1@@Z 7c081d45 f i instances.obj
 0001:00000d45       ??4_Num_int_base@std@@QAEAAU01@ABU01@@Z 7c081d45 f i instances.obj
 0001:00000d45       ??0locale@std@@QAE@W4_Uninitialized@1@@Z 7c081d45 f i cerr.obj
 0001:00000d45       ??4?$numeric_limits@_J@std@@QAEAAV01@ABV01@@Z 7c081d45 f i instances.obj
 0001:00000d45       ??0?$_String_val@_WV?$allocator@_W@std@@@std@@QAE@ABV01@@Z 7c081d45 f i instances.obj
 0001:00000d45       ??4?$_Ctraits@N@std@@QAEAAV01@ABV01@@Z 7c081d45 f i instances.obj
 0001:00000d45       ??4_Num_base@std@@QAEAAU01@ABU01@@Z 7c081d45 f i instances.obj
 0001:00000d45       ??4_Num_float_base@std@@QAEAAU01@ABU01@@Z 7c081d45 f i instances.obj
 0001:00000d45       ??0?$_String_val@DV?$allocator@D@std@@@std@@QAE@ABV01@@Z 7c081d45 f i cerr.obj
 0001:00000d45       ??4?$numeric_limits@F@std@@QAEAAV01@ABV01@@Z 7c081d45 f i instances.obj
 0001:00000d45       ??4?$numeric_limits@N@std@@QAEAAV01@ABV01@@Z 7c081d45 f i instances.obj
 0001:00000d45       ??4?$char_traits@_W@std@@QAEAAU01@ABU01@@Z 7c081d45 f i cerr.obj
 0001:00000d45       ??0?$_String_val@DV?$allocator@D@std@@@std@@IAE@V?$allocator@D@1@@Z 7c081d45 f i cerr.obj
 0001:00000d45       ??4?$numeric_limits@I@std@@QAEAAV01@ABV01@@Z 7c081d45 f i instances.obj
 0001:00000d45       ??4?$numeric_limits@C@std@@QAEAAV01@ABV01@@Z 7c081d45 f i instances.obj
 0001:00000d45       ??4?$numeric_limits@J@std@@QAEAAV01@ABV01@@Z 7c081d45 f i instances.obj
 0001:00000d45       ??4?$numeric_limits@_K@std@@QAEAAV01@ABV01@@Z 7c081d45 f i instances.obj
 0001:00000d45       ??0?$_String_val@GV?$allocator@G@std@@@std@@QAE@ABV01@@Z 7c081d45 f i instances.obj
 0001:00000d45       ??4?$numeric_limits@_N@std@@QAEAAV01@ABV01@@Z 7c081d45 f i instances.obj
 0001:00000d45       ??4?$_Locbase@H@std@@QAEAAV01@ABV01@@Z 7c081d45 f i cerr.obj
 0001:00000d45       ??4?$numeric_limits@K@std@@QAEAAV01@ABV01@@Z 7c081d45 f i instances.obj
 0001:00000d45       ??4?$numeric_limits@G@std@@QAEAAV01@ABV01@@Z 7c081d45 f i instances.obj
 0001:00000d45       ??4_UShinit@std@@QAEAAV01@ABV01@@Z 7c081d45 f i ushcerr.obj
 0001:00000d45       ??4?$numeric_limits@D@std@@QAEAAV01@ABV01@@Z 7c081d45 f i instances.obj
 0001:00000d45       ??4_Winit@std@@QAEAAV01@ABV01@@Z 7c081d45 f i cerr.obj
 0001:00000d45       ??4?$numeric_limits@_W@std@@QAEAAV01@ABV01@@Z 7c081d45 f i instances.obj
 0001:00000d45       ??4?$numeric_limits@H@std@@QAEAAV01@ABV01@@Z 7c081d45 f i instances.obj
 0001:00000d45       ??0?$_String_val@GV?$allocator@G@std@@@std@@IAE@V?$allocator@G@1@@Z 7c081d45 f i instances.obj
 0001:00000d45       ??4Init@ios_base@std@@QAEAAV012@ABV012@@Z 7c081d45 f i cerr.obj
 0001:00000d45       ??0?$allocator@X@std@@QAE@ABV01@@Z 7c081d45 f i cerr.obj
 0001:00000d45       ??4_Init_locks@std@@QAEAAV01@ABV01@@Z 7c081d45 f i cerr.obj
 0001:00000d45       ??4?$numeric_limits@E@std@@QAEAAV01@ABV01@@Z 7c081d45 f i instances.obj
 0001:00000d45       ??4_String_base@std@@QAEAAV01@ABV01@@Z 7c081d45 f i cerr.obj
 0001:00000d45       ??4?$allocator@X@std@@QAEAAV01@ABV01@@Z 7c081d45 f i cerr.obj
 0001:00000d45       ??4?$numeric_limits@O@std@@QAEAAV01@ABV01@@Z 7c081d45 f i instances.obj
 0001:00000d45       ??4?$char_traits@G@std@@QAEAAU01@ABU01@@Z 7c081d45 f i cerr.obj
 0001:00000d4a       ??0ios_base@std@@QAE@ABV01@@Z 7c081d4a f i cerr.obj
 0001:00000d8f       ??_Eios_base@std@@UAEPAXI@Z 7c081d8f f i cerr.obj
 0001:00000dd8       ?c_str@?$basic_string@DU?$char_traits@D@std@@V?$allocator@D@2@@std@@QBEPBDXZ 7c081dd8 f i cerr.obj
 0001:00000dd8       ?_Myptr@?$basic_string@DU?$char_traits@D@std@@V?$allocator@D@2@@std@@QAEPADXZ 7c081dd8 f i cerr.obj
 0001:00000dd8       ?_Myptr@?$basic_string@DU?$char_traits@D@std@@V?$allocator@D@2@@std@@QBEPBDXZ 7c081dd8 f i cerr.obj
 0001:00000dd8       ?data@?$basic_string@DU?$char_traits@D@std@@V?$allocator@D@2@@std@@QBEPBDXZ 7c081dd8 f i cerr.obj
 0001:00000de6       ??1?$basic_ostream@DU?$char_traits@D@std@@@std@@UAE@XZ 7c081de6 f i cerr.obj
 0001:00000df5       ??1?$basic_ios@DU?$char_traits@D@std@@@std@@UAE@XZ 7c081df5 f i cerr.obj
 0001:00000e00       ?rdbuf@?$basic_ios@GU?$char_traits@G@std@@@std@@QBEPAV?$basic_streambuf@GU?$char_traits@G@std@@@2@XZ 7c081e00 f i cerr.obj
 0001:00000e00       ?rdbuf@?$basic_ios@_WU?$char_traits@_W@std@@@std@@QBEPAV?$basic_streambuf@_WU?$char_traits@_W@std@@@2@XZ 7c081e00 f i cerr.obj
 0001:00000e00       ?rdbuf@?$basic_ios@DU?$char_traits@D@std@@@std@@QBEPAV?$basic_streambuf@DU?$char_traits@D@std@@@2@XZ 7c081e00 f i cerr.obj
 0001:00000e04       ?clear@?$basic_ios@_WU?$char_traits@_W@std@@@std@@QAEXH_N@Z 7c081e04 f i cerr.obj
 0001:00000e04       ?clear@?$basic_ios@DU?$char_traits@D@std@@@std@@QAEXH_N@Z 7c081e04 f i cerr.obj
 0001:00000e04       ?clear@?$basic_ios@GU?$char_traits@G@std@@@std@@QAEXH_N@Z 7c081e04 f i cerr.obj
 0001:00000e1e       ??0?$basic_ios@DU?$char_traits@D@std@@@std@@IAE@XZ 7c081e1e f i cerr.obj
 0001:00000e27       ?gptr@?$basic_streambuf@DU?$char_traits@D@std@@@std@@IBEPADXZ 7c081e27 f i cerr.obj
 0001:00000e27       ?gptr@?$basic_streambuf@_WU?$char_traits@_W@std@@@std@@IBEPA_WXZ 7c081e27 f i cerr.obj
 0001:00000e27       ?gptr@?$basic_streambuf@GU?$char_traits@G@std@@@std@@IBEPAGXZ 7c081e27 f i cerr.obj
 0001:00000e2d       ?pptr@?$basic_streambuf@GU?$char_traits@G@std@@@std@@IBEPAGXZ 7c081e2d f i cerr.obj
 0001:00000e2d       ?pptr@?$basic_streambuf@DU?$char_traits@D@std@@@std@@IBEPADXZ 7c081e2d f i cerr.obj
 0001:00000e2d       ?pptr@?$basic_streambuf@_WU?$char_traits@_W@std@@@std@@IBEPA_WXZ 7c081e2d f i cerr.obj
 0001:00000e33       ?egptr@?$basic_streambuf@DU?$char_traits@D@std@@@std@@IBEPADXZ 7c081e33 f i cerr.obj
 0001:00000e3e       ?setg@?$basic_streambuf@DU?$char_traits@D@std@@@std@@IAEXPAD00@Z 7c081e3e f i cerr.obj
 0001:00000e5e       ?epptr@?$basic_streambuf@DU?$char_traits@D@std@@@std@@IBEPADXZ 7c081e5e f i cerr.obj
 0001:00000e69       ?_Gninc@?$basic_streambuf@DU?$char_traits@D@std@@@std@@IAEPADXZ 7c081e69 f i cerr.obj
 0001:00000e79       ?_Pninc@?$basic_streambuf@DU?$char_traits@D@std@@@std@@IAEPADXZ 7c081e79 f i cerr.obj
 0001:00000e89       ?egptr@?$basic_streambuf@GU?$char_traits@G@std@@@std@@IBEPAGXZ 7c081e89 f i cerr.obj
 0001:00000e89       ?egptr@?$basic_streambuf@_WU?$char_traits@_W@std@@@std@@IBEPA_WXZ 7c081e89 f i cerr.obj
 0001:00000e97       ?epptr@?$basic_streambuf@_WU?$char_traits@_W@std@@@std@@IBEPA_WXZ 7c081e97 f i cerr.obj
 0001:00000e97       ?epptr@?$basic_streambuf@GU?$char_traits@G@std@@@std@@IBEPAGXZ 7c081e97 f i cerr.obj
 0001:00000ea5       ?_Unlock@?$basic_streambuf@GU?$char_traits@G@std@@@std@@QAEXXZ 7c081ea5 f i cerr.obj
 0001:00000ea5       ?_Unlock@?$basic_streambuf@_WU?$char_traits@_W@std@@@std@@QAEXXZ 7c081ea5 f i cerr.obj
 0001:00000ea5       ?_Unlock@?$basic_streambuf@DU?$char_traits@D@std@@@std@@QAEXXZ 7c081ea5 f i cerr.obj
 0001:00000ead       ?_Gninc@?$basic_streambuf@GU?$char_traits@G@std@@@std@@IAEPAGXZ 7c081ead f i cerr.obj
 0001:00000ead       ?_Gninc@?$basic_streambuf@_WU?$char_traits@_W@std@@@std@@IAEPA_WXZ 7c081ead f i cerr.obj
 0001:00000ebd       ?tie@?$basic_ios@_WU?$char_traits@_W@std@@@std@@QBEPAV?$basic_ostream@_WU?$char_traits@_W@std@@@2@XZ 7c081ebd f i cerr.obj
 0001:00000ebd       ?tie@?$basic_ios@GU?$char_traits@G@std@@@std@@QBEPAV?$basic_ostream@GU?$char_traits@G@std@@@2@XZ 7c081ebd f i cerr.obj
 0001:00000ebd       ?tie@?$basic_ios@DU?$char_traits@D@std@@@std@@QBEPAV?$basic_ostream@DU?$char_traits@D@std@@@2@XZ 7c081ebd f i cerr.obj
 0001:00000ec1       ?_Init@?$basic_streambuf@_WU?$char_traits@_W@std@@@std@@IAEXPAPA_W0PAH001@Z 7c081ec1 f i instances.obj
 0001:00000ec1       ?_Init@?$basic_streambuf@DU?$char_traits@D@std@@@std@@IAEXPAPAD0PAH001@Z 7c081ec1 f i cerr.obj
 0001:00000ec1       ?_Init@?$basic_streambuf@GU?$char_traits@G@std@@@std@@IAEXPAPAG0PAH001@Z 7c081ec1 f i instances.obj
 0001:00000eec       ?_Lock@?$basic_streambuf@GU?$char_traits@G@std@@@std@@QAEXXZ 7c081eec f i cerr.obj
 0001:00000eec       ?_Lock@?$basic_streambuf@_WU?$char_traits@_W@std@@@std@@QAEXXZ 7c081eec f i cerr.obj
 0001:00000eec       ?_Lock@?$basic_streambuf@DU?$char_traits@D@std@@@std@@QAEXXZ 7c081eec f i cerr.obj
 0001:00000ef4       ?_Pninc@?$basic_streambuf@GU?$char_traits@G@std@@@std@@IAEPAGXZ 7c081ef4 f i cerr.obj
 0001:00000ef4       ?_Pninc@?$basic_streambuf@_WU?$char_traits@_W@std@@@std@@IAEPA_WXZ 7c081ef4 f i cerr.obj
 0001:00000f04       ?setp@?$basic_streambuf@DU?$char_traits@D@std@@@std@@IAEXPAD0@Z 7c081f04 f i cerr.obj
 0001:00000f20       ??0_Timevec@std@@QAE@ABV01@@Z 7c081f20 f i cerr.obj
 0001:00000f20       ??4_Timevec@std@@QAEAAV01@ABV01@@Z 7c081f20 f i cerr.obj
 0001:00000f30       ??0?$codecvt@_WDH@std@@QAE@I@Z 7c081f30 f i cerr.obj
 0001:00000f8a       ??0?$codecvt@_WDH@std@@QAE@ABV_Locinfo@1@I@Z 7c081f8a f i cerr.obj
 0001:00000fab       ?_Getcat@?$codecvt@_WDH@std@@SAIPAPBVfacet@locale@2@@Z 7c081fab f i cerr.obj
 0001:00000ff4       ??0?$codecvt@GDH@std@@QAE@I@Z 7c081ff4 f i cerr.obj
 0001:0000104e       ??0?$codecvt@GDH@std@@QAE@ABV_Locinfo@1@I@Z 7c08204e f i cerr.obj
 0001:0000106f       ?_Getcat@?$codecvt@GDH@std@@SAIPAPBVfacet@locale@2@@Z 7c08206f f i cerr.obj
 0001:000010b8       ??_F?$codecvt@_WDH@std@@QAEXXZ 7c0820b8 f i cerr.obj
 0001:000010c0       ??_F?$codecvt@GDH@std@@QAEXXZ 7c0820c0 f i cerr.obj
 0001:000010c8       ??0?$ctype@D@std@@QAE@PBF_NI@Z 7c0820c8 f i cerr.obj
 0001:0000113c       ??0?$ctype@D@std@@QAE@ABV_Locinfo@1@I@Z 7c08213c f i cerr.obj
 0001:0000115b       ?_Getcat@?$ctype@D@std@@SAIPAPBVfacet@locale@2@@Z 7c08215b f i cerr.obj
 0001:000011a7       ??1?$ctype@D@std@@MAE@XZ   7c0821a7 f i cerr.obj
 0001:000011bd       ??0?$ctype@_W@std@@QAE@I@Z 7c0821bd f i cerr.obj
 0001:00001214       ??0?$ctype@_W@std@@QAE@ABV_Locinfo@1@I@Z 7c082214 f i cerr.obj
 0001:00001233       ?_Getcat@?$ctype@_W@std@@SAIPAPBVfacet@locale@2@@Z 7c082233 f i cerr.obj
 0001:0000127c       ??0?$ctype@G@std@@QAE@I@Z  7c08227c f i cerr.obj
 0001:000012d3       ??0?$ctype@G@std@@QAE@ABV_Locinfo@1@I@Z 7c0822d3 f i cerr.obj
 0001:000012f2       ?_Getcat@?$ctype@G@std@@SAIPAPBVfacet@locale@2@@Z 7c0822f2 f i cerr.obj
 0001:0000133b       ??_F?$ctype@D@std@@QAEXXZ  7c08233b f i cerr.obj
 0001:00001346       ??_E?$ctype@D@std@@MAEPAXI@Z 7c082346 f i cerr.obj
 0001:0000138f       ??_F?$ctype@_W@std@@QAEXXZ 7c08238f f i cerr.obj
 0001:00001397       ??_F?$ctype@G@std@@QAEXXZ  7c082397 f i cerr.obj
 0001:0000139f       ??Bios_base@std@@QBEPAXXZ  7c08239f f i cerr.obj
 0001:000013ad       ??_D?$basic_ostream@DU?$char_traits@D@std@@@std@@QAEXXZ 7c0823ad f i cerr.obj
 0001:000013c8       ??0_Init_cerr@std@@QAE@XZ  7c0823c8 f i cerr.obj
 0001:000013fc       ?rend@?$basic_string@DU?$char_traits@D@std@@V?$allocator@D@2@@std@@QBE?AV?$reverse_iterator@Vconst_iterator@?$basic_string@DU?$char_traits@D@std@@V?$allocator@D@2@@std@@@2@XZ 7c0823fc f i cerr.obj
 0001:000013fc       ?begin@?$basic_string@DU?$char_traits@D@std@@V?$allocator@D@2@@std@@QBE?AVconst_iterator@12@XZ 7c0823fc f i cerr.obj
 0001:000013fc       ?begin@?$basic_string@DU?$char_traits@D@std@@V?$allocator@D@2@@std@@QAE?AViterator@12@XZ 7c0823fc f i cerr.obj
 0001:000013fc       ?rend@?$basic_string@DU?$char_traits@D@std@@V?$allocator@D@2@@std@@QAE?AV?$reverse_iterator@Viterator@?$basic_string@DU?$char_traits@D@std@@V?$allocator@D@2@@std@@@2@XZ 7c0823fc f i cerr.obj
 0001:00001413       ?end@?$basic_string@DU?$char_traits@D@std@@V?$allocator@D@2@@std@@QBE?AVconst_iterator@12@XZ 7c082413 f i cerr.obj
 0001:00001413       ?end@?$basic_string@DU?$char_traits@D@std@@V?$allocator@D@2@@std@@QAE?AViterator@12@XZ 7c082413 f i cerr.obj
 0001:0000142f       ?rbegin@?$basic_string@DU?$char_traits@D@std@@V?$allocator@D@2@@std@@QAE?AV?$reverse_iterator@Viterator@?$basic_string@DU?$char_traits@D@std@@V?$allocator@D@2@@std@@@2@XZ 7c08242f f i cerr.obj
 0001:0000142f       ?rbegin@?$basic_string@DU?$char_traits@D@std@@V?$allocator@D@2@@std@@QBE?AV?$reverse_iterator@Vconst_iterator@?$basic_string@DU?$char_traits@D@std@@V?$allocator@D@2@@std@@@2@XZ 7c08242f f i cerr.obj
 0001:00001447       ?at@?$basic_string@DU?$char_traits@D@std@@V?$allocator@D@2@@std@@QAEAADI@Z 7c082447 f i cerr.obj
 0001:00001447       ?at@?$basic_string@DU?$char_traits@D@std@@V?$allocator@D@2@@std@@QBEABDI@Z 7c082447 f i cerr.obj
 0001:0000146f       ??A?$basic_string@DU?$char_traits@D@std@@V?$allocator@D@2@@std@@QAEAADI@Z 7c08246f f i cerr.obj
 0001:0000146f       ??A?$basic_string@DU?$char_traits@D@std@@V?$allocator@D@2@@std@@QBEABDI@Z 7c08246f f i cerr.obj
 0001:00001486       ?max_size@?$basic_string@DU?$char_traits@D@std@@V?$allocator@D@2@@std@@QBEIXZ 7c082486 f i cerr.obj
 0001:0000148a       ?copy@?$basic_string@DU?$char_traits@D@std@@V?$allocator@D@2@@std@@QBEIPADII@Z 7c08248a f i cerr.obj
 0001:000014d2       ?find@?$basic_string@DU?$char_traits@D@std@@V?$allocator@D@2@@std@@QBEIPBDII@Z 7c0824d2 f i cerr.obj
 0001:0000156d       ?find@?$basic_string@DU?$char_traits@D@std@@V?$allocator@D@2@@std@@QBEIPBDI@Z 7c08256d f i cerr.obj
 0001:0000158e       ?rfind@?$basic_string@DU?$char_traits@D@std@@V?$allocator@D@2@@std@@QBEIPBDII@Z 7c08258e f i cerr.obj
 0001:00001615       ?rfind@?$basic_string@DU?$char_traits@D@std@@V?$allocator@D@2@@std@@QBEIPBDI@Z 7c082615 f i cerr.obj
 0001:00001636       ?find_last_of@?$basic_string@DU?$char_traits@D@std@@V?$allocator@D@2@@std@@QBEIDI@Z 7c082636 f i cerr.obj
 0001:00001636       ?rfind@?$basic_string@DU?$char_traits@D@std@@V?$allocator@D@2@@std@@QBEIDI@Z 7c082636 f i cerr.obj
 0001:00001649       ?find_first_of@?$basic_string@DU?$char_traits@D@std@@V?$allocator@D@2@@std@@QBEIPBDII@Z 7c082649 f i cerr.obj
 0001:000016b9       ?find_first_of@?$basic_string@DU?$char_traits@D@std@@V?$allocator@D@2@@std@@QBEIPBDI@Z 7c0826b9 f i cerr.obj
 0001:000016da       ?find_first_of@?$basic_string@DU?$char_traits@D@std@@V?$allocator@D@2@@std@@QBEIDI@Z 7c0826da f i cerr.obj
 0001:000016da       ?find@?$basic_string@DU?$char_traits@D@std@@V?$allocator@D@2@@std@@QBEIDI@Z 7c0826da f i cerr.obj
 0001:000016ed       ?find_last_of@?$basic_string@DU?$char_traits@D@std@@V?$allocator@D@2@@std@@QBEIPBDII@Z 7c0826ed f i cerr.obj
 0001:0000175c       ?find_last_of@?$basic_string@DU?$char_traits@D@std@@V?$allocator@D@2@@std@@QBEIPBDI@Z 7c08275c f i cerr.obj
 0001:0000177d       ?find_first_not_of@?$basic_string@DU?$char_traits@D@std@@V?$allocator@D@2@@std@@QBEIPBDII@Z 7c08277d f i cerr.obj
 0001:000017e7       ?find_first_not_of@?$basic_string@DU?$char_traits@D@std@@V?$allocator@D@2@@std@@QBEIPBDI@Z 7c0827e7 f i cerr.obj
 0001:00001808       ?find_first_not_of@?$basic_string@DU?$char_traits@D@std@@V?$allocator@D@2@@std@@QBEIDI@Z 7c082808 f i cerr.obj
 0001:0000181b       ?find_last_not_of@?$basic_string@DU?$char_traits@D@std@@V?$allocator@D@2@@std@@QBEIPBDII@Z 7c08281b f i cerr.obj
 0001:00001884       ?find_last_not_of@?$basic_string@DU?$char_traits@D@std@@V?$allocator@D@2@@std@@QBEIPBDI@Z 7c082884 f i cerr.obj
 0001:000018a5       ?find_last_not_of@?$basic_string@DU?$char_traits@D@std@@V?$allocator@D@2@@std@@QBEIDI@Z 7c0828a5 f i cerr.obj
 0001:000018b8       ?compare@?$basic_string@DU?$char_traits@D@std@@V?$allocator@D@2@@std@@QBEHIIPBDI@Z 7c0828b8 f i cerr.obj
 0001:00001922       ?get_allocator@?$basic_string@_WU?$char_traits@_W@std@@V?$allocator@_W@2@@std@@QBE?AV?$allocator@_W@2@XZ 7c082922 f i instances.obj
 0001:00001922       ?get_allocator@?$basic_string@GU?$char_traits@G@std@@V?$allocator@G@2@@std@@QBE?AV?$allocator@G@2@XZ 7c082922 f i instances.obj
 0001:00001922       ?get_allocator@?$basic_string@DU?$char_traits@D@std@@V?$allocator@D@2@@std@@QBE?AV?$allocator@D@2@XZ 7c082922 f i cerr.obj
 0001:00001929       ?_Eos@?$basic_string@DU?$char_traits@D@std@@V?$allocator@D@2@@std@@IAEXI@Z 7c082929 f i cerr.obj
 0001:00001945       ?_Inside@?$basic_string@DU?$char_traits@D@std@@V?$allocator@D@2@@std@@IAE_NPBD@Z 7c082945 f i cerr.obj
 0001:00001979       ?_Pdif@?$basic_string@DU?$char_traits@D@std@@V?$allocator@D@2@@std@@KAIVconst_iterator@12@0@Z 7c082979 f i cerr.obj
 0001:00001987       ?_Tidy@?$basic_string@DU?$char_traits@D@std@@V?$allocator@D@2@@std@@IAEX_NI@Z 7c082987 f i cerr.obj
 0001:000019d0       ?setstate@?$basic_ios@GU?$char_traits@G@std@@@std@@QAEXH_N@Z 7c0829d0 f i cerr.obj
 0001:000019d0       ?setstate@?$basic_ios@DU?$char_traits@D@std@@@std@@QAEXH_N@Z 7c0829d0 f i cerr.obj
 0001:000019d0       ?setstate@?$basic_ios@_WU?$char_traits@_W@std@@@std@@QAEXH_N@Z 7c0829d0 f i cerr.obj
 0001:000019eb       ??1_Sentry_base@?$basic_istream@DU?$char_traits@D@std@@@std@@QAE@XZ 7c0829eb f i cerr.obj
 0001:000019eb       ??1_Sentry_base@?$basic_istream@_WU?$char_traits@_W@std@@@std@@QAE@XZ 7c0829eb f i cerr.obj
 0001:000019eb       ??1_Sentry_base@?$basic_ostream@GU?$char_traits@G@std@@@std@@QAE@XZ 7c0829eb f i cerr.obj
 0001:000019eb       ??1_Sentry_base@?$basic_ostream@_WU?$char_traits@_W@std@@@std@@QAE@XZ 7c0829eb f i cerr.obj
 0001:000019eb       ??1_Sentry_base@?$basic_ostream@DU?$char_traits@D@std@@@std@@QAE@XZ 7c0829eb f i cerr.obj
 0001:000019eb       ??1_Sentry_base@?$basic_istream@GU?$char_traits@G@std@@@std@@QAE@XZ 7c0829eb f i cerr.obj
 0001:00001a03       ??1?$basic_streambuf@DU?$char_traits@D@std@@@std@@UAE@XZ 7c082a03 f i cerr.obj
 0001:00001a2c       ?pbackfail@?$basic_streambuf@DU?$char_traits@D@std@@@std@@MAEHH@Z 7c082a2c f i cerr.obj
 0001:00001a2c       ?overflow@?$basic_streambuf@DU?$char_traits@D@std@@@std@@MAEHH@Z 7c082a2c f i cerr.obj
 0001:00001a32       ?setbuf@?$basic_streambuf@_WU?$char_traits@_W@std@@@std@@MAEPAV12@PA_WH@Z 7c082a32 f i instances.obj
 0001:00001a32       ?setbuf@?$basic_streambuf@DU?$char_traits@D@std@@@std@@MAEPAV12@PADH@Z 7c082a32 f i cerr.obj
 0001:00001a32       ?setbuf@?$basic_streambuf@GU?$char_traits@G@std@@@std@@MAEPAV12@PAGH@Z 7c082a32 f i instances.obj
 0001:00001a37       ?gbump@?$basic_streambuf@DU?$char_traits@D@std@@@std@@IAEXH@Z 7c082a37 f i cerr.obj
 0001:00001a48       ?pbump@?$basic_streambuf@DU?$char_traits@D@std@@@std@@IAEXH@Z 7c082a48 f i cerr.obj
 0001:00001a59       ??0?$fpos@H@std@@QAE@J@Z   7c082a59 f i cerr.obj
 0001:00001a7f       ?sgetc@?$basic_streambuf@DU?$char_traits@D@std@@@std@@QAEHXZ 7c082a7f f i cerr.obj
 0001:00001aa3       ?uflow@?$basic_streambuf@DU?$char_traits@D@std@@@std@@MAEHXZ 7c082aa3 f i cerr.obj
 0001:00001ac8       ?xsgetn@?$basic_streambuf@DU?$char_traits@D@std@@@std@@MAEHPADH@Z 7c082ac8 f i cerr.obj
 0001:00001b3c       ?xsputn@?$basic_streambuf@DU?$char_traits@D@std@@@std@@MAEHPBDH@Z 7c082b3c f i cerr.obj
 0001:00001bb2       ?seekoff@?$basic_streambuf@_WU?$char_traits@_W@std@@@std@@MAE?AV?$fpos@H@2@JHH@Z 7c082bb2 f i instances.obj
 0001:00001bb2       ?seekoff@?$basic_streambuf@GU?$char_traits@G@std@@@std@@MAE?AV?$fpos@H@2@JHH@Z 7c082bb2 f i instances.obj
 0001:00001bb2       ?seekoff@?$basic_streambuf@DU?$char_traits@D@std@@@std@@MAE?AV?$fpos@H@2@JHH@Z 7c082bb2 f i cerr.obj
 0001:00001bc8       ?sgetc@?$basic_streambuf@_WU?$char_traits@_W@std@@@std@@QAEGXZ 7c082bc8 f i cerr.obj
 0001:00001bc8       ?sgetc@?$basic_streambuf@GU?$char_traits@G@std@@@std@@QAEGXZ 7c082bc8 f i cerr.obj
 0001:00001bee       ?sbumpc@?$basic_streambuf@DU?$char_traits@D@std@@@std@@QAEHXZ 7c082bee f i cerr.obj
 0001:00001c1b       ?sputc@?$basic_streambuf@DU?$char_traits@D@std@@@std@@QAEHD@Z 7c082c1b f i cerr.obj
 0001:00001c58       ??0_Sentry_base@?$basic_ostream@GU?$char_traits@G@std@@@std@@QAE@AAV12@@Z 7c082c58 f i cerr.obj
 0001:00001c58       ??0_Sentry_base@?$basic_istream@GU?$char_traits@G@std@@@std@@QAE@AAV12@@Z 7c082c58 f i cerr.obj
 0001:00001c58       ??0_Sentry_base@?$basic_ostream@_WU?$char_traits@_W@std@@@std@@QAE@AAV12@@Z 7c082c58 f i cerr.obj
 0001:00001c58       ??0_Sentry_base@?$basic_istream@_WU?$char_traits@_W@std@@@std@@QAE@AAV12@@Z 7c082c58 f i cerr.obj
 0001:00001c58       ??0_Sentry_base@?$basic_istream@DU?$char_traits@D@std@@@std@@QAE@AAV12@@Z 7c082c58 f i cerr.obj
 0001:00001c58       ??0_Sentry_base@?$basic_ostream@DU?$char_traits@D@std@@@std@@QAE@AAV12@@Z 7c082c58 f i cerr.obj
 0001:00001c7c       ?sbumpc@?$basic_streambuf@_WU?$char_traits@_W@std@@@std@@QAEGXZ 7c082c7c f i cerr.obj
 0001:00001c7c       ?sbumpc@?$basic_streambuf@GU?$char_traits@G@std@@@std@@QAEGXZ 7c082c7c f i cerr.obj
 0001:00001cae       ?sputc@?$basic_streambuf@GU?$char_traits@G@std@@@std@@QAEGG@Z 7c082cae f i cerr.obj
 0001:00001cae       ?sputc@?$basic_streambuf@_WU?$char_traits@_W@std@@@std@@QAEG_W@Z 7c082cae f i cerr.obj
 0001:00001cee       ??$use_facet@V?$ctype@D@std@@@std@@YAABV?$ctype@D@0@ABVlocale@0@@Z 7c082cee f i cerr.obj
 0001:00001d93       ??$use_facet@V?$ctype@_W@std@@@std@@YAABV?$ctype@_W@0@ABVlocale@0@@Z 7c082d93 f i cerr.obj
 0001:00001e38       ??$use_facet@V?$ctype@G@std@@@std@@YAABV?$ctype@G@0@ABVlocale@0@@Z 7c082e38 f i cerr.obj
 0001:00001edd       ?isfx@?$basic_istream@DU?$char_traits@D@std@@@std@@QAEXXZ 7c082edd f i instances.obj
 0001:00001edd       ?isfx@?$basic_istream@_WU?$char_traits@_W@std@@@std@@QAEXXZ 7c082edd f i instances.obj
 0001:00001edd       ??_F?$_String_val@DV?$allocator@D@std@@@std@@QAEXXZ 7c082edd f i cerr.obj
 0001:00001edd       ??_F?$_String_val@_WV?$allocator@_W@std@@@std@@QAEXXZ 7c082edd f i instances.obj
 0001:00001edd       ??_F?$_String_val@GV?$allocator@G@std@@@std@@QAEXXZ 7c082edd f i instances.obj
 0001:00001edd       ?isfx@?$basic_istream@GU?$char_traits@G@std@@@std@@QAEXXZ 7c082edd f i instances.obj
 0001:00001ede       ?classic_table@?$ctype@D@std@@KAPBFXZ 7c082ede f i cerr.obj
 0001:00001eee       ??1sentry@?$basic_istream@GU?$char_traits@G@std@@@std@@QAE@XZ 7c082eee f i cerr.obj
 0001:00001eee       ??1sentry@?$basic_istream@_WU?$char_traits@_W@std@@@std@@QAE@XZ 7c082eee f i cerr.obj
 0001:00001eee       ??1sentry@?$basic_istream@DU?$char_traits@D@std@@@std@@QAE@XZ 7c082eee f i cerr.obj
 0001:00001ef3       ??0?$basic_string@DU?$char_traits@D@std@@V?$allocator@D@2@@std@@QAE@XZ 7c082ef3 f i cerr.obj
 0001:00001f08       ??0?$basic_string@DU?$char_traits@D@std@@V?$allocator@D@2@@std@@QAE@ABV?$allocator@D@1@@Z 7c082f08 f i cerr.obj
 0001:00001f1f       ??1?$basic_string@DU?$char_traits@D@std@@V?$allocator@D@2@@std@@QAE@XZ 7c082f1f f i cerr.obj
 0001:00001f29       ?erase@?$basic_string@DU?$char_traits@D@std@@V?$allocator@D@2@@std@@QAEAAV12@II@Z 7c082f29 f i cerr.obj
 0001:00001f96       ?erase@?$basic_string@DU?$char_traits@D@std@@V?$allocator@D@2@@std@@QAE?AViterator@12@V312@@Z 7c082f96 f i cerr.obj
 0001:00001fda       ?erase@?$basic_string@DU?$char_traits@D@std@@V?$allocator@D@2@@std@@QAE?AViterator@12@V312@0@Z 7c082fda f i cerr.obj
 0001:00002027       ?clear@?$basic_string@DU?$char_traits@D@std@@V?$allocator@D@2@@std@@QAEXXZ 7c083027 f i cerr.obj
 0001:00002059       ?find@?$basic_string@DU?$char_traits@D@std@@V?$allocator@D@2@@std@@QBEIABV12@I@Z 7c083059 f i cerr.obj
 0001:0000207c       ?rfind@?$basic_string@DU?$char_traits@D@std@@V?$allocator@D@2@@std@@QBEIABV12@I@Z 7c08307c f i cerr.obj
 0001:0000209f       ?find_first_of@?$basic_string@DU?$char_traits@D@std@@V?$allocator@D@2@@std@@QBEIABV12@I@Z 7c08309f f i cerr.obj
 0001:000020c2       ?find_last_of@?$basic_string@DU?$char_traits@D@std@@V?$allocator@D@2@@std@@QBEIABV12@I@Z 7c0830c2 f i cerr.obj
 0001:000020e5       ?find_first_not_of@?$basic_string@DU?$char_traits@D@std@@V?$allocator@D@2@@std@@QBEIABV12@I@Z 7c0830e5 f i cerr.obj
 0001:00002108       ?find_last_not_of@?$basic_string@DU?$char_traits@D@std@@V?$allocator@D@2@@std@@QBEIABV12@I@Z 7c083108 f i cerr.obj
 0001:0000212b       ?compare@?$basic_string@DU?$char_traits@D@std@@V?$allocator@D@2@@std@@QBEHABV12@@Z 7c08312b f i cerr.obj
 0001:0000214f       ?compare@?$basic_string@DU?$char_traits@D@std@@V?$allocator@D@2@@std@@QBEHIIABV12@II@Z 7c08314f f i cerr.obj
 0001:0000219c       ?compare@?$basic_string@DU?$char_traits@D@std@@V?$allocator@D@2@@std@@QBEHPBD@Z 7c08319c f i cerr.obj
 0001:000021be       ?compare@?$basic_string@DU?$char_traits@D@std@@V?$allocator@D@2@@std@@QBEHIIPBD@Z 7c0831be f i cerr.obj
 0001:000021e3       ?_Copy@?$basic_string@DU?$char_traits@D@std@@V?$allocator@D@2@@std@@IAEXII@Z 7c0831e3 f i cerr.obj
 0001:000022cb       ?_Grow@?$basic_string@DU?$char_traits@D@std@@V?$allocator@D@2@@std@@IAE_NI_N@Z 7c0832cb f i cerr.obj
 0001:00002329       ?flush@?$basic_ostream@_WU?$char_traits@_W@std@@@std@@QAEAAV12@XZ 7c083329 f i cerr.obj
 0001:00002329       ?flush@?$basic_ostream@GU?$char_traits@G@std@@@std@@QAEAAV12@XZ 7c083329 f i cerr.obj
 0001:00002329       ?flush@?$basic_ostream@DU?$char_traits@D@std@@@std@@QAEAAV12@XZ 7c083329 f i cerr.obj
 0001:00002362       ?snextc@?$basic_streambuf@DU?$char_traits@D@std@@@std@@QAEHXZ 7c083362 f i cerr.obj
 0001:0000237b       ?snextc@?$basic_streambuf@_WU?$char_traits@_W@std@@@std@@QAEGXZ 7c08337b f i cerr.obj
 0001:0000237b       ?snextc@?$basic_streambuf@GU?$char_traits@G@std@@@std@@QAEGXZ 7c08337b f i cerr.obj
 0001:0000239c       ??_G?$basic_string@DU?$char_traits@D@std@@V?$allocator@D@2@@std@@QAEPAXI@Z 7c08339c f i cerr.obj
 0001:000023bc       ?_Ipfx@?$basic_istream@DU?$char_traits@D@std@@@std@@QAE_N_N@Z 7c0833bc f i cerr.obj
 0001:000024d2       ??0?$basic_streambuf@DU?$char_traits@D@std@@@std@@IAE@XZ 7c0834d2 f i cerr.obj
 0001:00002525       ?_Ipfx@?$basic_istream@_WU?$char_traits@_W@std@@@std@@QAE_N_N@Z 7c083525 f i cerr.obj
 0001:00002644       ?_Ipfx@?$basic_istream@GU?$char_traits@G@std@@@std@@QAE_N_N@Z 7c083644 f i cerr.obj
 0001:00002763       ?_Init@?$basic_filebuf@DU?$char_traits@D@std@@@std@@IAEXPAU_iobuf@@W4_Initfl@12@@Z 7c083763 f i cerr.obj
 0001:000027b2       ??0sentry@?$basic_ostream@DU?$char_traits@D@std@@@std@@QAE@AAV12@@Z 7c0837b2 f i cerr.obj
 0001:000027b2       ??0sentry@?$basic_ostream@_WU?$char_traits@_W@std@@@std@@QAE@AAV12@@Z 7c0837b2 f i cerr.obj
 0001:000027b2       ??0sentry@?$basic_ostream@GU?$char_traits@G@std@@@std@@QAE@AAV12@@Z 7c0837b2 f i cerr.obj
 0001:0000280e       ?widen@?$basic_ios@DU?$char_traits@D@std@@@std@@QBEDD@Z 7c08380e f i cerr.obj
 0001:00002855       ?flush@std@@YAAAV?$basic_ostream@GU?$char_traits@G@std@@@1@AAV21@@Z 7c083855 f i cerr.obj
 0001:00002855       ?flush@std@@YAAAV?$basic_ostream@DU?$char_traits@D@std@@@1@AAV21@@Z 7c083855 f i cerr.obj
 0001:00002855       ?flush@std@@YAAAV?$basic_ostream@_WU?$char_traits@_W@std@@@1@AAV21@@Z 7c083855 f i cerr.obj
 0001:00002863       ?append@?$basic_string@DU?$char_traits@D@std@@V?$allocator@D@2@@std@@QAEAAV12@ABV12@II@Z 7c083863 f i cerr.obj
 0001:000028f8       ?append@?$basic_string@DU?$char_traits@D@std@@V?$allocator@D@2@@std@@QAEAAV12@PBDI@Z 7c0838f8 f i cerr.obj
 0001:00002988       ?append@?$basic_string@DU?$char_traits@D@std@@V?$allocator@D@2@@std@@QAEAAV12@PBD@Z 7c083988 f i cerr.obj
 0001:000029a5       ?append@?$basic_string@DU?$char_traits@D@std@@V?$allocator@D@2@@std@@QAEAAV12@ID@Z 7c0839a5 f i cerr.obj
 0001:00002a05       ?assign@?$basic_string@DU?$char_traits@D@std@@V?$allocator@D@2@@std@@QAEAAV12@ABV12@II@Z 7c083a05 f i cerr.obj
 0001:00002a94       ?assign@?$basic_string@DU?$char_traits@D@std@@V?$allocator@D@2@@std@@QAEAAV12@PBDI@Z 7c083a94 f i cerr.obj
 0001:00002b03       ?assign@?$basic_string@DU?$char_traits@D@std@@V?$allocator@D@2@@std@@QAEAAV12@PBD@Z 7c083b03 f i cerr.obj
 0001:00002b20       ?assign@?$basic_string@DU?$char_traits@D@std@@V?$allocator@D@2@@std@@QAEAAV12@ID@Z 7c083b20 f i cerr.obj
 0001:00002b6b       ?insert@?$basic_string@DU?$char_traits@D@std@@V?$allocator@D@2@@std@@QAEAAV12@IABV12@II@Z 7c083b6b f i cerr.obj
 0001:00002c7d       ?insert@?$basic_string@DU?$char_traits@D@std@@V?$allocator@D@2@@std@@QAEAAV12@IPBDI@Z 7c083c7d f i cerr.obj
 0001:00002d54       ?insert@?$basic_string@DU?$char_traits@D@std@@V?$allocator@D@2@@std@@QAEAAV12@IPBD@Z 7c083d54 f i cerr.obj
 0001:00002d75       ?insert@?$basic_string@DU?$char_traits@D@std@@V?$allocator@D@2@@std@@QAEAAV12@IID@Z 7c083d75 f i cerr.obj
 0001:00002e19       ?insert@?$basic_string@DU?$char_traits@D@std@@V?$allocator@D@2@@std@@QAE?AViterator@12@V312@D@Z 7c083e19 f i cerr.obj
 0001:00002e61       ?insert@?$basic_string@DU?$char_traits@D@std@@V?$allocator@D@2@@std@@QAEXViterator@12@ID@Z 7c083e61 f i cerr.obj
 0001:00002e8a       ?replace@?$basic_string@DU?$char_traits@D@std@@V?$allocator@D@2@@std@@QAEAAV12@IIABV12@II@Z 7c083e8a f i cerr.obj
 0001:00003157       ?replace@?$basic_string@DU?$char_traits@D@std@@V?$allocator@D@2@@std@@QAEAAV12@IIPBDI@Z 7c084157 f i cerr.obj
 0001:0000328f       ?replace@?$basic_string@DU?$char_traits@D@std@@V?$allocator@D@2@@std@@QAEAAV12@IIPBD@Z 7c08428f f i cerr.obj
 0001:000032b4       ?replace@?$basic_string@DU?$char_traits@D@std@@V?$allocator@D@2@@std@@QAEAAV12@IIID@Z 7c0842b4 f i cerr.obj
 0001:000033b5       ?replace@?$basic_string@DU?$char_traits@D@std@@V?$allocator@D@2@@std@@QAEAAV12@Viterator@12@0PBDI@Z 7c0843b5 f i cerr.obj
 0001:000033ef       ?replace@?$basic_string@DU?$char_traits@D@std@@V?$allocator@D@2@@std@@QAEAAV12@Viterator@12@0PBD@Z 7c0843ef f i cerr.obj
 0001:00003425       ?replace@?$basic_string@DU?$char_traits@D@std@@V?$allocator@D@2@@std@@QAEAAV12@Viterator@12@0ID@Z 7c084425 f i cerr.obj
 0001:0000345f       ?replace@?$basic_string@DU?$char_traits@D@std@@V?$allocator@D@2@@std@@QAEAAV12@Viterator@12@0Vconst_iterator@12@1@Z 7c08445f f i cerr.obj
 0001:0000345f       ?replace@?$basic_string@DU?$char_traits@D@std@@V?$allocator@D@2@@std@@QAEAAV12@Viterator@12@0PBD1@Z 7c08445f f i cerr.obj
 0001:000034d9       ?push_back@?$basic_string@DU?$char_traits@D@std@@V?$allocator@D@2@@std@@QAEXD@Z 7c0844d9 f i cerr.obj
 0001:000034fe       ?resize@?$basic_string@DU?$char_traits@D@std@@V?$allocator@D@2@@std@@QAEXID@Z 7c0844fe f i cerr.obj
 0001:00003522       ?reserve@?$basic_string@DU?$char_traits@D@std@@V?$allocator@D@2@@std@@QAEXI@Z 7c084522 f i cerr.obj
 0001:0000354f       ?compare@?$basic_string@DU?$char_traits@D@std@@V?$allocator@D@2@@std@@QBEHIIABV12@@Z 7c08454f f i cerr.obj
 0001:00003567       ??0sentry@?$basic_istream@DU?$char_traits@D@std@@@std@@QAE@AAV12@_N@Z 7c084567 f i cerr.obj
 0001:000035a2       ??0sentry@?$basic_istream@_WU?$char_traits@_W@std@@@std@@QAE@AAV12@_N@Z 7c0845a2 f i cerr.obj
 0001:000035dd       ??0sentry@?$basic_istream@GU?$char_traits@G@std@@@std@@QAE@AAV12@_N@Z 7c0845dd f i cerr.obj
 0001:00003618       ??0?$basic_filebuf@DU?$char_traits@D@std@@@std@@QAE@PAU_iobuf@@@Z 7c084618 f i cerr.obj
 0001:0000363d       ??$_Fgetc@D@std@@YA_NAADPAU_iobuf@@@Z 7c08463d f i cerr.obj
 0001:00003659       ??$_Fputc@D@std@@YA_NDPAU_iobuf@@@Z 7c084659 f i cerr.obj
 0001:00003676       ??$_Ungetc@D@std@@YA_NABDPAU_iobuf@@@Z 7c084676 f i cerr.obj
 0001:00003695       ?setbuf@?$basic_filebuf@DU?$char_traits@D@std@@@std@@MAEPAV?$basic_streambuf@DU?$char_traits@D@std@@@2@PADH@Z 7c084695 f i cerr.obj
 0001:000036d5       ?sync@?$basic_filebuf@DU?$char_traits@D@std@@@std@@MAEHXZ 7c0846d5 f i cerr.obj
 0001:00003701       ?eback@?$basic_streambuf@DU?$char_traits@D@std@@@std@@IBEPADXZ 7c084701 f i cerr.obj
 0001:00003701       ?eback@?$basic_streambuf@_WU?$char_traits@_W@std@@@std@@IBEPA_WXZ 7c084701 f i instances.obj
 0001:00003701       ?eback@?$basic_streambuf@GU?$char_traits@G@std@@@std@@IBEPAGXZ 7c084701 f i instances.obj
 0001:00003707       ?_Gndec@?$basic_streambuf@DU?$char_traits@D@std@@@std@@IAEPADXZ 7c084707 f i cerr.obj
 0001:00003717       ?in@?$codecvt@_WDH@std@@QBEHAAHPBD1AAPBDPA_W3AAPA_W@Z 7c084717 f i cerr.obj
 0001:00003717       ?in@?$codecvt@GDH@std@@QBEHAAHPBD1AAPBDPAG3AAPAG@Z 7c084717 f i cerr.obj
 0001:00003717       ?in@?$codecvt@DDH@std@@QBEHAAHPBD1AAPBDPAD3AAPAD@Z 7c084717 f i cerr.obj
 0001:00003720       ?pbackfail@?$basic_filebuf@DU?$char_traits@D@std@@@std@@MAEHH@Z 7c084720 f i cerr.obj
 0001:000037b2       ?underflow@?$basic_filebuf@DU?$char_traits@D@std@@@std@@MAEHXZ 7c0847b2 f i cerr.obj
 0001:000037ee       ??0?$codecvt@DDH@std@@QAE@I@Z 7c0847ee f i cerr.obj
 0001:0000383d       ?do_in@?$codecvt@DDH@std@@MBEHAAHPBD1AAPBDPAD3AAPAD@Z 7c08483d f i cerr.obj
 0001:0000383d       ?do_out@?$codecvt@DDH@std@@MBEHAAHPBD1AAPBDPAD3AAPAD@Z 7c08483d f i cerr.obj
 0001:00003857       ?do_unshift@?$codecvt@DDH@std@@MBEHAAHPAD1AAPAD@Z 7c084857 f i cerr.obj
 0001:0000385d       ?do_length@?$codecvt@DDH@std@@MBEHABHPBD1I@Z 7c08485d f i cerr.obj
 0001:00003872       ?_Getcat@?$codecvt@DDH@std@@SAIPAPBVfacet@locale@2@@Z 7c084872 f i cerr.obj
 0001:000038bb       ?uflow@?$basic_filebuf@DU?$char_traits@D@std@@@std@@MAEHXZ 7c0848bb f i cerr.obj
 0001:00003a2b       ?init@?$basic_ios@DU?$char_traits@D@std@@@std@@IAEXPAV?$basic_streambuf@DU?$char_traits@D@std@@@2@_N@Z 7c084a2b f i cerr.obj
 0001:00003a77       ??1sentry@?$basic_ostream@_WU?$char_traits@_W@std@@@std@@QAE@XZ 7c084a77 f i cerr.obj
 0001:00003a77       ??1sentry@?$basic_ostream@DU?$char_traits@D@std@@@std@@QAE@XZ 7c084a77 f i cerr.obj
 0001:00003a77       ??1sentry@?$basic_ostream@GU?$char_traits@G@std@@@std@@QAE@XZ 7c084a77 f i cerr.obj
 0001:00003ac0       ??$use_facet@V?$codecvt@DDH@std@@@std@@YAABV?$codecvt@DDH@0@ABVlocale@0@@Z 7c084ac0 f i cerr.obj
 0001:00003b65       ?ws@std@@YAAAV?$basic_istream@DU?$char_traits@D@std@@@1@AAV21@@Z 7c084b65 f i cerr.obj
 0001:00003c52       ?ws@std@@YAAAV?$basic_istream@_WU?$char_traits@_W@std@@@1@AAV21@@Z 7c084c52 f i cerr.obj
 0001:00003d4c       ?ws@std@@YAAAV?$basic_istream@GU?$char_traits@G@std@@@1@AAV21@@Z 7c084d4c f i cerr.obj
 0001:00003e46       ??0?$basic_string@DU?$char_traits@D@std@@V?$allocator@D@2@@std@@QAE@ABV01@@Z 7c084e46 f i cerr.obj
 0001:00003e6c       ??0?$basic_string@DU?$char_traits@D@std@@V?$allocator@D@2@@std@@QAE@ABV01@II@Z 7c084e6c f i cerr.obj
 0001:00003e96       ??0?$basic_string@DU?$char_traits@D@std@@V?$allocator@D@2@@std@@QAE@ABV01@IIABV?$allocator@D@1@@Z 7c084e96 f i cerr.obj
 0001:00003ec0       ??0?$basic_string@DU?$char_traits@D@std@@V?$allocator@D@2@@std@@QAE@PBDI@Z 7c084ec0 f i cerr.obj
 0001:00003ee6       ??0?$basic_string@DU?$char_traits@D@std@@V?$allocator@D@2@@std@@QAE@PBDIABV?$allocator@D@1@@Z 7c084ee6 f i cerr.obj
 0001:00003f0c       ??0?$basic_string@DU?$char_traits@D@std@@V?$allocator@D@2@@std@@QAE@PBD@Z 7c084f0c f i cerr.obj
 0001:00003f2e       ??0?$basic_string@DU?$char_traits@D@std@@V?$allocator@D@2@@std@@QAE@PBDABV?$allocator@D@1@@Z 7c084f2e f i cerr.obj
 0001:00003f50       ??0?$basic_string@DU?$char_traits@D@std@@V?$allocator@D@2@@std@@QAE@ID@Z 7c084f50 f i cerr.obj
 0001:00003f76       ??0?$basic_string@DU?$char_traits@D@std@@V?$allocator@D@2@@std@@QAE@IDABV?$allocator@D@1@@Z 7c084f76 f i cerr.obj
 0001:00003f9c       ??0?$basic_string@DU?$char_traits@D@std@@V?$allocator@D@2@@std@@QAE@Vconst_iterator@01@0@Z 7c084f9c f i cerr.obj
 0001:00003f9c       ??0?$basic_string@DU?$char_traits@D@std@@V?$allocator@D@2@@std@@QAE@PBD0@Z 7c084f9c f i cerr.obj
 0001:00003fcd       ??4?$basic_string@DU?$char_traits@D@std@@V?$allocator@D@2@@std@@QAEAAV01@PBD@Z 7c084fcd f i cerr.obj
 0001:00003fd2       ??4?$basic_string@DU?$char_traits@D@std@@V?$allocator@D@2@@std@@QAEAAV01@D@Z 7c084fd2 f i cerr.obj
 0001:00003fe0       ??Y?$basic_string@DU?$char_traits@D@std@@V?$allocator@D@2@@std@@QAEAAV01@PBD@Z 7c084fe0 f i cerr.obj
 0001:00003fe5       ??Y?$basic_string@DU?$char_traits@D@std@@V?$allocator@D@2@@std@@QAEAAV01@D@Z 7c084fe5 f i cerr.obj
 0001:00003ff3       ??Y?$basic_string@DU?$char_traits@D@std@@V?$allocator@D@2@@std@@QAEAAV01@ABV01@@Z 7c084ff3 f i cerr.obj
 0001:00003ff3       ?append@?$basic_string@DU?$char_traits@D@std@@V?$allocator@D@2@@std@@QAEAAV12@ABV12@@Z 7c084ff3 f i cerr.obj
 0001:00004003       ?append@?$basic_string@DU?$char_traits@D@std@@V?$allocator@D@2@@std@@QAEAAV12@Vconst_iterator@12@0@Z 7c085003 f i cerr.obj
 0001:00004003       ?append@?$basic_string@DU?$char_traits@D@std@@V?$allocator@D@2@@std@@QAEAAV12@PBD0@Z 7c085003 f i cerr.obj
 0001:00004039       ??4?$basic_string@DU?$char_traits@D@std@@V?$allocator@D@2@@std@@QAEAAV01@ABV01@@Z 7c085039 f i cerr.obj
 0001:00004039       ?assign@?$basic_string@DU?$char_traits@D@std@@V?$allocator@D@2@@std@@QAEAAV12@ABV12@@Z 7c085039 f i cerr.obj
 0001:00004049       ?assign@?$basic_string@DU?$char_traits@D@std@@V?$allocator@D@2@@std@@QAEAAV12@PBD0@Z 7c085049 f i cerr.obj
 0001:00004049       ?assign@?$basic_string@DU?$char_traits@D@std@@V?$allocator@D@2@@std@@QAEAAV12@Vconst_iterator@12@0@Z 7c085049 f i cerr.obj
 0001:0000407e       ?insert@?$basic_string@DU?$char_traits@D@std@@V?$allocator@D@2@@std@@QAEAAV12@IABV12@@Z 7c08507e f i cerr.obj
 0001:00004092       ?insert@?$basic_string@DU?$char_traits@D@std@@V?$allocator@D@2@@std@@QAE?AViterator@12@V312@@Z 7c085092 f i cerr.obj
 0001:000040a8       ?insert@?$basic_string@DU?$char_traits@D@std@@V?$allocator@D@2@@std@@QAEXViterator@12@PBD1@Z 7c0850a8 f i cerr.obj
 0001:000040a8       ?insert@?$basic_string@DU?$char_traits@D@std@@V?$allocator@D@2@@std@@QAEXViterator@12@Vconst_iterator@12@1@Z 7c0850a8 f i cerr.obj
 0001:000040c0       ?replace@?$basic_string@DU?$char_traits@D@std@@V?$allocator@D@2@@std@@QAEAAV12@IIABV12@@Z 7c0850c0 f i cerr.obj
 0001:000040d8       ?replace@?$basic_string@DU?$char_traits@D@std@@V?$allocator@D@2@@std@@QAEAAV12@Viterator@12@0ABV12@@Z 7c0850d8 f i cerr.obj
 0001:00004112       ?resize@?$basic_string@DU?$char_traits@D@std@@V?$allocator@D@2@@std@@QAEXI@Z 7c085112 f i cerr.obj
 0001:00004120       ?substr@?$basic_string@DU?$char_traits@D@std@@V?$allocator@D@2@@std@@QBE?AV12@II@Z 7c085120 f i cerr.obj
 0001:0000413e       ??0?$basic_ostream@DU?$char_traits@D@std@@@std@@QAE@PAV?$basic_streambuf@DU?$char_traits@D@std@@@1@_N@Z 7c08513e f i cerr.obj
 0001:000041a0       ?put@?$basic_ostream@DU?$char_traits@D@std@@@std@@QAEAAV12@D@Z 7c0851a0 f i cerr.obj
 0001:00004243       ?put@?$basic_ostream@_WU?$char_traits@_W@std@@@std@@QAEAAV12@_W@Z 7c085243 f i cerr.obj
 0001:00004243       ?put@?$basic_ostream@GU?$char_traits@G@std@@@std@@QAEAAV12@G@Z 7c085243 f i cerr.obj
 0001:000042ea       ?overflow@?$basic_filebuf@DU?$char_traits@D@std@@@std@@MAEHH@Z 7c0852ea f i cerr.obj
 0001:00004475       ?imbue@?$basic_filebuf@DU?$char_traits@D@std@@@std@@MAEXABVlocale@2@@Z 7c085475 f i cerr.obj
 0001:0000448e       ?_Endwrite@?$basic_filebuf@DU?$char_traits@D@std@@@std@@IAE_NXZ 7c08548e f i cerr.obj
 0001:00004581       ?_Getname@_Locinfo@std@@QBE?AV?$basic_string@DU?$char_traits@D@std@@V?$allocator@D@2@@2@XZ 7c085581 f i cerr.obj
 0001:0000459c       ?_Getdays@_Locinfo@std@@QBEPBDXZ 7c08559c f i cerr.obj
 0001:000045da       ?_Getmonths@_Locinfo@std@@QBEPBDXZ 7c0855da f i cerr.obj
 0001:00004618       ?name@locale@std@@QBE?AV?$basic_string@DU?$char_traits@D@std@@V?$allocator@D@2@@2@XZ 7c085618 f i cerr.obj
 0001:00004635       ?endl@std@@YAAAV?$basic_ostream@DU?$char_traits@D@std@@@1@AAV21@@Z 7c085635 f i cerr.obj
 0001:0000464e       ?endl@std@@YAAAV?$basic_ostream@_WU?$char_traits@_W@std@@@1@AAV21@@Z 7c08564e f i cerr.obj
 0001:0000464e       ?endl@std@@YAAAV?$basic_ostream@GU?$char_traits@G@std@@@1@AAV21@@Z 7c08564e f i cerr.obj
 0001:00004667       ?ends@std@@YAAAV?$basic_ostream@DU?$char_traits@D@std@@@1@AAV21@@Z 7c085667 f i cerr.obj
 0001:00004677       ?ends@std@@YAAAV?$basic_ostream@GU?$char_traits@G@std@@@1@AAV21@@Z 7c085677 f i cerr.obj
 0001:00004677       ?ends@std@@YAAAV?$basic_ostream@_WU?$char_traits@_W@std@@@1@AAV21@@Z 7c085677 f i cerr.obj
 0001:00004687       ?seekoff@?$basic_filebuf@DU?$char_traits@D@std@@@std@@MAE?AV?$fpos@H@2@JHH@Z 7c085687 f i cerr.obj
 0001:00004782       ?seekpos@?$basic_filebuf@DU?$char_traits@D@std@@@std@@MAE?AV?$fpos@H@2@V32@H@Z 7c085782 f i cerr.obj
 0001:00004853       ?close@?$basic_filebuf@DU?$char_traits@D@std@@@std@@QAEPAV12@XZ 7c085853 f i cerr.obj
 0001:000048a1       ??1?$basic_filebuf@DU?$char_traits@D@std@@@std@@UAE@XZ 7c0858a1 f i cerr.obj
 0001:000048ed       ??1?$basic_istream@DU?$char_traits@D@std@@@std@@UAE@XZ 7c0858ed f i cin.obj
 0001:000048fc       ??_D?$basic_istream@DU?$char_traits@D@std@@@std@@QAEXXZ 7c0858fc f i cin.obj
 0001:00004917       ??0_Init_cin@std@@QAE@XZ   7c085917 f i cin.obj
 0001:00004939       ??0?$basic_istream@DU?$char_traits@D@std@@@std@@QAE@PAV?$basic_streambuf@DU?$char_traits@D@std@@@1@_N1@Z 7c085939 f i cin.obj
 0001:000049a3       ??0_Init_clog@std@@QAE@XZ  7c0859a3 f i clog.obj
 0001:000049c5       ??0_Init_cout@std@@QAE@XZ  7c0859c5 f i cout.obj
 0001:00004a1a       ?_Fiopen@std@@YAPAU_iobuf@@PBDHH@Z 7c085a1a f   fiopen.obj
 0001:00004abe       _atan2l                    7c085abe f i instances.obj
 0001:00004abe       ?atan2@?$_Ctraits@N@std@@SANNN@Z 7c085abe f i instances.obj
 0001:00004ad9       _powl                      7c085ad9 f i instances.obj
 0001:00004ad9       ?pow@?$_Ctraits@N@std@@SANNN@Z 7c085ad9 f i instances.obj
 0001:00004af4       _ldexpf                    7c085af4 f i instances.obj
 0001:00004b13       _atan2f                    7c085b13 f i instances.obj
 0001:00004b36       _cosf                      7c085b36 f i instances.obj
 0001:00004b50       _expf                      7c085b50 f i instances.obj
 0001:00004b6a       _logf                      7c085b6a f i instances.obj
 0001:00004b84       _powf                      7c085b84 f i instances.obj
 0001:00004ba7       _sinf                      7c085ba7 f i instances.obj
 0001:00004bc1       _sqrtf                     7c085bc1 f i instances.obj
 0001:00004bdb       _tanf                      7c085bdb f i instances.obj
 0001:00004bf5       ??$_Maklocbyte@_W@std@@YAD_WABU_Cvtvec@@@Z 7c085bf5 f i instances.obj
 0001:00004bf5       ??$_Maklocbyte@G@std@@YADGABU_Cvtvec@@@Z 7c085bf5 f i instances.obj
 0001:00004c1d       ??$_Maklocchr@_W@std@@YA_WDPA_WABU_Cvtvec@@@Z 7c085c1d f i instances.obj
 0001:00004c1d       ??$_Maklocchr@G@std@@YAGDPAGABU_Cvtvec@@@Z 7c085c1d f i instances.obj
 0001:00004c49       ??$_Maklocstr@G@std@@YAPAGPBDPAGABU_Cvtvec@@@Z 7c085c49 f i instances.obj
 0001:00004c49       ??$_Maklocstr@_W@std@@YAPA_WPBDPA_WABU_Cvtvec@@@Z 7c085c49 f i instances.obj
 0001:00004cd6       ?_Cosh@?$_Ctraits@O@std@@SAOOO@Z 7c085cd6 f i instances.obj
 0001:00004cf1       ?_Exp@?$_Ctraits@O@std@@SAFPAOOF@Z 7c085cf1 f i instances.obj
 0001:00004d0b       ?_Isinf@?$_Ctraits@O@std@@SA_NO@Z 7c085d0b f i instances.obj
 0001:00004d1f       ?_Isnan@?$_Ctraits@O@std@@SA_NO@Z 7c085d1f f i instances.obj
 0001:00004d35       ?_Sinh@?$_Ctraits@O@std@@SAOOO@Z 7c085d35 f i instances.obj
 0001:00004d50       ?atan2@?$_Ctraits@O@std@@SAOOO@Z 7c085d50 f i instances.obj
 0001:00004d6b       ?ldexp@?$_Ctraits@O@std@@SAOOH@Z 7c085d6b f i instances.obj
 0001:00004d81       ?pow@?$_Ctraits@O@std@@SAOOO@Z 7c085d81 f i instances.obj
 0001:00004d9c       ?sin@?$_Ctraits@O@std@@SAOO@Z 7c085d9c f i instances.obj
 0001:00004d9c       ?sin@?$_Ctraits@N@std@@SANN@Z 7c085d9c f i instances.obj
 0001:00004dad       ?sqrt@?$_Ctraits@O@std@@SAOO@Z 7c085dad f i instances.obj
 0001:00004dad       ?sqrt@?$_Ctraits@N@std@@SANN@Z 7c085dad f i instances.obj
 0001:00004dbe       ?tan@?$_Ctraits@O@std@@SAOO@Z 7c085dbe f i instances.obj
 0001:00004dbe       ?tan@?$_Ctraits@N@std@@SANN@Z 7c085dbe f i instances.obj
 0001:00004dcf       ?_Cosh@?$_Ctraits@N@std@@SANNN@Z 7c085dcf f i instances.obj
 0001:00004dea       ?_Exp@?$_Ctraits@N@std@@SAFPANNF@Z 7c085dea f i instances.obj
 0001:00004e04       ?_Isinf@?$_Ctraits@N@std@@SA_NN@Z 7c085e04 f i instances.obj
 0001:00004e18       ?_Isnan@?$_Ctraits@N@std@@SA_NN@Z 7c085e18 f i instances.obj
 0001:00004e2e       ?_Sinh@?$_Ctraits@N@std@@SANNN@Z 7c085e2e f i instances.obj
 0001:00004e49       ?cos@?$_Ctraits@N@std@@SANN@Z 7c085e49 f i instances.obj
 0001:00004e49       ?cos@?$_Ctraits@O@std@@SAOO@Z 7c085e49 f i instances.obj
 0001:00004e5a       ?exp@?$_Ctraits@N@std@@SANN@Z 7c085e5a f i instances.obj
 0001:00004e5a       ?exp@?$_Ctraits@O@std@@SAOO@Z 7c085e5a f i instances.obj
 0001:00004e6b       _ldexpl                    7c085e6b f i instances.obj
 0001:00004e6b       ?ldexp@?$_Ctraits@N@std@@SANNH@Z 7c085e6b f i instances.obj
 0001:00004e82       ?log@?$_Ctraits@N@std@@SANN@Z 7c085e82 f i instances.obj
 0001:00004e82       ?log@?$_Ctraits@O@std@@SAOO@Z 7c085e82 f i instances.obj
 0001:00004e93       ?_Cosh@?$_Ctraits@M@std@@SAMMM@Z 7c085e93 f i instances.obj
 0001:00004eac       ?_Exp@?$_Ctraits@M@std@@SAFPAMMF@Z 7c085eac f i instances.obj
 0001:00004ec5       ?_Isinf@?$_Ctraits@M@std@@SA_NM@Z 7c085ec5 f i instances.obj
 0001:00004ed9       ?_Isnan@?$_Ctraits@M@std@@SA_NM@Z 7c085ed9 f i instances.obj
 0001:00004eef       ?_Sinh@?$_Ctraits@M@std@@SAMMM@Z 7c085eef f i instances.obj
 0001:00004f08       ?atan2@?$_Ctraits@M@std@@SAMMM@Z 7c085f08 f i instances.obj
 0001:00004f21       ?cos@?$_Ctraits@M@std@@SAMM@Z 7c085f21 f i instances.obj
 0001:00004f30       ?exp@?$_Ctraits@M@std@@SAMM@Z 7c085f30 f i instances.obj
 0001:00004f3f       ?ldexp@?$_Ctraits@M@std@@SAMMH@Z 7c085f3f f i instances.obj
 0001:00004f53       ?log@?$_Ctraits@M@std@@SAMM@Z 7c085f53 f i instances.obj
 0001:00004f62       ?pow@?$_Ctraits@M@std@@SAMMM@Z 7c085f62 f i instances.obj
 0001:00004f7b       ?sin@?$_Ctraits@M@std@@SAMM@Z 7c085f7b f i instances.obj
 0001:00004f8a       ?sqrt@?$_Ctraits@M@std@@SAMM@Z 7c085f8a f i instances.obj
 0001:00004f99       ?tan@?$_Ctraits@M@std@@SAMM@Z 7c085f99 f i instances.obj
 0001:00004fa8       ??4?$complex@M@std@@QAEAAV01@ABM@Z 7c085fa8 f i instances.obj
 0001:00004fb9       ??Y?$complex@M@std@@QAEAAV01@ABM@Z 7c085fb9 f i instances.obj
 0001:00004fc8       ??Z?$complex@M@std@@QAEAAV01@ABM@Z 7c085fc8 f i instances.obj
 0001:00004fd7       ??X?$complex@M@std@@QAEAAV01@ABM@Z 7c085fd7 f i instances.obj
 0001:00004fee       ??_0?$complex@M@std@@QAEAAV01@ABM@Z 7c085fee f i instances.obj
 0001:00005005       ??4?$complex@O@std@@QAEAAV01@ABO@Z 7c086005 f i instances.obj
 0001:00005005       ??4?$complex@N@std@@QAEAAV01@ABN@Z 7c086005 f i instances.obj
 0001:00005017       ??X?$complex@O@std@@QAEAAV01@ABO@Z 7c086017 f i instances.obj
 0001:00005017       ??X?$complex@N@std@@QAEAAV01@ABN@Z 7c086017 f i instances.obj
 0001:0000502e       ??_0?$complex@N@std@@QAEAAV01@ABN@Z 7c08602e f i instances.obj
 0001:0000502e       ??_0?$complex@O@std@@QAEAAV01@ABO@Z 7c08602e f i instances.obj
 0001:00005045       ??Y?$complex@O@std@@QAEAAV01@ABO@Z 7c086045 f i instances.obj
 0001:00005045       ??Y?$complex@N@std@@QAEAAV01@ABN@Z 7c086045 f i instances.obj
 0001:00005054       ??Z?$complex@N@std@@QAEAAV01@ABN@Z 7c086054 f i instances.obj
 0001:00005054       ??Z?$complex@O@std@@QAEAAV01@ABO@Z 7c086054 f i instances.obj
 0001:00005063       ??4?$_Complex_base@OU_C_ldouble_complex@@@std@@QAEAAV01@ABV01@@Z 7c086063 f i instances.obj
 0001:00005063       ??4?$_Complex_base@NU_C_double_complex@@@std@@QAEAAV01@ABV01@@Z 7c086063 f i instances.obj
 0001:00005076       ??$_Fgetc@_W@std@@YA_NAA_WPAU_iobuf@@@Z 7c086076 f i instances.obj
 0001:00005076       ??$_Fgetc@G@std@@YA_NAAGPAU_iobuf@@@Z 7c086076 f i instances.obj
 0001:00005097       ??$_Fputc@_W@std@@YA_N_WPAU_iobuf@@@Z 7c086097 f i instances.obj
 0001:00005097       ??$_Fputc@G@std@@YA_NGPAU_iobuf@@@Z 7c086097 f i instances.obj
 0001:000050b3       ??$_Ungetc@_W@std@@YA_NAB_WPAU_iobuf@@@Z 7c0860b3 f i instances.obj
 0001:000050b3       ??$_Ungetc@G@std@@YA_NABGPAU_iobuf@@@Z 7c0860b3 f i instances.obj
 0001:000050d3       ?min@?$numeric_limits@C@std@@SACXZ 7c0860d3 f i instances.obj
 0001:000050d3       ?min@?$numeric_limits@D@std@@SADXZ 7c0860d3 f i instances.obj
 0001:000050d6       ?max@?$numeric_limits@C@std@@SACXZ 7c0860d6 f i instances.obj
 0001:000050d6       ?max@?$numeric_limits@D@std@@SADXZ 7c0860d6 f i instances.obj
 0001:000050d9       ?do_always_noconv@?$codecvt@GDH@std@@MBE_NXZ 7c0860d9 f i cerr.obj
 0001:000050d9       ?denorm_min@?$numeric_limits@_N@std@@SA_NXZ 7c0860d9 f i instances.obj
 0001:000050d9       ?infinity@?$numeric_limits@_N@std@@SA_NXZ 7c0860d9 f i instances.obj
 0001:000050d9       ?denorm_min@?$numeric_limits@C@std@@SACXZ 7c0860d9 f i instances.obj
 0001:000050d9       ?denorm_min@?$numeric_limits@E@std@@SAEXZ 7c0860d9 f i instances.obj
 0001:000050d9       ?signaling_NaN@?$numeric_limits@_N@std@@SA_NXZ 7c0860d9 f i instances.obj
 0001:000050d9       ?signaling_NaN@?$numeric_limits@D@std@@SADXZ 7c0860d9 f i instances.obj
 0001:000050d9       ?min@?$numeric_limits@E@std@@SAEXZ 7c0860d9 f i instances.obj
 0001:000050d9       ?epsilon@?$numeric_limits@D@std@@SADXZ 7c0860d9 f i instances.obj
 0001:000050d9       ?epsilon@?$numeric_limits@E@std@@SAEXZ 7c0860d9 f i instances.obj
 0001:000050d9       ?round_error@?$numeric_limits@C@std@@SACXZ 7c0860d9 f i instances.obj
 0001:000050d9       ?quiet_NaN@?$numeric_limits@C@std@@SACXZ 7c0860d9 f i instances.obj
 0001:000050d9       ?signaling_NaN@?$numeric_limits@C@std@@SACXZ 7c0860d9 f i instances.obj
 0001:000050d9       ?round_error@?$numeric_limits@D@std@@SADXZ 7c0860d9 f i instances.obj
 0001:000050d9       ?denorm_min@?$numeric_limits@D@std@@SADXZ 7c0860d9 f i instances.obj
 0001:000050d9       ?signaling_NaN@?$numeric_limits@E@std@@SAEXZ 7c0860d9 f i instances.obj
 0001:000050d9       ?infinity@?$numeric_limits@E@std@@SAEXZ 7c0860d9 f i instances.obj
 0001:000050d9       ?min@?$numeric_limits@_N@std@@SA_NXZ 7c0860d9 f i instances.obj
 0001:000050d9       ?quiet_NaN@?$numeric_limits@E@std@@SAEXZ 7c0860d9 f i instances.obj
 0001:000050d9       ?round_error@?$numeric_limits@_N@std@@SA_NXZ 7c0860d9 f i instances.obj
 0001:000050d9       ?do_always_noconv@?$codecvt@_WDH@std@@MBE_NXZ 7c0860d9 f i cerr.obj
 0001:000050d9       ?epsilon@?$numeric_limits@C@std@@SACXZ 7c0860d9 f i instances.obj
 0001:000050d9       ?epsilon@?$numeric_limits@_N@std@@SA_NXZ 7c0860d9 f i instances.obj
 0001:000050d9       ?round_error@?$numeric_limits@E@std@@SAEXZ 7c0860d9 f i instances.obj
 0001:000050d9       ?quiet_NaN@?$numeric_limits@D@std@@SADXZ 7c0860d9 f i instances.obj
 0001:000050d9       ?quiet_NaN@?$numeric_limits@_N@std@@SA_NXZ 7c0860d9 f i instances.obj
 0001:000050d9       ?infinity@?$numeric_limits@D@std@@SADXZ 7c0860d9 f i instances.obj
 0001:000050d9       ?infinity@?$numeric_limits@C@std@@SACXZ 7c0860d9 f i instances.obj
 0001:000050dc       ?max@?$numeric_limits@_N@std@@SA_NXZ 7c0860dc f i instances.obj
 0001:000050dc       ?do_always_noconv@codecvt_base@std@@MBE_NXZ 7c0860dc f i cerr.obj
 0001:000050df       ?max@?$numeric_limits@E@std@@SAEXZ 7c0860df f i instances.obj
 0001:000050e2       ?min@?$numeric_limits@F@std@@SAFXZ 7c0860e2 f i instances.obj
 0001:000050e7       ?max@?$numeric_limits@F@std@@SAFXZ 7c0860e7 f i instances.obj
 0001:000050ec       ?min@?$numeric_limits@G@std@@SAGXZ 7c0860ec f i instances.obj
 0001:000050ec       ?quiet_NaN@?$numeric_limits@_W@std@@SA_WXZ 7c0860ec f i instances.obj
 0001:000050ec       ?signaling_NaN@?$numeric_limits@_W@std@@SA_WXZ 7c0860ec f i instances.obj
 0001:000050ec       ?signaling_NaN@?$numeric_limits@F@std@@SAFXZ 7c0860ec f i instances.obj
 0001:000050ec       ?quiet_NaN@?$numeric_limits@G@std@@SAGXZ 7c0860ec f i instances.obj
 0001:000050ec       ?denorm_min@?$numeric_limits@G@std@@SAGXZ 7c0860ec f i instances.obj
 0001:000050ec       ?round_error@?$numeric_limits@_W@std@@SA_WXZ 7c0860ec f i instances.obj
 0001:000050ec       ?quiet_NaN@?$numeric_limits@F@std@@SAFXZ 7c0860ec f i instances.obj
 0001:000050ec       ?signaling_NaN@?$numeric_limits@G@std@@SAGXZ 7c0860ec f i instances.obj
 0001:000050ec       ?min@?$numeric_limits@_W@std@@SA_WXZ 7c0860ec f i instances.obj
 0001:000050ec       ?denorm_min@?$numeric_limits@F@std@@SAFXZ 7c0860ec f i instances.obj
 0001:000050ec       ?epsilon@?$numeric_limits@_W@std@@SA_WXZ 7c0860ec f i instances.obj
 0001:000050ec       ?infinity@?$numeric_limits@G@std@@SAGXZ 7c0860ec f i instances.obj
 0001:000050ec       ?round_error@?$numeric_limits@G@std@@SAGXZ 7c0860ec f i instances.obj
 0001:000050ec       ?round_error@?$numeric_limits@F@std@@SAFXZ 7c0860ec f i instances.obj
 0001:000050ec       ?infinity@?$numeric_limits@_W@std@@SA_WXZ 7c0860ec f i instances.obj
 0001:000050ec       ?epsilon@?$numeric_limits@F@std@@SAFXZ 7c0860ec f i instances.obj
 0001:000050ec       ?infinity@?$numeric_limits@F@std@@SAFXZ 7c0860ec f i instances.obj
 0001:000050ec       ?epsilon@?$numeric_limits@G@std@@SAGXZ 7c0860ec f i instances.obj
 0001:000050ec       ?denorm_min@?$numeric_limits@_W@std@@SA_WXZ 7c0860ec f i instances.obj
 0001:000050f0       ?min@?$numeric_limits@H@std@@SAHXZ 7c0860f0 f i instances.obj
 0001:000050f0       ?min@?$numeric_limits@J@std@@SAJXZ 7c0860f0 f i instances.obj
 0001:000050f6       ?max@?$numeric_limits@I@std@@SAIXZ 7c0860f6 f i instances.obj
 0001:000050f6       ?_Getcat@facet@locale@std@@SAIPAPBV123@@Z 7c0860f6 f i cerr.obj
 0001:000050f6       ?max@?$numeric_limits@K@std@@SAKXZ 7c0860f6 f i instances.obj
 0001:000050f6       ?underflow@?$basic_streambuf@DU?$char_traits@D@std@@@std@@MAEHXZ 7c0860f6 f i cerr.obj
 0001:000050f6       ?eof@?$char_traits@D@std@@SAHXZ 7c0860f6 f i cerr.obj
 0001:000050fa       ?max@?$numeric_limits@H@std@@SAHXZ 7c0860fa f i instances.obj
 0001:000050fa       ?max@?$numeric_limits@J@std@@SAJXZ 7c0860fa f i instances.obj
 0001:00005100       ?round_error@?$numeric_limits@H@std@@SAHXZ 7c086100 f i instances.obj
 0001:00005100       ?round_error@?$numeric_limits@J@std@@SAJXZ 7c086100 f i instances.obj
 0001:00005100       ?showmanyc@?$basic_streambuf@GU?$char_traits@G@std@@@std@@MAEHXZ 7c086100 f i instances.obj
 0001:00005100       ?sync@?$basic_streambuf@_WU?$char_traits@_W@std@@@std@@MAEHXZ 7c086100 f i instances.obj
 0001:00005100       ?do_encoding@?$codecvt@_WDH@std@@MBEHXZ 7c086100 f i cerr.obj
 0001:00005100       ?infinity@?$numeric_limits@K@std@@SAKXZ 7c086100 f i instances.obj
 0001:00005100       ?signaling_NaN@?$numeric_limits@H@std@@SAHXZ 7c086100 f i instances.obj
 0001:00005100       ?showmanyc@?$basic_streambuf@_WU?$char_traits@_W@std@@@std@@MAEHXZ 7c086100 f i instances.obj
 0001:00005100       ?denorm_min@?$numeric_limits@K@std@@SAKXZ 7c086100 f i instances.obj
 0001:00005100       ?quiet_NaN@?$numeric_limits@I@std@@SAIXZ 7c086100 f i instances.obj
 0001:00005100       ?round_error@?$numeric_limits@I@std@@SAIXZ 7c086100 f i instances.obj
 0001:00005100       ?signaling_NaN@?$numeric_limits@I@std@@SAIXZ 7c086100 f i instances.obj
 0001:00005100       ?infinity@?$numeric_limits@J@std@@SAJXZ 7c086100 f i instances.obj
 0001:00005100       ?signaling_NaN@?$numeric_limits@K@std@@SAKXZ 7c086100 f i instances.obj
 0001:00005100       ?sync@?$basic_streambuf@DU?$char_traits@D@std@@@std@@MAEHXZ 7c086100 f i cerr.obj
 0001:00005100       ?denorm_min@?$numeric_limits@H@std@@SAHXZ 7c086100 f i instances.obj
 0001:00005100       ?epsilon@?$numeric_limits@J@std@@SAJXZ 7c086100 f i instances.obj
 0001:00005100       ?epsilon@?$numeric_limits@H@std@@SAHXZ 7c086100 f i instances.obj
 0001:00005100       ?epsilon@?$numeric_limits@K@std@@SAKXZ 7c086100 f i instances.obj
 0001:00005100       ?round_error@?$numeric_limits@K@std@@SAKXZ 7c086100 f i instances.obj
 0001:00005100       ?showmanyc@?$basic_streambuf@DU?$char_traits@D@std@@@std@@MAEHXZ 7c086100 f i cerr.obj
 0001:00005100       ?infinity@?$numeric_limits@I@std@@SAIXZ 7c086100 f i instances.obj
 0001:00005100       ?denorm_min@?$numeric_limits@J@std@@SAJXZ 7c086100 f i instances.obj
 0001:00005100       ?signaling_NaN@?$numeric_limits@J@std@@SAJXZ 7c086100 f i instances.obj
 0001:00005100       ?infinity@?$numeric_limits@H@std@@SAHXZ 7c086100 f i instances.obj
 0001:00005100       ?min@?$numeric_limits@K@std@@SAKXZ 7c086100 f i instances.obj
 0001:00005100       ?sync@?$basic_streambuf@GU?$char_traits@G@std@@@std@@MAEHXZ 7c086100 f i instances.obj
 0001:00005100       ?epsilon@?$numeric_limits@I@std@@SAIXZ 7c086100 f i instances.obj
 0001:00005100       ?quiet_NaN@?$numeric_limits@H@std@@SAHXZ 7c086100 f i instances.obj
 0001:00005100       ?quiet_NaN@?$numeric_limits@J@std@@SAJXZ 7c086100 f i instances.obj
 0001:00005100       ?denorm_min@?$numeric_limits@I@std@@SAIXZ 7c086100 f i instances.obj
 0001:00005100       ?do_encoding@?$codecvt@GDH@std@@MBEHXZ 7c086100 f i cerr.obj
 0001:00005100       ?quiet_NaN@?$numeric_limits@K@std@@SAKXZ 7c086100 f i instances.obj
 0001:00005100       ?min@?$numeric_limits@I@std@@SAIXZ 7c086100 f i instances.obj
 0001:00005103       ?min@?$numeric_limits@_J@std@@SA_JXZ 7c086103 f i instances.obj
 0001:0000510b       ?max@?$numeric_limits@_J@std@@SA_JXZ 7c08610b f i instances.obj
 0001:00005114       ?signaling_NaN@?$numeric_limits@_K@std@@SA_KXZ 7c086114 f i instances.obj
 0001:00005114       ?min@?$numeric_limits@_K@std@@SA_KXZ 7c086114 f i instances.obj
 0001:00005114       ?signaling_NaN@?$numeric_limits@_J@std@@SA_JXZ 7c086114 f i instances.obj
 0001:00005114       ?quiet_NaN@?$numeric_limits@_J@std@@SA_JXZ 7c086114 f i instances.obj
 0001:00005114       ?denorm_min@?$numeric_limits@_J@std@@SA_JXZ 7c086114 f i instances.obj
 0001:00005114       ?round_error@?$numeric_limits@_K@std@@SA_KXZ 7c086114 f i instances.obj
 0001:00005114       ?denorm_min@?$numeric_limits@_K@std@@SA_KXZ 7c086114 f i instances.obj
 0001:00005114       ?quiet_NaN@?$numeric_limits@_K@std@@SA_KXZ 7c086114 f i instances.obj
 0001:00005114       ?infinity@?$numeric_limits@_J@std@@SA_JXZ 7c086114 f i instances.obj
 0001:00005114       ?epsilon@?$numeric_limits@_K@std@@SA_KXZ 7c086114 f i instances.obj
 0001:00005114       ?infinity@?$numeric_limits@_K@std@@SA_KXZ 7c086114 f i instances.obj
 0001:00005114       ?round_error@?$numeric_limits@_J@std@@SA_JXZ 7c086114 f i instances.obj
 0001:00005114       ?epsilon@?$numeric_limits@_J@std@@SA_JXZ 7c086114 f i instances.obj
 0001:00005119       ?max@?$numeric_limits@_K@std@@SA_KXZ 7c086119 f i instances.obj
 0001:0000511f       ?min@?$numeric_limits@M@std@@SAMXZ 7c08611f f i instances.obj
 0001:00005126       ?max@?$numeric_limits@M@std@@SAMXZ 7c086126 f i instances.obj
 0001:0000512d       ?epsilon@?$numeric_limits@M@std@@SAMXZ 7c08612d f i instances.obj
 0001:00005134       ?round_error@?$numeric_limits@M@std@@SAMXZ 7c086134 f i instances.obj
 0001:0000513b       ?denorm_min@?$numeric_limits@M@std@@SAMXZ 7c08613b f i instances.obj
 0001:00005142       ?infinity@?$numeric_limits@M@std@@SAMXZ 7c086142 f i instances.obj
 0001:00005142       ?_Infv@?$_Ctraits@M@std@@SAMM@Z 7c086142 f i instances.obj
 0001:00005149       ?_Nanv@?$_Ctraits@M@std@@SAMM@Z 7c086149 f i instances.obj
 0001:00005149       ?quiet_NaN@?$numeric_limits@M@std@@SAMXZ 7c086149 f i instances.obj
 0001:00005150       ?signaling_NaN@?$numeric_limits@M@std@@SAMXZ 7c086150 f i instances.obj
 0001:00005157       ?min@?$numeric_limits@O@std@@SAOXZ 7c086157 f i instances.obj
 0001:00005157       ?min@?$numeric_limits@N@std@@SANXZ 7c086157 f i instances.obj
 0001:0000515e       ?max@?$numeric_limits@O@std@@SAOXZ 7c08615e f i instances.obj
 0001:0000515e       ?max@?$numeric_limits@N@std@@SANXZ 7c08615e f i instances.obj
 0001:00005165       ?epsilon@?$numeric_limits@N@std@@SANXZ 7c086165 f i instances.obj
 0001:00005165       ?epsilon@?$numeric_limits@O@std@@SAOXZ 7c086165 f i instances.obj
 0001:0000516c       ?round_error@?$numeric_limits@N@std@@SANXZ 7c08616c f i instances.obj
 0001:0000516c       ?round_error@?$numeric_limits@O@std@@SAOXZ 7c08616c f i instances.obj
 0001:00005173       ?denorm_min@?$numeric_limits@N@std@@SANXZ 7c086173 f i instances.obj
 0001:0000517a       ?_Infv@?$_Ctraits@N@std@@SANN@Z 7c08617a f i instances.obj
 0001:0000517a       ?infinity@?$numeric_limits@N@std@@SANXZ 7c08617a f i instances.obj
 0001:00005181       ?_Nanv@?$_Ctraits@N@std@@SANN@Z 7c086181 f i instances.obj
 0001:00005181       ?quiet_NaN@?$numeric_limits@N@std@@SANXZ 7c086181 f i instances.obj
 0001:00005188       ?signaling_NaN@?$numeric_limits@N@std@@SANXZ 7c086188 f i instances.obj
 0001:0000518f       ?denorm_min@?$numeric_limits@O@std@@SAOXZ 7c08618f f i instances.obj
 0001:00005196       ?infinity@?$numeric_limits@O@std@@SAOXZ 7c086196 f i instances.obj
 0001:00005196       ?_Infv@?$_Ctraits@O@std@@SAOO@Z 7c086196 f i instances.obj
 0001:0000519d       ?quiet_NaN@?$numeric_limits@O@std@@SAOXZ 7c08619d f i instances.obj
 0001:0000519d       ?_Nanv@?$_Ctraits@O@std@@SAOO@Z 7c08619d f i instances.obj
 0001:000051a4       ?signaling_NaN@?$numeric_limits@O@std@@SAOXZ 7c0861a4 f i instances.obj
 0001:000051ab       ??0messages_base@std@@QAE@I@Z 7c0861ab f i instances.obj
 0001:000051bd       ??_Fmessages_base@std@@QAEXXZ 7c0861bd f i instances.obj
 0001:000051c8       ??0money_base@std@@QAE@I@Z 7c0861c8 f i instances.obj
 0001:000051da       ??_Fmoney_base@std@@QAEXXZ 7c0861da f i instances.obj
 0001:000051e5       ??_E?$codecvt@DDH@std@@MAEPAXI@Z 7c0861e5 f i instances.obj
 0001:000051e5       ??_Emessages_base@std@@UAEPAXI@Z 7c0861e5 f i instances.obj
 0001:000051e5       ??_Etime_base@std@@UAEPAXI@Z 7c0861e5 f i instances.obj
 0001:000051e5       ??_Ecodecvt_base@std@@UAEPAXI@Z 7c0861e5 f i cerr.obj
 0001:000051e5       ??_E?$messages@_W@std@@UAEPAXI@Z 7c0861e5 f i instances.obj
 0001:000051e5       ??_Efacet@locale@std@@UAEPAXI@Z 7c0861e5 f i cerr.obj
 0001:000051e5       ??_Ectype_base@std@@UAEPAXI@Z 7c0861e5 f i cerr.obj
 0001:000051e5       ??_E?$messages@D@std@@UAEPAXI@Z 7c0861e5 f i instances.obj
 0001:000051e5       ??_Emoney_base@std@@UAEPAXI@Z 7c0861e5 f i instances.obj
 0001:000051e5       ??_E?$messages@G@std@@UAEPAXI@Z 7c0861e5 f i instances.obj
 0001:0000522f       ??0time_base@std@@QAE@I@Z  7c08622f f i instances.obj
 0001:00005241       ??_Ftime_base@std@@QAEXXZ  7c086241 f i instances.obj
 0001:0000524c       ?empty@?$basic_string@_WU?$char_traits@_W@std@@V?$allocator@_W@2@@std@@QBE_NXZ 7c08624c f i instances.obj
 0001:0000524c       ?empty@?$basic_string@DU?$char_traits@D@std@@V?$allocator@D@2@@std@@QBE_NXZ 7c08624c f i cerr.obj
 0001:0000524c       ?empty@?$basic_string@GU?$char_traits@G@std@@V?$allocator@G@2@@std@@QBE_NXZ 7c08624c f i instances.obj
 0001:00005255       ?size@?$basic_string@GU?$char_traits@G@std@@V?$allocator@G@2@@std@@QBEIXZ 7c086255 f i instances.obj
 0001:00005255       ?length@?$basic_string@_WU?$char_traits@_W@std@@V?$allocator@_W@2@@std@@QBEIXZ 7c086255 f i instances.obj
 0001:00005255       ?length@?$basic_string@DU?$char_traits@D@std@@V?$allocator@D@2@@std@@QBEIXZ 7c086255 f i cerr.obj
 0001:00005255       ?length@?$basic_string@GU?$char_traits@G@std@@V?$allocator@G@2@@std@@QBEIXZ 7c086255 f i instances.obj
 0001:00005255       ?precision@ios_base@std@@QBEHXZ 7c086255 f i cerr.obj
 0001:00005255       ?size@?$basic_string@DU?$char_traits@D@std@@V?$allocator@D@2@@std@@QBEIXZ 7c086255 f i cerr.obj
 0001:00005255       ?size@?$basic_string@_WU?$char_traits@_W@std@@V?$allocator@_W@2@@std@@QBEIXZ 7c086255 f i instances.obj
 0001:00005259       ?capacity@?$basic_string@DU?$char_traits@D@std@@V?$allocator@D@2@@std@@QBEIXZ 7c086259 f i cerr.obj
 0001:00005259       ?capacity@?$basic_string@_WU?$char_traits@_W@std@@V?$allocator@_W@2@@std@@QBEIXZ 7c086259 f i instances.obj
 0001:00005259       ?width@ios_base@std@@QBEHXZ 7c086259 f i cerr.obj
 0001:00005259       ?capacity@?$basic_string@GU?$char_traits@G@std@@V?$allocator@G@2@@std@@QBEIXZ 7c086259 f i instances.obj
 0001:0000525d       ??0?$basic_streambuf@DU?$char_traits@D@std@@@std@@IAE@W4_Uninitialized@1@@Z 7c08625d f i instances.obj
 0001:00005274       ?pubseekoff@?$basic_streambuf@_WU?$char_traits@_W@std@@@std@@QAE?AV?$fpos@H@2@JHH@Z 7c086274 f i instances.obj
 0001:00005274       ?pubseekoff@?$basic_streambuf@DU?$char_traits@D@std@@@std@@QAE?AV?$fpos@H@2@JHH@Z 7c086274 f i instances.obj
 0001:00005274       ?pubseekoff@?$basic_streambuf@GU?$char_traits@G@std@@@std@@QAE?AV?$fpos@H@2@JHH@Z 7c086274 f i instances.obj
 0001:0000528f       ?setp@?$basic_streambuf@DU?$char_traits@D@std@@@std@@IAEXPAD00@Z 7c08628f f i instances.obj
 0001:000052af       ??0?$basic_streambuf@_WU?$char_traits@_W@std@@@std@@IAE@W4_Uninitialized@1@@Z 7c0862af f i instances.obj
 0001:000052c6       ?getloc@?$basic_streambuf@GU?$char_traits@G@std@@@std@@QBE?AVlocale@2@XZ 7c0862c6 f i instances.obj
 0001:000052c6       ?getloc@?$basic_streambuf@_WU?$char_traits@_W@std@@@std@@QBE?AVlocale@2@XZ 7c0862c6 f i instances.obj
 0001:000052c6       ?getloc@?$basic_streambuf@DU?$char_traits@D@std@@@std@@QBE?AVlocale@2@XZ 7c0862c6 f i instances.obj
 0001:000052e0       ?setp@?$basic_streambuf@GU?$char_traits@G@std@@@std@@IAEXPAG0@Z 7c0862e0 f i instances.obj
 0001:000052e0       ?setp@?$basic_streambuf@_WU?$char_traits@_W@std@@@std@@IAEXPA_W0@Z 7c0862e0 f i instances.obj
 0001:000052fe       ?_Init@?$basic_streambuf@GU?$char_traits@G@std@@@std@@IAEXXZ 7c0862fe f i instances.obj
 0001:000052fe       ?_Init@?$basic_streambuf@DU?$char_traits@D@std@@@std@@IAEXXZ 7c0862fe f i cerr.obj
 0001:000052fe       ?_Init@?$basic_streambuf@_WU?$char_traits@_W@std@@@std@@IAEXXZ 7c0862fe f i instances.obj
 0001:00005340       ?overflow@?$basic_streambuf@_WU?$char_traits@_W@std@@@std@@MAEGG@Z 7c086340 f i instances.obj
 0001:00005340       ?overflow@?$basic_streambuf@GU?$char_traits@G@std@@@std@@MAEGG@Z 7c086340 f i instances.obj
 0001:00005340       ?pbackfail@?$basic_streambuf@_WU?$char_traits@_W@std@@@std@@MAEGG@Z 7c086340 f i instances.obj
 0001:00005340       ?pbackfail@?$basic_streambuf@GU?$char_traits@G@std@@@std@@MAEGG@Z 7c086340 f i instances.obj
 0001:00005347       ?max@?$numeric_limits@G@std@@SAGXZ 7c086347 f i instances.obj
 0001:00005347       ?eof@?$char_traits@G@std@@SAGXZ 7c086347 f i cerr.obj
 0001:00005347       ?underflow@?$basic_streambuf@GU?$char_traits@G@std@@@std@@MAEGXZ 7c086347 f i instances.obj
 0001:00005347       ?eof@?$char_traits@_W@std@@SAGXZ 7c086347 f i cerr.obj
 0001:00005347       ?underflow@?$basic_streambuf@_WU?$char_traits@_W@std@@@std@@MAEGXZ 7c086347 f i instances.obj
 0001:00005347       ?max@?$numeric_limits@_W@std@@SA_WXZ 7c086347 f i instances.obj
 0001:0000534c       ?xsputn@?$basic_streambuf@_WU?$char_traits@_W@std@@@std@@MAEHPB_WH@Z 7c08634c f i instances.obj
 0001:0000534c       ?xsputn@?$basic_streambuf@GU?$char_traits@G@std@@@std@@MAEHPBGH@Z 7c08634c f i instances.obj
 0001:000053cb       ??0?$basic_streambuf@GU?$char_traits@G@std@@@std@@IAE@W4_Uninitialized@1@@Z 7c0863cb f i instances.obj
 0001:000053e2       ?pubseekoff@?$basic_streambuf@_WU?$char_traits@_W@std@@@std@@QAE?AV?$fpos@H@2@JII@Z 7c0863e2 f i instances.obj
 0001:000053e2       ?pubseekoff@?$basic_streambuf@DU?$char_traits@D@std@@@std@@QAE?AV?$fpos@H@2@JII@Z 7c0863e2 f i instances.obj
 0001:000053e2       ?pubseekoff@?$basic_streambuf@GU?$char_traits@G@std@@@std@@QAE?AV?$fpos@H@2@JII@Z 7c0863e2 f i instances.obj
 0001:000053fd       ?pubseekpos@?$basic_streambuf@_WU?$char_traits@_W@std@@@std@@QAE?AV?$fpos@H@2@V32@H@Z 7c0863fd f i instances.obj
 0001:000053fd       ?pubseekpos@?$basic_streambuf@GU?$char_traits@G@std@@@std@@QAE?AV?$fpos@H@2@V32@I@Z 7c0863fd f i instances.obj
 0001:000053fd       ?pubseekpos@?$basic_streambuf@GU?$char_traits@G@std@@@std@@QAE?AV?$fpos@H@2@V32@H@Z 7c0863fd f i instances.obj
 0001:000053fd       ?pubseekpos@?$basic_streambuf@DU?$char_traits@D@std@@@std@@QAE?AV?$fpos@H@2@V32@I@Z 7c0863fd f i instances.obj
 0001:000053fd       ?pubseekpos@?$basic_streambuf@DU?$char_traits@D@std@@@std@@QAE?AV?$fpos@H@2@V32@H@Z 7c0863fd f i instances.obj
 0001:000053fd       ?pubseekpos@?$basic_streambuf@_WU?$char_traits@_W@std@@@std@@QAE?AV?$fpos@H@2@V32@I@Z 7c0863fd f i instances.obj
 0001:00005427       ?pubimbue@?$basic_streambuf@DU?$char_traits@D@std@@@std@@QAE?AVlocale@2@ABV32@@Z 7c086427 f i instances.obj
 0001:00005427       ?pubimbue@?$basic_streambuf@GU?$char_traits@G@std@@@std@@QAE?AVlocale@2@ABV32@@Z 7c086427 f i instances.obj
 0001:00005427       ?pubimbue@?$basic_streambuf@_WU?$char_traits@_W@std@@@std@@QAE?AVlocale@2@ABV32@@Z 7c086427 f i instances.obj
 0001:00005476       ?pbase@?$basic_streambuf@_WU?$char_traits@_W@std@@@std@@IBEPA_WXZ 7c086476 f i instances.obj
 0001:00005476       ?pbase@?$basic_streambuf@DU?$char_traits@D@std@@@std@@IBEPADXZ 7c086476 f i instances.obj
 0001:00005476       ?pbase@?$basic_streambuf@GU?$char_traits@G@std@@@std@@IBEPAGXZ 7c086476 f i instances.obj
 0001:0000547c       ?gbump@?$basic_streambuf@GU?$char_traits@G@std@@@std@@IAEXH@Z 7c08647c f i instances.obj
 0001:0000547c       ?gbump@?$basic_streambuf@_WU?$char_traits@_W@std@@@std@@IAEXH@Z 7c08647c f i instances.obj
 0001:00005490       ?setg@?$basic_streambuf@_WU?$char_traits@_W@std@@@std@@IAEXPA_W00@Z 7c086490 f i instances.obj
 0001:00005490       ?setg@?$basic_streambuf@GU?$char_traits@G@std@@@std@@IAEXPAG00@Z 7c086490 f i instances.obj
 0001:000054b2       ?_Gndec@?$basic_streambuf@GU?$char_traits@G@std@@@std@@IAEPAGXZ 7c0864b2 f i instances.obj
 0001:000054b2       ?_Gndec@?$basic_streambuf@_WU?$char_traits@_W@std@@@std@@IAEPA_WXZ 7c0864b2 f i instances.obj
 0001:000054c3       ?pbump@?$basic_streambuf@GU?$char_traits@G@std@@@std@@IAEXH@Z 7c0864c3 f i instances.obj
 0001:000054c3       ?pbump@?$basic_streambuf@_WU?$char_traits@_W@std@@@std@@IAEXH@Z 7c0864c3 f i instances.obj
 0001:000054d7       ?setp@?$basic_streambuf@GU?$char_traits@G@std@@@std@@IAEXPAG00@Z 7c0864d7 f i instances.obj
 0001:000054d7       ?setp@?$basic_streambuf@_WU?$char_traits@_W@std@@@std@@IAEXPA_W00@Z 7c0864d7 f i instances.obj
 0001:000054f9       ?uflow@?$basic_streambuf@GU?$char_traits@G@std@@@std@@MAEGXZ 7c0864f9 f i instances.obj
 0001:000054f9       ?uflow@?$basic_streambuf@_WU?$char_traits@_W@std@@@std@@MAEGXZ 7c0864f9 f i instances.obj
 0001:00005522       ?xsgetn@?$basic_streambuf@GU?$char_traits@G@std@@@std@@MAEHPAGH@Z 7c086522 f i instances.obj
 0001:00005522       ?xsgetn@?$basic_streambuf@_WU?$char_traits@_W@std@@@std@@MAEHPA_WH@Z 7c086522 f i instances.obj
 0001:000055a3       ??0?$num_get@DV?$istreambuf_iterator@DU?$char_traits@D@std@@@std@@@std@@QAE@I@Z 7c0865a3 f i instances.obj
 0001:000055fd       ??0?$num_get@DV?$istreambuf_iterator@DU?$char_traits@D@std@@@std@@@std@@QAE@ABV_Locinfo@1@I@Z 7c0865fd f i instances.obj
 0001:0000561e       ?get@?$num_get@DV?$istreambuf_iterator@DU?$char_traits@D@std@@@std@@@std@@QBE?AV?$istreambuf_iterator@DU?$char_traits@D@std@@@2@V32@0AAVios_base@2@AAHAA_N@Z 7c08661e f i instances.obj
 0001:0000561e       ?get@?$num_get@GV?$istreambuf_iterator@GU?$char_traits@G@std@@@std@@@std@@QBE?AV?$istreambuf_iterator@GU?$char_traits@G@std@@@2@V32@0AAVios_base@2@AAHAA_N@Z 7c08661e f i instances.obj
 0001:0000561e       ?get@?$num_get@_WV?$istreambuf_iterator@_WU?$char_traits@_W@std@@@std@@@std@@QBE?AV?$istreambuf_iterator@_WU?$char_traits@_W@std@@@2@V32@0AAVios_base@2@AAHAA_N@Z 7c08661e f i instances.obj
 0001:00005645       ?get@?$num_get@_WV?$istreambuf_iterator@_WU?$char_traits@_W@std@@@std@@@std@@QBE?AV?$istreambuf_iterator@_WU?$char_traits@_W@std@@@2@V32@0AAVios_base@2@AAHAAG@Z 7c086645 f i instances.obj
 0001:00005645       ?get@?$num_get@DV?$istreambuf_iterator@DU?$char_traits@D@std@@@std@@@std@@QBE?AV?$istreambuf_iterator@DU?$char_traits@D@std@@@2@V32@0AAVios_base@2@AAHAAG@Z 7c086645 f i instances.obj
 0001:00005645       ?get@?$num_get@GV?$istreambuf_iterator@GU?$char_traits@G@std@@@std@@@std@@QBE?AV?$istreambuf_iterator@GU?$char_traits@G@std@@@2@V32@0AAVios_base@2@AAHAAG@Z 7c086645 f i instances.obj
 0001:0000566c       ?get@?$num_get@_WV?$istreambuf_iterator@_WU?$char_traits@_W@std@@@std@@@std@@QBE?AV?$istreambuf_iterator@_WU?$char_traits@_W@std@@@2@V32@0AAVios_base@2@AAHAAK@Z 7c08666c f i instances.obj
 0001:0000566c       ?get@?$num_get@GV?$istreambuf_iterator@GU?$char_traits@G@std@@@std@@@std@@QBE?AV?$istreambuf_iterator@GU?$char_traits@G@std@@@2@V32@0AAVios_base@2@AAHAAK@Z 7c08666c f i instances.obj
 0001:0000566c       ?get@?$num_get@DV?$istreambuf_iterator@DU?$char_traits@D@std@@@std@@@std@@QBE?AV?$istreambuf_iterator@DU?$char_traits@D@std@@@2@V32@0AAVios_base@2@AAHAAK@Z 7c08666c f i instances.obj
 0001:00005693       ??0?$num_put@DV?$ostreambuf_iterator@DU?$char_traits@D@std@@@std@@@std@@QAE@I@Z 7c086693 f i instances.obj
 0001:000056ed       ??0?$num_put@DV?$ostreambuf_iterator@DU?$char_traits@D@std@@@std@@@std@@QAE@ABV_Locinfo@1@I@Z 7c0866ed f i instances.obj
 0001:0000570e       ?put@?$num_put@_WV?$ostreambuf_iterator@_WU?$char_traits@_W@std@@@std@@@std@@QBE?AV?$ostreambuf_iterator@_WU?$char_traits@_W@std@@@2@V32@AAVios_base@2@_WJ@Z 7c08670e f i instances.obj
 0001:0000570e       ?put@?$num_put@DV?$ostreambuf_iterator@DU?$char_traits@D@std@@@std@@@std@@QBE?AV?$ostreambuf_iterator@DU?$char_traits@D@std@@@2@V32@AAVios_base@2@DJ@Z 7c08670e f i instances.obj
 0001:0000570e       ?put@?$num_put@GV?$ostreambuf_iterator@GU?$char_traits@G@std@@@std@@@std@@QBE?AV?$ostreambuf_iterator@GU?$char_traits@G@std@@@2@V32@AAVios_base@2@GJ@Z 7c08670e f i instances.obj
 0001:0000572f       ?put@?$num_put@GV?$ostreambuf_iterator@GU?$char_traits@G@std@@@std@@@std@@QBE?AV?$ostreambuf_iterator@GU?$char_traits@G@std@@@2@V32@AAVios_base@2@GK@Z 7c08672f f i instances.obj
 0001:0000572f       ?put@?$num_put@_WV?$ostreambuf_iterator@_WU?$char_traits@_W@std@@@std@@@std@@QBE?AV?$ostreambuf_iterator@_WU?$char_traits@_W@std@@@2@V32@AAVios_base@2@_WK@Z 7c08672f f i instances.obj
 0001:0000572f       ?put@?$num_put@DV?$ostreambuf_iterator@DU?$char_traits@D@std@@@std@@@std@@QBE?AV?$ostreambuf_iterator@DU?$char_traits@D@std@@@2@V32@AAVios_base@2@DK@Z 7c08672f f i instances.obj
 0001:00005750       ?put@?$num_put@DV?$ostreambuf_iterator@DU?$char_traits@D@std@@@std@@@std@@QBE?AV?$ostreambuf_iterator@DU?$char_traits@D@std@@@2@V32@AAVios_base@2@D_J@Z 7c086750 f i instances.obj
 0001:00005750       ?put@?$num_put@_WV?$ostreambuf_iterator@_WU?$char_traits@_W@std@@@std@@@std@@QBE?AV?$ostreambuf_iterator@_WU?$char_traits@_W@std@@@2@V32@AAVios_base@2@_W_J@Z 7c086750 f i instances.obj
 0001:00005750       ?put@?$num_put@GV?$ostreambuf_iterator@GU?$char_traits@G@std@@@std@@@std@@QBE?AV?$ostreambuf_iterator@GU?$char_traits@G@std@@@2@V32@AAVios_base@2@G_J@Z 7c086750 f i instances.obj
 0001:00005774       ?put@?$num_put@_WV?$ostreambuf_iterator@_WU?$char_traits@_W@std@@@std@@@std@@QBE?AV?$ostreambuf_iterator@_WU?$char_traits@_W@std@@@2@V32@AAVios_base@2@_W_K@Z 7c086774 f i instances.obj
 0001:00005774       ?put@?$num_put@DV?$ostreambuf_iterator@DU?$char_traits@D@std@@@std@@@std@@QBE?AV?$ostreambuf_iterator@DU?$char_traits@D@std@@@2@V32@AAVios_base@2@D_K@Z 7c086774 f i instances.obj
 0001:00005774       ?put@?$num_put@GV?$ostreambuf_iterator@GU?$char_traits@G@std@@@std@@@std@@QBE?AV?$ostreambuf_iterator@GU?$char_traits@G@std@@@2@V32@AAVios_base@2@G_K@Z 7c086774 f i instances.obj
 0001:00005798       ?put@?$num_put@_WV?$ostreambuf_iterator@_WU?$char_traits@_W@std@@@std@@@std@@QBE?AV?$ostreambuf_iterator@_WU?$char_traits@_W@std@@@2@V32@AAVios_base@2@_WPBX@Z 7c086798 f i instances.obj
 0001:00005798       ?put@?$num_put@GV?$ostreambuf_iterator@GU?$char_traits@G@std@@@std@@@std@@QBE?AV?$ostreambuf_iterator@GU?$char_traits@G@std@@@2@V32@AAVios_base@2@GPBX@Z 7c086798 f i instances.obj
 0001:00005798       ?put@?$num_put@DV?$ostreambuf_iterator@DU?$char_traits@D@std@@@std@@@std@@QBE?AV?$ostreambuf_iterator@DU?$char_traits@D@std@@@2@V32@AAVios_base@2@DPBX@Z 7c086798 f i instances.obj
 0001:000057b9       ?_Ifmt@?$num_put@_WV?$ostreambuf_iterator@_WU?$char_traits@_W@std@@@std@@@std@@ABAPADPADPBDH@Z 7c0867b9 f i instances.obj
 0001:000057b9       ?_Ifmt@?$num_put@GV?$ostreambuf_iterator@GU?$char_traits@G@std@@@std@@@std@@ABAPADPADPBDH@Z 7c0867b9 f i instances.obj
 0001:000057b9       ?_Ifmt@?$num_put@DV?$ostreambuf_iterator@DU?$char_traits@D@std@@@std@@@std@@ABAPADPADPBDH@Z 7c0867b9 f i instances.obj
 0001:0000582d       ?_Tidy@?$numpunct@_W@std@@AAEXXZ 7c08682d f i instances.obj
 0001:0000582d       ?_Tidy@?$numpunct@D@std@@AAEXXZ 7c08682d f i instances.obj
 0001:0000582d       ?_Tidy@?$numpunct@G@std@@AAEXXZ 7c08682d f i instances.obj
 0001:0000584d       ??0?$num_get@_WV?$istreambuf_iterator@_WU?$char_traits@_W@std@@@std@@@std@@QAE@I@Z 7c08684d f i instances.obj
 0001:000058a7       ??0?$num_get@_WV?$istreambuf_iterator@_WU?$char_traits@_W@std@@@std@@@std@@QAE@ABV_Locinfo@1@I@Z 7c0868a7 f i instances.obj
 0001:000058c8       ?_Init@?$money_get@_WV?$istreambuf_iterator@_WU?$char_traits@_W@std@@@std@@@std@@IAEXABV_Locinfo@2@@Z 7c0868c8 f i instances.obj
 0001:000058c8       ?_Init@?$num_get@GV?$istreambuf_iterator@GU?$char_traits@G@std@@@std@@@std@@IAEXABV_Locinfo@2@@Z 7c0868c8 f i instances.obj
 0001:000058c8       ?_Init@?$money_get@GV?$istreambuf_iterator@GU?$char_traits@G@std@@@std@@@std@@IAEXABV_Locinfo@2@@Z 7c0868c8 f i instances.obj
 0001:000058c8       ?_Init@?$money_put@GV?$ostreambuf_iterator@GU?$char_traits@G@std@@@std@@@std@@IAEXABV_Locinfo@2@@Z 7c0868c8 f i instances.obj
 0001:000058c8       ?_Init@?$money_get@DV?$istreambuf_iterator@DU?$char_traits@D@std@@@std@@@std@@IAEXABV_Locinfo@2@@Z 7c0868c8 f i instances.obj
 0001:000058c8       ?_Init@?$num_put@DV?$ostreambuf_iterator@DU?$char_traits@D@std@@@std@@@std@@IAEXABV_Locinfo@2@@Z 7c0868c8 f i instances.obj
 0001:000058c8       ?_Init@?$codecvt@_WDH@std@@IAEXABV_Locinfo@2@@Z 7c0868c8 f i cerr.obj
 0001:000058c8       ?_Init@?$codecvt@GDH@std@@IAEXABV_Locinfo@2@@Z 7c0868c8 f i cerr.obj
 0001:000058c8       ?_Init@?$money_put@DV?$ostreambuf_iterator@DU?$char_traits@D@std@@@std@@@std@@IAEXABV_Locinfo@2@@Z 7c0868c8 f i instances.obj
 0001:000058c8       ?_Init@?$num_get@_WV?$istreambuf_iterator@_WU?$char_traits@_W@std@@@std@@@std@@IAEXABV_Locinfo@2@@Z 7c0868c8 f i instances.obj
 0001:000058c8       ?_Init@?$money_put@_WV?$ostreambuf_iterator@_WU?$char_traits@_W@std@@@std@@@std@@IAEXABV_Locinfo@2@@Z 7c0868c8 f i instances.obj
 0001:000058c8       ?_Init@?$num_put@_WV?$ostreambuf_iterator@_WU?$char_traits@_W@std@@@std@@@std@@IAEXABV_Locinfo@2@@Z 7c0868c8 f i instances.obj
 0001:000058c8       ?_Init@?$num_get@DV?$istreambuf_iterator@DU?$char_traits@D@std@@@std@@@std@@IAEXABV_Locinfo@2@@Z 7c0868c8 f i instances.obj
 0001:000058c8       ?_Init@?$num_put@GV?$ostreambuf_iterator@GU?$char_traits@G@std@@@std@@@std@@IAEXABV_Locinfo@2@@Z 7c0868c8 f i instances.obj
 0001:000058da       ??0?$num_put@_WV?$ostreambuf_iterator@_WU?$char_traits@_W@std@@@std@@@std@@QAE@I@Z 7c0868da f i instances.obj
 0001:00005934       ??0?$num_put@_WV?$ostreambuf_iterator@_WU?$char_traits@_W@std@@@std@@@std@@QAE@ABV_Locinfo@1@I@Z 7c086934 f i instances.obj
 0001:00005955       ?put@?$num_put@_WV?$ostreambuf_iterator@_WU?$char_traits@_W@std@@@std@@@std@@QBE?AV?$ostreambuf_iterator@_WU?$char_traits@_W@std@@@2@V32@AAVios_base@2@_WN@Z 7c086955 f i instances.obj
 0001:00005955       ?put@?$num_put@DV?$ostreambuf_iterator@DU?$char_traits@D@std@@@std@@@std@@QBE?AV?$ostreambuf_iterator@DU?$char_traits@D@std@@@2@V32@AAVios_base@2@DN@Z 7c086955 f i instances.obj
 0001:00005955       ?put@?$num_put@GV?$ostreambuf_iterator@GU?$char_traits@G@std@@@std@@@std@@QBE?AV?$ostreambuf_iterator@GU?$char_traits@G@std@@@2@V32@AAVios_base@2@GN@Z 7c086955 f i instances.obj
 0001:0000597b       ?put@?$num_put@DV?$ostreambuf_iterator@DU?$char_traits@D@std@@@std@@@std@@QBE?AV?$ostreambuf_iterator@DU?$char_traits@D@std@@@2@V32@AAVios_base@2@DO@Z 7c08697b f i instances.obj
 0001:0000597b       ?put@?$num_put@_WV?$ostreambuf_iterator@_WU?$char_traits@_W@std@@@std@@@std@@QBE?AV?$ostreambuf_iterator@_WU?$char_traits@_W@std@@@2@V32@AAVios_base@2@_WO@Z 7c08697b f i instances.obj
 0001:0000597b       ?put@?$num_put@GV?$ostreambuf_iterator@GU?$char_traits@G@std@@@std@@@std@@QBE?AV?$ostreambuf_iterator@GU?$char_traits@G@std@@@2@V32@AAVios_base@2@GO@Z 7c08697b f i instances.obj
 0001:000059a1       ?_Ffmt@?$num_put@DV?$ostreambuf_iterator@DU?$char_traits@D@std@@@std@@@std@@ABAPADPADDH@Z 7c0869a1 f i instances.obj
 0001:000059a1       ?_Ffmt@?$num_put@_WV?$ostreambuf_iterator@_WU?$char_traits@_W@std@@@std@@@std@@ABAPADPADDH@Z 7c0869a1 f i instances.obj
 0001:000059a1       ?_Ffmt@?$num_put@GV?$ostreambuf_iterator@GU?$char_traits@G@std@@@std@@@std@@ABAPADPADDH@Z 7c0869a1 f i instances.obj
 0001:000059fc       ??0?$num_get@GV?$istreambuf_iterator@GU?$char_traits@G@std@@@std@@@std@@QAE@I@Z 7c0869fc f i instances.obj
 0001:00005a56       ??0?$num_get@GV?$istreambuf_iterator@GU?$char_traits@G@std@@@std@@@std@@QAE@ABV_Locinfo@1@I@Z 7c086a56 f i instances.obj
 0001:00005a77       ?get@?$num_get@_WV?$istreambuf_iterator@_WU?$char_traits@_W@std@@@std@@@std@@QBE?AV?$istreambuf_iterator@_WU?$char_traits@_W@std@@@2@V32@0AAVios_base@2@AAHAAI@Z 7c086a77 f i instances.obj
 0001:00005a77       ?get@?$num_get@DV?$istreambuf_iterator@DU?$char_traits@D@std@@@std@@@std@@QBE?AV?$istreambuf_iterator@DU?$char_traits@D@std@@@2@V32@0AAVios_base@2@AAHAAI@Z 7c086a77 f i instances.obj
 0001:00005a77       ?get@?$num_get@GV?$istreambuf_iterator@GU?$char_traits@G@std@@@std@@@std@@QBE?AV?$istreambuf_iterator@GU?$char_traits@G@std@@@2@V32@0AAVios_base@2@AAHAAI@Z 7c086a77 f i instances.obj
 0001:00005a9e       ?get@?$num_get@DV?$istreambuf_iterator@DU?$char_traits@D@std@@@std@@@std@@QBE?AV?$istreambuf_iterator@DU?$char_traits@D@std@@@2@V32@0AAVios_base@2@AAHAAJ@Z 7c086a9e f i instances.obj
 0001:00005a9e       ?get@?$num_get@GV?$istreambuf_iterator@GU?$char_traits@G@std@@@std@@@std@@QBE?AV?$istreambuf_iterator@GU?$char_traits@G@std@@@2@V32@0AAVios_base@2@AAHAAJ@Z 7c086a9e f i instances.obj
 0001:00005a9e       ?get@?$num_get@_WV?$istreambuf_iterator@_WU?$char_traits@_W@std@@@std@@@std@@QBE?AV?$istreambuf_iterator@_WU?$char_traits@_W@std@@@2@V32@0AAVios_base@2@AAHAAJ@Z 7c086a9e f i instances.obj
 0001:00005ac5       ?get_monthname@?$time_get@DV?$istreambuf_iterator@DU?$char_traits@D@std@@@std@@@std@@QBE?AV?$istreambuf_iterator@DU?$char_traits@D@std@@@2@V32@0AAVios_base@2@AAHPAUtm@@@Z 7c086ac5 f i instances.obj
 0001:00005ac5       ?get@?$num_get@_WV?$istreambuf_iterator@_WU?$char_traits@_W@std@@@std@@@std@@QBE?AV?$istreambuf_iterator@_WU?$char_traits@_W@std@@@2@V32@0AAVios_base@2@AAHAA_K@Z 7c086ac5 f i instances.obj
 0001:00005ac5       ?get@?$num_get@GV?$istreambuf_iterator@GU?$char_traits@G@std@@@std@@@std@@QBE?AV?$istreambuf_iterator@GU?$char_traits@G@std@@@2@V32@0AAVios_base@2@AAHAA_K@Z 7c086ac5 f i instances.obj
 0001:00005ac5       ?get_monthname@?$time_get@GV?$istreambuf_iterator@GU?$char_traits@G@std@@@std@@@std@@QBE?AV?$istreambuf_iterator@GU?$char_traits@G@std@@@2@V32@0AAVios_base@2@AAHPAUtm@@@Z 7c086ac5 f i instances.obj
 0001:00005ac5       ?get@?$num_get@DV?$istreambuf_iterator@DU?$char_traits@D@std@@@std@@@std@@QBE?AV?$istreambuf_iterator@DU?$char_traits@D@std@@@2@V32@0AAVios_base@2@AAHAA_K@Z 7c086ac5 f i instances.obj
 0001:00005ac5       ?get_monthname@?$time_get@_WV?$istreambuf_iterator@_WU?$char_traits@_W@std@@@std@@@std@@QBE?AV?$istreambuf_iterator@_WU?$char_traits@_W@std@@@2@V32@0AAVios_base@2@AAHPAUtm@@@Z 7c086ac5 f i instances.obj
 0001:00005aec       ?get@?$num_get@GV?$istreambuf_iterator@GU?$char_traits@G@std@@@std@@@std@@QBE?AV?$istreambuf_iterator@GU?$char_traits@G@std@@@2@V32@0AAVios_base@2@AAHAAPAX@Z 7c086aec f i instances.obj
 0001:00005aec       ?put@?$time_put@DV?$ostreambuf_iterator@DU?$char_traits@D@std@@@std@@@std@@QBE?AV?$ostreambuf_iterator@DU?$char_traits@D@std@@@2@V32@AAVios_base@2@DPBUtm@@DD@Z 7c086aec f i instances.obj
 0001:00005aec       ?put@?$time_put@GV?$ostreambuf_iterator@GU?$char_traits@G@std@@@std@@@std@@QBE?AV?$ostreambuf_iterator@GU?$char_traits@G@std@@@2@V32@AAVios_base@2@GPBUtm@@DD@Z 7c086aec f i instances.obj
 0001:00005aec       ?get@?$num_get@DV?$istreambuf_iterator@DU?$char_traits@D@std@@@std@@@std@@QBE?AV?$istreambuf_iterator@DU?$char_traits@D@std@@@2@V32@0AAVios_base@2@AAHAAPAX@Z 7c086aec f i instances.obj
 0001:00005aec       ?get@?$num_get@_WV?$istreambuf_iterator@_WU?$char_traits@_W@std@@@std@@@std@@QBE?AV?$istreambuf_iterator@_WU?$char_traits@_W@std@@@2@V32@0AAVios_base@2@AAHAAPAX@Z 7c086aec f i instances.obj
 0001:00005aec       ?put@?$time_put@_WV?$ostreambuf_iterator@_WU?$char_traits@_W@std@@@std@@@std@@QBE?AV?$ostreambuf_iterator@_WU?$char_traits@_W@std@@@2@V32@AAVios_base@2@_WPBUtm@@DD@Z 7c086aec f i instances.obj
 0001:00005b13       ??0?$num_put@GV?$ostreambuf_iterator@GU?$char_traits@G@std@@@std@@@std@@QAE@I@Z 7c086b13 f i instances.obj
 0001:00005b6d       ??0?$num_put@GV?$ostreambuf_iterator@GU?$char_traits@G@std@@@std@@@std@@QAE@ABV_Locinfo@1@I@Z 7c086b6d f i instances.obj
 0001:00005b8e       ?put@?$num_put@DV?$ostreambuf_iterator@DU?$char_traits@D@std@@@std@@@std@@QBE?AV?$ostreambuf_iterator@DU?$char_traits@D@std@@@2@V32@AAVios_base@2@D_N@Z 7c086b8e f i instances.obj
 0001:00005b8e       ?put@?$num_put@GV?$ostreambuf_iterator@GU?$char_traits@G@std@@@std@@@std@@QBE?AV?$ostreambuf_iterator@GU?$char_traits@G@std@@@2@V32@AAVios_base@2@G_N@Z 7c086b8e f i instances.obj
 0001:00005b8e       ?put@?$num_put@_WV?$ostreambuf_iterator@_WU?$char_traits@_W@std@@@std@@@std@@QBE?AV?$ostreambuf_iterator@_WU?$char_traits@_W@std@@@2@V32@AAVios_base@2@_W_N@Z 7c086b8e f i instances.obj
 0001:00005baf       ?clear@?$basic_ios@GU?$char_traits@G@std@@@std@@QAEXI@Z 7c086baf f i instances.obj
 0001:00005baf       ?clear@?$basic_ios@_WU?$char_traits@_W@std@@@std@@QAEXI@Z 7c086baf f i instances.obj
 0001:00005baf       ?clear@?$basic_ios@DU?$char_traits@D@std@@@std@@QAEXI@Z 7c086baf f i instances.obj
 0001:00005bbd       ?setstate@?$basic_ios@DU?$char_traits@D@std@@@std@@QAEXI@Z 7c086bbd f i instances.obj
 0001:00005bbd       ?setstate@?$basic_ios@GU?$char_traits@G@std@@@std@@QAEXI@Z 7c086bbd f i instances.obj
 0001:00005bbd       ?setstate@?$basic_ios@_WU?$char_traits@_W@std@@@std@@QAEXI@Z 7c086bbd f i instances.obj
 0001:00005bcb       ?rdbuf@?$basic_ios@_WU?$char_traits@_W@std@@@std@@QAEPAV?$basic_streambuf@_WU?$char_traits@_W@std@@@2@PAV32@@Z 7c086bcb f i instances.obj
 0001:00005bcb       ?rdbuf@?$basic_ios@DU?$char_traits@D@std@@@std@@QAEPAV?$basic_streambuf@DU?$char_traits@D@std@@@2@PAV32@@Z 7c086bcb f i instances.obj
 0001:00005bcb       ?rdbuf@?$basic_ios@GU?$char_traits@G@std@@@std@@QAEPAV?$basic_streambuf@GU?$char_traits@G@std@@@2@PAV32@@Z 7c086bcb f i instances.obj
 0001:00005bee       ?fill@?$basic_ios@DU?$char_traits@D@std@@@std@@QBEDXZ 7c086bee f i instances.obj
 0001:00005bf2       ?fill@?$basic_ios@DU?$char_traits@D@std@@@std@@QAEDD@Z 7c086bf2 f i instances.obj
 0001:00005bff       ??1?$basic_ios@_WU?$char_traits@_W@std@@@std@@UAE@XZ 7c086bff f i instances.obj
 0001:00005c0a       ?imbue@?$basic_ios@DU?$char_traits@D@std@@@std@@QAE?AVlocale@2@ABV32@@Z 7c086c0a f i instances.obj
 0001:00005c0a       ?imbue@?$basic_ios@_WU?$char_traits@_W@std@@@std@@QAE?AVlocale@2@ABV32@@Z 7c086c0a f i instances.obj
 0001:00005c0a       ?imbue@?$basic_ios@GU?$char_traits@G@std@@@std@@QAE?AVlocale@2@ABV32@@Z 7c086c0a f i instances.obj
 0001:00005c5f       ??0?$basic_ios@_WU?$char_traits@_W@std@@@std@@IAE@XZ 7c086c5f f i instances.obj
 0001:00005c68       ??1?$basic_ios@GU?$char_traits@G@std@@@std@@UAE@XZ 7c086c68 f i instances.obj
 0001:00005c73       ?tie@?$basic_ios@_WU?$char_traits@_W@std@@@std@@QAEPAV?$basic_ostream@_WU?$char_traits@_W@std@@@2@PAV32@@Z 7c086c73 f i instances.obj
 0001:00005c73       ?tie@?$basic_ios@DU?$char_traits@D@std@@@std@@QAEPAV?$basic_ostream@DU?$char_traits@D@std@@@2@PAV32@@Z 7c086c73 f i cerr.obj
 0001:00005c73       ?tie@?$basic_ios@GU?$char_traits@G@std@@@std@@QAEPAV?$basic_ostream@GU?$char_traits@G@std@@@2@PAV32@@Z 7c086c73 f i instances.obj
 0001:00005c80       ?fill@?$basic_ios@_WU?$char_traits@_W@std@@@std@@QBE_WXZ 7c086c80 f i instances.obj
 0001:00005c80       ?fill@?$basic_ios@GU?$char_traits@G@std@@@std@@QBEGXZ 7c086c80 f i instances.obj
 0001:00005c85       ?fill@?$basic_ios@_WU?$char_traits@_W@std@@@std@@QAE_W_W@Z 7c086c85 f i instances.obj
 0001:00005c85       ?fill@?$basic_ios@GU?$char_traits@G@std@@@std@@QAEGG@Z 7c086c85 f i instances.obj
 0001:00005c95       ??0?$basic_ios@GU?$char_traits@G@std@@@std@@IAE@XZ 7c086c95 f i instances.obj
 0001:00005c9e       ??0?$basic_ostream@DU?$char_traits@D@std@@@std@@QAE@W4_Uninitialized@1@@Z 7c086c9e f i instances.obj
 0001:00005cfa       ??5?$basic_istream@_WU?$char_traits@_W@std@@@std@@QAEAAV01@P6AAAV?$basic_ios@_WU?$char_traits@_W@std@@@1@AAV21@@Z@Z 7c086cfa f i instances.obj
 0001:00005cfa       ??6?$basic_ostream@DU?$char_traits@D@std@@@std@@QAEAAV01@P6AAAV?$basic_ios@DU?$char_traits@D@std@@@1@AAV21@@Z@Z 7c086cfa f i instances.obj
 0001:00005cfa       ??6?$basic_ostream@_WU?$char_traits@_W@std@@@std@@QAEAAV01@P6AAAV?$basic_ios@_WU?$char_traits@_W@std@@@1@AAV21@@Z@Z 7c086cfa f i instances.obj
 0001:00005cfa       ??5?$basic_istream@DU?$char_traits@D@std@@@std@@QAEAAV01@P6AAAVios_base@1@AAV21@@Z@Z 7c086cfa f i instances.obj
 0001:00005cfa       ??5?$basic_istream@GU?$char_traits@G@std@@@std@@QAEAAV01@P6AAAV?$basic_ios@GU?$char_traits@G@std@@@1@AAV21@@Z@Z 7c086cfa f i instances.obj
 0001:00005cfa       ??5?$basic_istream@_WU?$char_traits@_W@std@@@std@@QAEAAV01@P6AAAVios_base@1@AAV21@@Z@Z 7c086cfa f i instances.obj
 0001:00005cfa       ??6?$basic_ostream@_WU?$char_traits@_W@std@@@std@@QAEAAV01@P6AAAVios_base@1@AAV21@@Z@Z 7c086cfa f i instances.obj
 0001:00005cfa       ??6?$basic_ostream@GU?$char_traits@G@std@@@std@@QAEAAV01@P6AAAV?$basic_ios@GU?$char_traits@G@std@@@1@AAV21@@Z@Z 7c086cfa f i instances.obj
 0001:00005cfa       ??5?$basic_istream@DU?$char_traits@D@std@@@std@@QAEAAV01@P6AAAV?$basic_ios@DU?$char_traits@D@std@@@1@AAV21@@Z@Z 7c086cfa f i instances.obj
 0001:00005cfa       ??6?$basic_ostream@DU?$char_traits@D@std@@@std@@QAEAAV01@P6AAAVios_base@1@AAV21@@Z@Z 7c086cfa f i instances.obj
 0001:00005cfa       ??5?$basic_istream@GU?$char_traits@G@std@@@std@@QAEAAV01@P6AAAVios_base@1@AAV21@@Z@Z 7c086cfa f i instances.obj
 0001:00005cfa       ??6?$basic_ostream@GU?$char_traits@G@std@@@std@@QAEAAV01@P6AAAVios_base@1@AAV21@@Z@Z 7c086cfa f i instances.obj
 0001:00005d18       ??0?$basic_ostream@_WU?$char_traits@_W@std@@@std@@QAE@W4_Uninitialized@1@@Z 7c086d18 f i instances.obj
 0001:00005d74       ??1?$basic_ostream@_WU?$char_traits@_W@std@@@std@@UAE@XZ 7c086d74 f i instances.obj
 0001:00005d83       ??0?$basic_ostream@GU?$char_traits@G@std@@@std@@QAE@W4_Uninitialized@1@@Z 7c086d83 f i instances.obj
 0001:00005ddf       ??1?$basic_ostream@GU?$char_traits@G@std@@@std@@UAE@XZ 7c086ddf f i instances.obj
 0001:00005dee       ??0?$basic_istream@DU?$char_traits@D@std@@@std@@QAE@W4_Uninitialized@1@@Z 7c086dee f i instances.obj
 0001:00005e4a       ??0?$basic_istream@_WU?$char_traits@_W@std@@@std@@QAE@W4_Uninitialized@1@@Z 7c086e4a f i instances.obj
 0001:00005ea6       ??1?$basic_istream@_WU?$char_traits@_W@std@@@std@@UAE@XZ 7c086ea6 f i instances.obj
 0001:00005eb5       ??0?$basic_istream@GU?$char_traits@G@std@@@std@@QAE@W4_Uninitialized@1@@Z 7c086eb5 f i instances.obj
 0001:00005f11       ??1?$basic_istream@GU?$char_traits@G@std@@@std@@UAE@XZ 7c086f11 f i instances.obj
 0001:00005f20       ??5?$basic_istream@GU?$char_traits@G@std@@@std@@QAEAAV01@P6AAAV01@AAV01@@Z@Z 7c086f20 f i instances.obj
 0001:00005f20       ??6?$basic_ostream@GU?$char_traits@G@std@@@std@@QAEAAV01@P6AAAV01@AAV01@@Z@Z 7c086f20 f i instances.obj
 0001:00005f20       ??6?$basic_ostream@_WU?$char_traits@_W@std@@@std@@QAEAAV01@P6AAAV01@AAV01@@Z@Z 7c086f20 f i instances.obj
 0001:00005f20       ??5?$basic_istream@DU?$char_traits@D@std@@@std@@QAEAAV01@P6AAAV01@AAV01@@Z@Z 7c086f20 f i instances.obj
 0001:00005f20       ??5?$basic_istream@_WU?$char_traits@_W@std@@@std@@QAEAAV01@P6AAAV01@AAV01@@Z@Z 7c086f20 f i instances.obj
 0001:00005f20       ??6?$basic_ostream@DU?$char_traits@D@std@@@std@@QAEAAV01@P6AAAV01@AAV01@@Z@Z 7c086f20 f i instances.obj
 0001:00005f29       ?gcount@?$basic_istream@DU?$char_traits@D@std@@@std@@QBEHXZ 7c086f29 f i instances.obj
 0001:00005f29       ?gcount@?$basic_istream@GU?$char_traits@G@std@@@std@@QBEHXZ 7c086f29 f i instances.obj
 0001:00005f29       ?gcount@?$basic_istream@_WU?$char_traits@_W@std@@@std@@QBEHXZ 7c086f29 f i instances.obj
 0001:00005f2d       ?sync@?$basic_istream@_WU?$char_traits@_W@std@@@std@@QAEHXZ 7c086f2d f i instances.obj
 0001:00005f2d       ?sync@?$basic_istream@DU?$char_traits@D@std@@@std@@QAEHXZ 7c086f2d f i instances.obj
 0001:00005f2d       ?sync@?$basic_istream@GU?$char_traits@G@std@@@std@@QAEHXZ 7c086f2d f i instances.obj
 0001:00005f6e       ??1?$basic_iostream@DU?$char_traits@D@std@@@std@@UAE@XZ 7c086f6e f i instances.obj
 0001:00005fa7       ??1?$basic_iostream@_WU?$char_traits@_W@std@@@std@@UAE@XZ 7c086fa7 f i instances.obj
 0001:00005fe0       ??1?$basic_iostream@GU?$char_traits@G@std@@@std@@UAE@XZ 7c086fe0 f i instances.obj
 0001:00006019       ?pbackfail@?$basic_stringbuf@DU?$char_traits@D@std@@V?$allocator@D@2@@std@@MAEHH@Z 7c087019 f i instances.obj
 0001:00006061       ?underflow@?$basic_stringbuf@DU?$char_traits@D@std@@V?$allocator@D@2@@std@@MAEHXZ 7c087061 f i instances.obj
 0001:000060be       ?_Getstate@?$basic_stringbuf@DU?$char_traits@D@std@@V?$allocator@D@2@@std@@AAEHH@Z 7c0870be f i instances.obj
 0001:000060be       ?_Getstate@?$basic_stringbuf@GU?$char_traits@G@std@@V?$allocator@G@2@@std@@AAEHH@Z 7c0870be f i instances.obj
 0001:000060be       ?_Getstate@?$basic_stringbuf@_WU?$char_traits@_W@std@@V?$allocator@_W@2@@std@@AAEHH@Z 7c0870be f i instances.obj
 0001:000060df       ?underflow@?$basic_stringbuf@_WU?$char_traits@_W@std@@V?$allocator@_W@2@@std@@MAEGXZ 7c0870df f i instances.obj
 0001:000060df       ?underflow@?$basic_stringbuf@GU?$char_traits@G@std@@V?$allocator@G@2@@std@@MAEGXZ 7c0870df f i instances.obj
 0001:00006141       ?pbackfail@?$basic_stringbuf@_WU?$char_traits@_W@std@@V?$allocator@_W@2@@std@@MAEGG@Z 7c087141 f i instances.obj
 0001:00006141       ?pbackfail@?$basic_stringbuf@GU?$char_traits@G@std@@V?$allocator@G@2@@std@@MAEGG@Z 7c087141 f i instances.obj
 0001:00006193       ?rdbuf@?$basic_fstream@_WU?$char_traits@_W@std@@@std@@QBEPAV?$basic_filebuf@_WU?$char_traits@_W@std@@@2@XZ 7c087193 f i instances.obj
 0001:00006193       ?rdbuf@?$basic_fstream@DU?$char_traits@D@std@@@std@@QBEPAV?$basic_filebuf@DU?$char_traits@D@std@@@2@XZ 7c087193 f i instances.obj
 0001:00006193       ?rdbuf@?$basic_stringstream@_WU?$char_traits@_W@std@@V?$allocator@_W@2@@std@@QBEPAV?$basic_stringbuf@_WU?$char_traits@_W@std@@V?$allocator@_W@2@@2@XZ 7c087193 f i instances.obj
 0001:00006193       ?rdbuf@?$basic_stringstream@GU?$char_traits@G@std@@V?$allocator@G@2@@std@@QBEPAV?$basic_stringbuf@GU?$char_traits@G@std@@V?$allocator@G@2@@2@XZ 7c087193 f i instances.obj
 0001:00006193       ?rdbuf@?$basic_fstream@GU?$char_traits@G@std@@@std@@QBEPAV?$basic_filebuf@GU?$char_traits@G@std@@@2@XZ 7c087193 f i instances.obj
 0001:00006193       ?rdbuf@?$basic_stringstream@DU?$char_traits@D@std@@V?$allocator@D@2@@std@@QBEPAV?$basic_stringbuf@DU?$char_traits@D@std@@V?$allocator@D@2@@2@XZ 7c087193 f i instances.obj
 0001:00006197       ?real@?$_Complex_base@MU_C_float_complex@@@std@@QAEMABM@Z 7c087197 f i instances.obj
 0001:000061ab       ?imag@?$_Complex_base@MU_C_float_complex@@@std@@QAEMABM@Z 7c0871ab f i instances.obj
 0001:000061c0       ?real@?$_Complex_base@MU_C_float_complex@@@std@@QBEMXZ 7c0871c0 f i instances.obj
 0001:000061c3       ?imag@?$_Complex_base@MU_C_float_complex@@@std@@QBEMXZ 7c0871c3 f i instances.obj
 0001:000061c7       ?imag@?$_Complex_base@NU_C_double_complex@@@std@@QAENABN@Z 7c0871c7 f i instances.obj
 0001:000061c7       ?imag@?$_Complex_base@OU_C_ldouble_complex@@@std@@QAEOABO@Z 7c0871c7 f i instances.obj
 0001:000061d3       ?real@?$_Complex_base@NU_C_double_complex@@@std@@QBENXZ 7c0871d3 f i instances.obj
 0001:000061d3       ?real@?$_Complex_base@OU_C_ldouble_complex@@@std@@QBEOXZ 7c0871d3 f i instances.obj
 0001:000061d6       ??0?$_Complex_base@OU_C_ldouble_complex@@@std@@QAE@ABO0@Z 7c0871d6 f i instances.obj
 0001:000061d6       ??0?$complex@O@std@@QAE@ABO0@Z 7c0871d6 f i instances.obj
 0001:000061d6       ??0?$complex@N@std@@QAE@ABN0@Z 7c0871d6 f i instances.obj
 0001:000061d6       ??0?$_Complex_base@NU_C_double_complex@@@std@@QAE@ABN0@Z 7c0871d6 f i instances.obj
 0001:000061ec       ?real@?$_Complex_base@NU_C_double_complex@@@std@@QAENABN@Z 7c0871ec f i instances.obj
 0001:000061ec       ?real@?$_Complex_base@OU_C_ldouble_complex@@@std@@QAEOABO@Z 7c0871ec f i instances.obj
 0001:000061f7       ?imag@?$_Complex_base@NU_C_double_complex@@@std@@QBENXZ 7c0871f7 f i instances.obj
 0001:000061f7       ?imag@?$_Complex_base@OU_C_ldouble_complex@@@std@@QBEOXZ 7c0871f7 f i instances.obj
 0001:000061fb       ?pbackfail@?$basic_filebuf@_WU?$char_traits@_W@std@@@std@@MAEGG@Z 7c0871fb f i instances.obj
 0001:000061fb       ?pbackfail@?$basic_filebuf@GU?$char_traits@G@std@@@std@@MAEGG@Z 7c0871fb f i instances.obj
 0001:0000629e       ?setbuf@?$basic_filebuf@GU?$char_traits@G@std@@@std@@MAEPAV?$basic_streambuf@GU?$char_traits@G@std@@@2@PAGH@Z 7c08729e f i instances.obj
 0001:0000629e       ?setbuf@?$basic_filebuf@_WU?$char_traits@_W@std@@@std@@MAEPAV?$basic_streambuf@_WU?$char_traits@_W@std@@@2@PA_WH@Z 7c08729e f i instances.obj
 0001:000062de       ?sync@?$basic_filebuf@_WU?$char_traits@_W@std@@@std@@MAEHXZ 7c0872de f i instances.obj
 0001:000062de       ?sync@?$basic_filebuf@GU?$char_traits@G@std@@@std@@MAEHXZ 7c0872de f i instances.obj
 0001:0000630e       ?_Init@?$basic_filebuf@_WU?$char_traits@_W@std@@@std@@IAEXPAU_iobuf@@W4_Initfl@12@@Z 7c08730e f i instances.obj
 0001:00006344       ?is_open@?$basic_filebuf@DU?$char_traits@D@std@@@std@@QBE_NXZ 7c087344 f i instances.obj
 0001:00006344       ?is_open@?$basic_filebuf@GU?$char_traits@G@std@@@std@@QBE_NXZ 7c087344 f i instances.obj
 0001:00006344       ?is_open@?$basic_filebuf@_WU?$char_traits@_W@std@@@std@@QBE_NXZ 7c087344 f i instances.obj
 0001:0000634d       ?underflow@?$basic_filebuf@_WU?$char_traits@_W@std@@@std@@MAEGXZ 7c08734d f i instances.obj
 0001:0000634d       ?underflow@?$basic_filebuf@GU?$char_traits@G@std@@@std@@MAEGXZ 7c08734d f i instances.obj
 0001:0000638f       ?_Init@?$basic_filebuf@GU?$char_traits@G@std@@@std@@IAEXPAU_iobuf@@W4_Initfl@12@@Z 7c08738f f i instances.obj
 0001:000063c5       ?rdbuf@?$basic_ifstream@_WU?$char_traits@_W@std@@@std@@QBEPAV?$basic_filebuf@_WU?$char_traits@_W@std@@@2@XZ 7c0873c5 f i instances.obj
 0001:000063c5       ?rdbuf@?$basic_istringstream@GU?$char_traits@G@std@@V?$allocator@G@2@@std@@QBEPAV?$basic_stringbuf@GU?$char_traits@G@std@@V?$allocator@G@2@@2@XZ 7c0873c5 f i instances.obj
 0001:000063c5       ?rdbuf@?$basic_ifstream@GU?$char_traits@G@std@@@std@@QBEPAV?$basic_filebuf@GU?$char_traits@G@std@@@2@XZ 7c0873c5 f i instances.obj
 0001:000063c5       ?rdbuf@?$basic_istringstream@DU?$char_traits@D@std@@V?$allocator@D@2@@std@@QBEPAV?$basic_stringbuf@DU?$char_traits@D@std@@V?$allocator@D@2@@2@XZ 7c0873c5 f i instances.obj
 0001:000063c5       ?rdbuf@?$basic_ifstream@DU?$char_traits@D@std@@@std@@QBEPAV?$basic_filebuf@DU?$char_traits@D@std@@@2@XZ 7c0873c5 f i instances.obj
 0001:000063c5       ?rdbuf@?$basic_istringstream@_WU?$char_traits@_W@std@@V?$allocator@_W@2@@std@@QBEPAV?$basic_stringbuf@_WU?$char_traits@_W@std@@V?$allocator@_W@2@@2@XZ 7c0873c5 f i instances.obj
 0001:000063c9       ?is_open@?$basic_ifstream@GU?$char_traits@G@std@@@std@@QBE_NXZ 7c0873c9 f i instances.obj
 0001:000063c9       ?is_open@?$basic_ifstream@DU?$char_traits@D@std@@@std@@QBE_NXZ 7c0873c9 f i instances.obj
 0001:000063c9       ?is_open@?$basic_ifstream@_WU?$char_traits@_W@std@@@std@@QBE_NXZ 7c0873c9 f i instances.obj
 0001:000063d2       ?rdbuf@?$basic_ofstream@_WU?$char_traits@_W@std@@@std@@QBEPAV?$basic_filebuf@_WU?$char_traits@_W@std@@@2@XZ 7c0873d2 f i instances.obj
 0001:000063d2       ?rdbuf@?$basic_ofstream@GU?$char_traits@G@std@@@std@@QBEPAV?$basic_filebuf@GU?$char_traits@G@std@@@2@XZ 7c0873d2 f i instances.obj
 0001:000063d2       ?rdbuf@?$basic_ofstream@DU?$char_traits@D@std@@@std@@QBEPAV?$basic_filebuf@DU?$char_traits@D@std@@@2@XZ 7c0873d2 f i instances.obj
 0001:000063d2       ?rdbuf@?$basic_ostringstream@GU?$char_traits@G@std@@V?$allocator@G@2@@std@@QBEPAV?$basic_stringbuf@GU?$char_traits@G@std@@V?$allocator@G@2@@2@XZ 7c0873d2 f i instances.obj
 0001:000063d2       ?rdbuf@?$basic_ostringstream@DU?$char_traits@D@std@@V?$allocator@D@2@@std@@QBEPAV?$basic_stringbuf@DU?$char_traits@D@std@@V?$allocator@D@2@@2@XZ 7c0873d2 f i instances.obj
 0001:000063d2       ?rdbuf@?$basic_ostringstream@_WU?$char_traits@_W@std@@V?$allocator@_W@2@@std@@QBEPAV?$basic_stringbuf@_WU?$char_traits@_W@std@@V?$allocator@_W@2@@2@XZ 7c0873d2 f i instances.obj
 0001:000063d6       ?is_open@?$basic_ofstream@_WU?$char_traits@_W@std@@@std@@QBE_NXZ 7c0873d6 f i instances.obj
 0001:000063d6       ?is_open@?$basic_ofstream@GU?$char_traits@G@std@@@std@@QBE_NXZ 7c0873d6 f i instances.obj
 0001:000063d6       ?is_open@?$basic_ofstream@DU?$char_traits@D@std@@@std@@QBE_NXZ 7c0873d6 f i instances.obj
 0001:000063df       ?is_open@?$basic_fstream@_WU?$char_traits@_W@std@@@std@@QBE_NXZ 7c0873df f i instances.obj
 0001:000063df       ?is_open@?$basic_fstream@GU?$char_traits@G@std@@@std@@QBE_NXZ 7c0873df f i instances.obj
 0001:000063df       ?is_open@?$basic_fstream@DU?$char_traits@D@std@@@std@@QBE_NXZ 7c0873df f i instances.obj
 0001:000063e8       ?do_close@?$messages@G@std@@MBEXH@Z 7c0873e8 f i instances.obj
 0001:000063e8       ?_Init@?$messages@D@std@@IAEXABV_Locinfo@2@@Z 7c0873e8 f i instances.obj
 0001:000063e8       ?_Init@?$messages@G@std@@IAEXABV_Locinfo@2@@Z 7c0873e8 f i instances.obj
 0001:000063e8       ?_Init@?$codecvt@DDH@std@@IAEXABV_Locinfo@2@@Z 7c0873e8 f i cerr.obj
 0001:000063e8       ?imbue@?$basic_streambuf@DU?$char_traits@D@std@@@std@@MAEXABVlocale@2@@Z 7c0873e8 f i cerr.obj
 0001:000063e8       ?imbue@?$basic_streambuf@GU?$char_traits@G@std@@@std@@MAEXABVlocale@2@@Z 7c0873e8 f i instances.obj
 0001:000063e8       ?_Init@?$messages@_W@std@@IAEXABV_Locinfo@2@@Z 7c0873e8 f i instances.obj
 0001:000063e8       ?imbue@?$basic_streambuf@_WU?$char_traits@_W@std@@@std@@MAEXABVlocale@2@@Z 7c0873e8 f i instances.obj
 0001:000063e8       ?do_close@?$messages@D@std@@MBEXH@Z 7c0873e8 f i instances.obj
 0001:000063e8       ?do_close@?$messages@_W@std@@MBEXH@Z 7c0873e8 f i instances.obj
 0001:000063eb       ?scan_is@?$ctype@G@std@@QBEPBGFPBG0@Z 7c0873eb f i cerr.obj
 0001:000063eb       ?close@?$messages@D@std@@QBEXH@Z 7c0873eb f i instances.obj
 0001:000063eb       ?toupper@?$ctype@D@std@@QBEPBDPADPBD@Z 7c0873eb f i cerr.obj
 0001:000063eb       ?hash@?$collate@D@std@@QBEJPBD0@Z 7c0873eb f i instances.obj
 0001:000063eb       ?close@?$messages@G@std@@QBEXH@Z 7c0873eb f i instances.obj
 0001:000063eb       ?encoding@codecvt_base@std@@QBEHXZ 7c0873eb f i cerr.obj
 0001:000063eb       ?hash@?$collate@G@std@@QBEJPBG0@Z 7c0873eb f i instances.obj
 0001:000063eb       ?close@?$messages@_W@std@@QBEXH@Z 7c0873eb f i instances.obj
 0001:000063eb       ?scan_is@?$ctype@_W@std@@QBEPB_WFPB_W0@Z 7c0873eb f i cerr.obj
 0001:000063eb       ?hash@?$collate@_W@std@@QBEJPB_W0@Z 7c0873eb f i instances.obj
 0001:000063f0       ?do_open@?$messages@_W@std@@MBEHABV?$basic_string@DU?$char_traits@D@std@@V?$allocator@D@2@@2@ABVlocale@2@@Z 7c0873f0 f i instances.obj
 0001:000063f0       ?do_open@?$messages@G@std@@MBEHABV?$basic_string@DU?$char_traits@D@std@@V?$allocator@D@2@@2@ABVlocale@2@@Z 7c0873f0 f i instances.obj
 0001:000063f0       ?do_open@?$messages@D@std@@MBEHABV?$basic_string@DU?$char_traits@D@std@@V?$allocator@D@2@@2@ABVlocale@2@@Z 7c0873f0 f i instances.obj
 0001:000063f5       ?decimal_point@?$numpunct@_W@std@@QBE_WXZ 7c0873f5 f i instances.obj
 0001:000063f5       ?tolower@?$ctype@D@std@@QBEPBDPADPBD@Z 7c0873f5 f i cerr.obj
 0001:000063f5       ?date_order@?$time_get@GV?$istreambuf_iterator@GU?$char_traits@G@std@@@std@@@std@@QBE?AW4dateorder@time_base@2@XZ 7c0873f5 f i instances.obj
 0001:000063f5       ?open@?$messages@D@std@@QBEHABV?$basic_string@DU?$char_traits@D@std@@V?$allocator@D@2@@2@ABVlocale@2@@Z 7c0873f5 f i instances.obj
 0001:000063f5       ?compare@?$collate@G@std@@QBEHPBG000@Z 7c0873f5 f i instances.obj
 0001:000063f5       ?decimal_point@?$numpunct@G@std@@QBEGXZ 7c0873f5 f i instances.obj
 0001:000063f5       ?always_noconv@codecvt_base@std@@QBE_NXZ 7c0873f5 f i cerr.obj
 0001:000063f5       ?open@?$messages@_W@std@@QBEHABV?$basic_string@DU?$char_traits@D@std@@V?$allocator@D@2@@2@ABVlocale@2@@Z 7c0873f5 f i instances.obj
 0001:000063f5       ?date_order@?$time_get@DV?$istreambuf_iterator@DU?$char_traits@D@std@@@std@@@std@@QBE?AW4dateorder@time_base@2@XZ 7c0873f5 f i instances.obj
 0001:000063f5       ?compare@?$collate@_W@std@@QBEHPB_W000@Z 7c0873f5 f i instances.obj
 0001:000063f5       ?open@?$messages@G@std@@QBEHABV?$basic_string@DU?$char_traits@D@std@@V?$allocator@D@2@@2@ABVlocale@2@@Z 7c0873f5 f i instances.obj
 0001:000063f5       ?date_order@?$time_get@_WV?$istreambuf_iterator@_WU?$char_traits@_W@std@@@std@@@std@@QBE?AW4dateorder@time_base@2@XZ 7c0873f5 f i instances.obj
 0001:000063f5       ?decimal_point@?$numpunct@D@std@@QBEDXZ 7c0873f5 f i instances.obj
 0001:000063f5       ?compare@?$collate@D@std@@QBEHPBD000@Z 7c0873f5 f i instances.obj
 0001:000063f5       ?decimal_point@?$_Mpunct@_W@std@@QBE_WXZ 7c0873f5 f i instances.obj
 0001:000063f5       ?is@?$ctype@G@std@@QBEPBGPBG0PAF@Z 7c0873f5 f i cerr.obj
 0001:000063f5       ?is@?$ctype@_W@std@@QBEPB_WPB_W0PAF@Z 7c0873f5 f i cerr.obj
 0001:000063f5       ?decimal_point@?$_Mpunct@G@std@@QBEGXZ 7c0873f5 f i instances.obj
 0001:000063f5       ?decimal_point@?$_Mpunct@D@std@@QBEDXZ 7c0873f5 f i instances.obj
 0001:000063fa       ?max_length@codecvt_base@std@@QBEHXZ 7c0873fa f i cerr.obj
 0001:000063fa       ?thousands_sep@?$numpunct@D@std@@QBEDXZ 7c0873fa f i instances.obj
 0001:000063fa       ?thousands_sep@?$_Mpunct@G@std@@QBEGXZ 7c0873fa f i instances.obj
 0001:000063fa       ?is@?$ctype@G@std@@QBE_NFG@Z 7c0873fa f i cerr.obj
 0001:000063fa       ?is@?$ctype@_W@std@@QBE_NF_W@Z 7c0873fa f i cerr.obj
 0001:000063fa       ?thousands_sep@?$_Mpunct@D@std@@QBEDXZ 7c0873fa f i instances.obj
 0001:000063fa       ?thousands_sep@?$numpunct@G@std@@QBEGXZ 7c0873fa f i instances.obj
 0001:000063fa       ?thousands_sep@?$numpunct@_W@std@@QBE_WXZ 7c0873fa f i instances.obj
 0001:000063fa       ?tolower@?$ctype@D@std@@QBEDD@Z 7c0873fa f i cerr.obj
 0001:000063fa       ?thousands_sep@?$_Mpunct@_W@std@@QBE_WXZ 7c0873fa f i instances.obj
 0001:000063ff       ?frac_digits@?$_Mpunct@G@std@@QBEHXZ 7c0873ff f i instances.obj
 0001:000063ff       ?frac_digits@?$_Mpunct@_W@std@@QBEHXZ 7c0873ff f i instances.obj
 0001:000063ff       ?sputn@?$basic_streambuf@GU?$char_traits@G@std@@@std@@QAEHPBGH@Z 7c0873ff f i instances.obj
 0001:000063ff       ?length@?$codecvt@GDH@std@@QBEHABHPBD1I@Z 7c0873ff f i cerr.obj
 0001:000063ff       ?narrow@?$ctype@D@std@@QBEPBDPBD0DPAD@Z 7c0873ff f i cerr.obj
 0001:000063ff       ?sputn@?$basic_streambuf@_WU?$char_traits@_W@std@@@std@@QAEHPB_WH@Z 7c0873ff f i instances.obj
 0001:000063ff       ?length@?$codecvt@DDH@std@@QBEHABHPBD1I@Z 7c0873ff f i instances.obj
 0001:000063ff       ?toupper@?$ctype@G@std@@QBEPBGPAGPBG@Z 7c0873ff f i cerr.obj
 0001:000063ff       ?length@?$codecvt@_WDH@std@@QBEHABHPBD1I@Z 7c0873ff f i cerr.obj
 0001:000063ff       ?toupper@?$ctype@_W@std@@QBEPB_WPA_WPB_W@Z 7c0873ff f i cerr.obj
 0001:000063ff       ?frac_digits@?$_Mpunct@D@std@@QBEHXZ 7c0873ff f i instances.obj
 0001:000063ff       ?sputn@?$basic_streambuf@DU?$char_traits@D@std@@@std@@QAEHPBDH@Z 7c0873ff f i instances.obj
 0001:00006404       ?pos_format@?$_Mpunct@G@std@@QBE?AUpattern@money_base@2@XZ 7c087404 f i instances.obj
 0001:00006404       ?pos_format@?$_Mpunct@_W@std@@QBE?AUpattern@money_base@2@XZ 7c087404 f i instances.obj
 0001:00006404       ?pos_format@?$_Mpunct@D@std@@QBE?AUpattern@money_base@2@XZ 7c087404 f i instances.obj
 0001:00006414       ?neg_format@?$_Mpunct@G@std@@QBE?AUpattern@money_base@2@XZ 7c087414 f i instances.obj
 0001:00006414       ?neg_format@?$_Mpunct@D@std@@QBE?AUpattern@money_base@2@XZ 7c087414 f i instances.obj
 0001:00006414       ?neg_format@?$_Mpunct@_W@std@@QBE?AUpattern@money_base@2@XZ 7c087414 f i instances.obj
 0001:00006424       ?do_decimal_point@?$numpunct@D@std@@MBEDXZ 7c087424 f i instances.obj
 0001:00006424       ?do_decimal_point@?$_Mpunct@D@std@@MBEDXZ 7c087424 f i instances.obj
 0001:00006428       ?do_thousands_sep@?$_Mpunct@D@std@@MBEDXZ 7c087428 f i instances.obj
 0001:00006428       ?do_thousands_sep@?$numpunct@D@std@@MBEDXZ 7c087428 f i instances.obj
 0001:0000642c       ?do_neg_format@?$_Mpunct@D@std@@MBE?AUpattern@money_base@2@XZ 7c08742c f i instances.obj
 0001:0000642c       ?do_neg_format@?$_Mpunct@_W@std@@MBE?AUpattern@money_base@2@XZ 7c08742c f i instances.obj
 0001:0000642c       ?do_neg_format@?$_Mpunct@G@std@@MBE?AUpattern@money_base@2@XZ 7c08742c f i instances.obj
 0001:00006438       ?get@?$money_get@_WV?$istreambuf_iterator@_WU?$char_traits@_W@std@@@std@@@std@@QBE?AV?$istreambuf_iterator@_WU?$char_traits@_W@std@@@2@V32@0_NAAVios_base@2@AAHAAO@Z 7c087438 f i instances.obj
 0001:00006438       ?get@?$money_get@GV?$istreambuf_iterator@GU?$char_traits@G@std@@@std@@@std@@QBE?AV?$istreambuf_iterator@GU?$char_traits@G@std@@@2@V32@0_NAAVios_base@2@AAHAAO@Z 7c087438 f i instances.obj
 0001:00006438       ?get@?$money_get@DV?$istreambuf_iterator@DU?$char_traits@D@std@@@std@@@std@@QBE?AV?$istreambuf_iterator@DU?$char_traits@D@std@@@2@V32@0_NAAVios_base@2@AAHAAO@Z 7c087438 f i instances.obj
 0001:00006462       ?do_decimal_point@?$numpunct@G@std@@MBEGXZ 7c087462 f i instances.obj
 0001:00006462       ?do_decimal_point@?$_Mpunct@_W@std@@MBE_WXZ 7c087462 f i instances.obj
 0001:00006462       ?do_decimal_point@?$numpunct@_W@std@@MBE_WXZ 7c087462 f i instances.obj
 0001:00006462       ?do_decimal_point@?$_Mpunct@G@std@@MBEGXZ 7c087462 f i instances.obj
 0001:00006467       ?do_thousands_sep@?$numpunct@G@std@@MBEGXZ 7c087467 f i instances.obj
 0001:00006467       ?do_thousands_sep@?$numpunct@_W@std@@MBE_WXZ 7c087467 f i instances.obj
 0001:00006467       ?do_thousands_sep@?$_Mpunct@_W@std@@MBE_WXZ 7c087467 f i instances.obj
 0001:00006467       ?do_thousands_sep@?$_Mpunct@G@std@@MBEGXZ 7c087467 f i instances.obj
 0001:0000646c       ?do_pos_format@?$_Mpunct@D@std@@MBE?AUpattern@money_base@2@XZ 7c08746c f i instances.obj
 0001:0000646c       ?do_pos_format@?$_Mpunct@_W@std@@MBE?AUpattern@money_base@2@XZ 7c08746c f i instances.obj
 0001:0000646c       ?do_pos_format@?$_Mpunct@G@std@@MBE?AUpattern@money_base@2@XZ 7c08746c f i instances.obj
 0001:00006478       ?_Tidy@?$_Mpunct@_W@std@@AAEXXZ 7c087478 f i instances.obj
 0001:00006478       ?_Tidy@?$_Mpunct@D@std@@AAEXXZ 7c087478 f i instances.obj
 0001:00006478       ?_Tidy@?$_Mpunct@G@std@@AAEXXZ 7c087478 f i instances.obj
 0001:000064a0       ?put@?$money_put@_WV?$ostreambuf_iterator@_WU?$char_traits@_W@std@@@std@@@std@@QBE?AV?$ostreambuf_iterator@_WU?$char_traits@_W@std@@@2@V32@_NAAVios_base@2@_WO@Z 7c0874a0 f i instances.obj
 0001:000064a0       ?put@?$money_put@GV?$ostreambuf_iterator@GU?$char_traits@G@std@@@std@@@std@@QBE?AV?$ostreambuf_iterator@GU?$char_traits@G@std@@@2@V32@_NAAVios_base@2@GO@Z 7c0874a0 f i instances.obj
 0001:000064a0       ?put@?$money_put@DV?$ostreambuf_iterator@DU?$char_traits@D@std@@@std@@@std@@QBE?AV?$ostreambuf_iterator@DU?$char_traits@D@std@@@2@V32@_NAAVios_base@2@DO@Z 7c0874a0 f i instances.obj
 0001:000064c9       ?do_frac_digits@?$_Mpunct@D@std@@MBEHXZ 7c0874c9 f i instances.obj
 0001:000064c9       ?do_frac_digits@?$_Mpunct@G@std@@MBEHXZ 7c0874c9 f i instances.obj
 0001:000064c9       ?do_frac_digits@?$_Mpunct@_W@std@@MBEHXZ 7c0874c9 f i instances.obj
 0001:000064cd       ?_Makpat@?$_Mpunct@_W@std@@AAEXAAUpattern@money_base@2@III@Z 7c0874cd f i instances.obj
 0001:000064cd       ?_Makpat@?$_Mpunct@G@std@@AAEXAAUpattern@money_base@2@III@Z 7c0874cd f i instances.obj
 0001:000064cd       ?_Makpat@?$_Mpunct@D@std@@AAEXAAUpattern@money_base@2@III@Z 7c0874cd f i instances.obj
 0001:0000652b       ?get@?$money_get@DV?$istreambuf_iterator@DU?$char_traits@D@std@@@std@@@std@@QBE?AV?$istreambuf_iterator@DU?$char_traits@D@std@@@2@V32@0_NAAVios_base@2@AAHAAV?$basic_string@DU?$char_traits@D@std@@V?$allocator@D@2@@2@@Z 7c08752b f i instances.obj
 0001:0000652b       ?get@?$money_get@_WV?$istreambuf_iterator@_WU?$char_traits@_W@std@@@std@@@std@@QBE?AV?$istreambuf_iterator@_WU?$char_traits@_W@std@@@2@V32@0_NAAVios_base@2@AAHAAV?$basic_string@_WU?$char_traits@_W@std@@V?$allocator@_W@2@@2@@Z 7c08752b f i instances.obj
 0001:0000652b       ?get@?$money_get@GV?$istreambuf_iterator@GU?$char_traits@G@std@@@std@@@std@@QBE?AV?$istreambuf_iterator@GU?$char_traits@G@std@@@2@V32@0_NAAVios_base@2@AAHAAV?$basic_string@GU?$char_traits@G@std@@V?$allocator@G@2@@2@@Z 7c08752b f i instances.obj
 0001:00006555       ?put@?$money_put@_WV?$ostreambuf_iterator@_WU?$char_traits@_W@std@@@std@@@std@@QBE?AV?$ostreambuf_iterator@_WU?$char_traits@_W@std@@@2@V32@_NAAVios_base@2@_WABV?$basic_string@_WU?$char_traits@_W@std@@V?$allocator@_W@2@@2@@Z 7c087555 f i instances.obj
 0001:00006555       ?put@?$money_put@DV?$ostreambuf_iterator@DU?$char_traits@D@std@@@std@@@std@@QBE?AV?$ostreambuf_iterator@DU?$char_traits@D@std@@@2@V32@_NAAVios_base@2@DABV?$basic_string@DU?$char_traits@D@std@@V?$allocator@D@2@@2@@Z 7c087555 f i instances.obj
 0001:00006555       ?put@?$money_put@GV?$ostreambuf_iterator@GU?$char_traits@G@std@@@std@@@std@@QBE?AV?$ostreambuf_iterator@GU?$char_traits@G@std@@@2@V32@_NAAVios_base@2@GABV?$basic_string@GU?$char_traits@G@std@@V?$allocator@G@2@@2@@Z 7c087555 f i instances.obj
 0001:00006579       ?get_time@?$time_get@_WV?$istreambuf_iterator@_WU?$char_traits@_W@std@@@std@@@std@@QBE?AV?$istreambuf_iterator@_WU?$char_traits@_W@std@@@2@V32@0AAVios_base@2@AAHPAUtm@@@Z 7c087579 f i instances.obj
 0001:00006579       ?get@?$num_get@_WV?$istreambuf_iterator@_WU?$char_traits@_W@std@@@std@@@std@@QBE?AV?$istreambuf_iterator@_WU?$char_traits@_W@std@@@2@V32@0AAVios_base@2@AAHAAO@Z 7c087579 f i instances.obj
 0001:00006579       ?get_time@?$time_get@DV?$istreambuf_iterator@DU?$char_traits@D@std@@@std@@@std@@QBE?AV?$istreambuf_iterator@DU?$char_traits@D@std@@@2@V32@0AAVios_base@2@AAHPAUtm@@@Z 7c087579 f i instances.obj
 0001:00006579       ?get_time@?$time_get@GV?$istreambuf_iterator@GU?$char_traits@G@std@@@std@@@std@@QBE?AV?$istreambuf_iterator@GU?$char_traits@G@std@@@2@V32@0AAVios_base@2@AAHPAUtm@@@Z 7c087579 f i instances.obj
 0001:00006579       ?get@?$num_get@GV?$istreambuf_iterator@GU?$char_traits@G@std@@@std@@@std@@QBE?AV?$istreambuf_iterator@GU?$char_traits@G@std@@@2@V32@0AAVios_base@2@AAHAAO@Z 7c087579 f i instances.obj
 0001:00006579       ?get@?$num_get@DV?$istreambuf_iterator@DU?$char_traits@D@std@@@std@@@std@@QBE?AV?$istreambuf_iterator@DU?$char_traits@D@std@@@2@V32@0AAVios_base@2@AAHAAO@Z 7c087579 f i instances.obj
 0001:000065a0       ?get@?$num_get@DV?$istreambuf_iterator@DU?$char_traits@D@std@@@std@@@std@@QBE?AV?$istreambuf_iterator@DU?$char_traits@D@std@@@2@V32@0AAVios_base@2@AAHAAN@Z 7c0875a0 f i instances.obj
 0001:000065a0       ?get@?$num_get@_WV?$istreambuf_iterator@_WU?$char_traits@_W@std@@@std@@@std@@QBE?AV?$istreambuf_iterator@_WU?$char_traits@_W@std@@@2@V32@0AAVios_base@2@AAHAAN@Z 7c0875a0 f i instances.obj
 0001:000065a0       ?get_date@?$time_get@DV?$istreambuf_iterator@DU?$char_traits@D@std@@@std@@@std@@QBE?AV?$istreambuf_iterator@DU?$char_traits@D@std@@@2@V32@0AAVios_base@2@AAHPAUtm@@@Z 7c0875a0 f i instances.obj
 0001:000065a0       ?get_date@?$time_get@GV?$istreambuf_iterator@GU?$char_traits@G@std@@@std@@@std@@QBE?AV?$istreambuf_iterator@GU?$char_traits@G@std@@@2@V32@0AAVios_base@2@AAHPAUtm@@@Z 7c0875a0 f i instances.obj
 0001:000065a0       ?get@?$num_get@GV?$istreambuf_iterator@GU?$char_traits@G@std@@@std@@@std@@QBE?AV?$istreambuf_iterator@GU?$char_traits@G@std@@@2@V32@0AAVios_base@2@AAHAAN@Z 7c0875a0 f i instances.obj
 0001:000065a0       ?get_date@?$time_get@_WV?$istreambuf_iterator@_WU?$char_traits@_W@std@@@std@@@std@@QBE?AV?$istreambuf_iterator@_WU?$char_traits@_W@std@@@2@V32@0AAVios_base@2@AAHPAUtm@@@Z 7c0875a0 f i instances.obj
 0001:000065c7       ?get_weekday@?$time_get@_WV?$istreambuf_iterator@_WU?$char_traits@_W@std@@@std@@@std@@QBE?AV?$istreambuf_iterator@_WU?$char_traits@_W@std@@@2@V32@0AAVios_base@2@AAHPAUtm@@@Z 7c0875c7 f i instances.obj
 0001:000065c7       ?get@?$num_get@DV?$istreambuf_iterator@DU?$char_traits@D@std@@@std@@@std@@QBE?AV?$istreambuf_iterator@DU?$char_traits@D@std@@@2@V32@0AAVios_base@2@AAHAAM@Z 7c0875c7 f i instances.obj
 0001:000065c7       ?get@?$num_get@_WV?$istreambuf_iterator@_WU?$char_traits@_W@std@@@std@@@std@@QBE?AV?$istreambuf_iterator@_WU?$char_traits@_W@std@@@2@V32@0AAVios_base@2@AAHAAM@Z 7c0875c7 f i instances.obj
 0001:000065c7       ?get_weekday@?$time_get@DV?$istreambuf_iterator@DU?$char_traits@D@std@@@std@@@std@@QBE?AV?$istreambuf_iterator@DU?$char_traits@D@std@@@2@V32@0AAVios_base@2@AAHPAUtm@@@Z 7c0875c7 f i instances.obj
 0001:000065c7       ?get@?$num_get@GV?$istreambuf_iterator@GU?$char_traits@G@std@@@std@@@std@@QBE?AV?$istreambuf_iterator@GU?$char_traits@G@std@@@2@V32@0AAVios_base@2@AAHAAM@Z 7c0875c7 f i instances.obj
 0001:000065c7       ?get_weekday@?$time_get@GV?$istreambuf_iterator@GU?$char_traits@G@std@@@std@@@std@@QBE?AV?$istreambuf_iterator@GU?$char_traits@G@std@@@2@V32@0AAVios_base@2@AAHPAUtm@@@Z 7c0875c7 f i instances.obj
 0001:000065ee       ?get_year@?$time_get@DV?$istreambuf_iterator@DU?$char_traits@D@std@@@std@@@std@@QBE?AV?$istreambuf_iterator@DU?$char_traits@D@std@@@2@V32@0AAVios_base@2@AAHPAUtm@@@Z 7c0875ee f i instances.obj
 0001:000065ee       ?get@?$num_get@DV?$istreambuf_iterator@DU?$char_traits@D@std@@@std@@@std@@QBE?AV?$istreambuf_iterator@DU?$char_traits@D@std@@@2@V32@0AAVios_base@2@AAHAA_J@Z 7c0875ee f i instances.obj
 0001:000065ee       ?get_year@?$time_get@GV?$istreambuf_iterator@GU?$char_traits@G@std@@@std@@@std@@QBE?AV?$istreambuf_iterator@GU?$char_traits@G@std@@@2@V32@0AAVios_base@2@AAHPAUtm@@@Z 7c0875ee f i instances.obj
 0001:000065ee       ?get@?$num_get@GV?$istreambuf_iterator@GU?$char_traits@G@std@@@std@@@std@@QBE?AV?$istreambuf_iterator@GU?$char_traits@G@std@@@2@V32@0AAVios_base@2@AAHAA_J@Z 7c0875ee f i instances.obj
 0001:000065ee       ?get_year@?$time_get@_WV?$istreambuf_iterator@_WU?$char_traits@_W@std@@@std@@@std@@QBE?AV?$istreambuf_iterator@_WU?$char_traits@_W@std@@@2@V32@0AAVios_base@2@AAHPAUtm@@@Z 7c0875ee f i instances.obj
 0001:000065ee       ?get@?$num_get@_WV?$istreambuf_iterator@_WU?$char_traits@_W@std@@@std@@@std@@QBE?AV?$istreambuf_iterator@_WU?$char_traits@_W@std@@@2@V32@0AAVios_base@2@AAHAA_J@Z 7c0875ee f i instances.obj
 0001:00006615       ??1?$time_put@DV?$ostreambuf_iterator@DU?$char_traits@D@std@@@std@@@std@@MAE@XZ 7c087615 f i instances.obj
 0001:00006630       ?_Init@?$time_put@_WV?$ostreambuf_iterator@_WU?$char_traits@_W@std@@@std@@@std@@IAEXABV_Locinfo@2@@Z 7c087630 f i instances.obj
 0001:00006630       ?_Init@?$time_put@DV?$ostreambuf_iterator@DU?$char_traits@D@std@@@std@@@std@@IAEXABV_Locinfo@2@@Z 7c087630 f i instances.obj
 0001:00006630       ?_Init@?$time_put@GV?$ostreambuf_iterator@GU?$char_traits@G@std@@@std@@@std@@IAEXABV_Locinfo@2@@Z 7c087630 f i instances.obj
 0001:00006664       ??1?$time_put@_WV?$ostreambuf_iterator@_WU?$char_traits@_W@std@@@std@@@std@@MAE@XZ 7c087664 f i instances.obj
 0001:0000667f       ?do_date_order@?$time_get@GV?$istreambuf_iterator@GU?$char_traits@G@std@@@std@@@std@@MBE?AW4dateorder@time_base@2@XZ 7c08767f f i instances.obj
 0001:0000667f       ?do_date_order@?$time_get@_WV?$istreambuf_iterator@_WU?$char_traits@_W@std@@@std@@@std@@MBE?AW4dateorder@time_base@2@XZ 7c08767f f i instances.obj
 0001:0000667f       ?do_date_order@?$time_get@DV?$istreambuf_iterator@DU?$char_traits@D@std@@@std@@@std@@MBE?AW4dateorder@time_base@2@XZ 7c08767f f i instances.obj
 0001:0000667f       ?table@?$ctype@D@std@@IBEPBFXZ 7c08767f f i cerr.obj
 0001:0000667f       ?flags@ios_base@std@@QBEHXZ 7c08767f f i cerr.obj
 0001:00006683       ?_Tidy@?$time_get@GV?$istreambuf_iterator@GU?$char_traits@G@std@@@std@@@std@@AAEXXZ 7c087683 f i instances.obj
 0001:00006683       ?_Tidy@?$time_get@DV?$istreambuf_iterator@DU?$char_traits@D@std@@@std@@@std@@AAEXXZ 7c087683 f i instances.obj
 0001:00006683       ?_Tidy@?$time_get@_WV?$istreambuf_iterator@_WU?$char_traits@_W@std@@@std@@@std@@AAEXXZ 7c087683 f i instances.obj
 0001:0000669a       ??1?$time_put@GV?$ostreambuf_iterator@GU?$char_traits@G@std@@@std@@@std@@MAE@XZ 7c08769a f i instances.obj
 0001:000066b5       ?_Init@?$collate@_W@std@@IAEXABV_Locinfo@2@@Z 7c0876b5 f i instances.obj
 0001:000066b5       ?_Init@?$collate@G@std@@IAEXABV_Locinfo@2@@Z 7c0876b5 f i instances.obj
 0001:000066b5       ?_Init@?$collate@D@std@@IAEXABV_Locinfo@2@@Z 7c0876b5 f i instances.obj
 0001:000066c7       ?do_compare@?$collate@D@std@@MBEHPBD000@Z 7c0876c7 f i instances.obj
 0001:000066e6       ?do_hash@?$collate@D@std@@MBEJPBD0@Z 7c0876e6 f i instances.obj
 0001:00006707       ?do_compare@?$collate@_W@std@@MBEHPB_W000@Z 7c087707 f i instances.obj
 0001:00006726       ?do_hash@?$collate@G@std@@MBEJPBG0@Z 7c087726 f i instances.obj
 0001:00006726       ?do_hash@?$collate@_W@std@@MBEJPB_W0@Z 7c087726 f i instances.obj
 0001:00006748       ??$_Mul@M@?$_Complex_base@MU_C_float_complex@@@std@@IAEXABV?$complex@M@1@@Z 7c087748 f i instances.obj
 0001:00006784       ??$_Div@M@?$_Complex_base@MU_C_float_complex@@@std@@IAEXABV?$complex@M@1@@Z 7c087784 f i instances.obj
 0001:000068ca       ??$_Div@N@?$_Complex_base@NU_C_double_complex@@@std@@IAEXABV?$complex@N@1@@Z 7c0878ca f i instances.obj
 0001:000069f6       ??$_Mul@O@?$_Complex_base@OU_C_ldouble_complex@@@std@@IAEXABV?$complex@O@1@@Z 7c0879f6 f i instances.obj
 0001:000069f6       ??$_Mul@N@?$_Complex_base@NU_C_double_complex@@@std@@IAEXABV?$complex@N@1@@Z 7c0879f6 f i instances.obj
 0001:00006a1d       ??$_Div@O@?$_Complex_base@OU_C_ldouble_complex@@@std@@IAEXABV?$complex@O@1@@Z 7c087a1d f i instances.obj
 0001:00006b49       ??$imag@M@std@@YAMABV?$complex@M@0@@Z 7c087b49 f i instances.obj
 0001:00006b51       ??$real@M@std@@YAMABV?$complex@M@0@@Z 7c087b51 f i instances.obj
 0001:00006b58       ??$_Fabs@M@std@@YAMABV?$complex@M@0@PAH@Z 7c087b58 f i instances.obj
 0001:00006d39       ??$?HM@std@@YA?AV?$complex@M@0@ABV10@ABM@Z 7c087d39 f i instances.obj
 0001:00006d56       ??$?GM@std@@YA?AV?$complex@M@0@ABV10@ABM@Z 7c087d56 f i instances.obj
 0001:00006d73       ??$?DM@std@@YA?AV?$complex@M@0@ABV10@ABM@Z 7c087d73 f i instances.obj
 0001:00006d98       ??$?KM@std@@YA?AV?$complex@M@0@ABV10@ABM@Z 7c087d98 f i instances.obj
 0001:00006dbd       ??$?HM@std@@YA?AV?$complex@M@0@ABV10@@Z 7c087dbd f i instances.obj
 0001:00006dd0       ??$?8M@std@@YA_NABV?$complex@M@0@0@Z 7c087dd0 f i instances.obj
 0001:00006dfb       ??$?8M@std@@YA_NABV?$complex@M@0@ABM@Z 7c087dfb f i instances.obj
 0001:00006e27       ??$?8M@std@@YA_NABMABV?$complex@M@0@@Z 7c087e27 f i instances.obj
 0001:00006e53       ??$?9M@std@@YA_NABV?$complex@M@0@0@Z 7c087e53 f i instances.obj
 0001:00006e68       ??$?9M@std@@YA_NABV?$complex@M@0@ABM@Z 7c087e68 f i instances.obj
 0001:00006e7d       ??$?9M@std@@YA_NABMABV?$complex@M@0@@Z 7c087e7d f i instances.obj
 0001:00006e92       ??$abs@M@std@@YAMABV?$complex@M@0@@Z 7c087e92 f i instances.obj
 0001:00006ec6       ??$arg@M@std@@YAMABV?$complex@M@0@@Z 7c087ec6 f i instances.obj
 0001:00006ee0       ??$norm@M@std@@YAMABV?$complex@M@0@@Z 7c087ee0 f i instances.obj
 0001:00006efd       ??$imag@O@std@@YAOABV?$complex@O@0@@Z 7c087efd f i instances.obj
 0001:00006efd       ??$imag@N@std@@YANABV?$complex@N@0@@Z 7c087efd f i instances.obj
 0001:00006f05       ??$_Fabs@N@std@@YANABV?$complex@N@0@PAH@Z 7c087f05 f i instances.obj
 0001:00007084       ??$?HO@std@@YA?AV?$complex@O@0@ABV10@ABO@Z 7c088084 f i instances.obj
 0001:00007084       ??$?HN@std@@YA?AV?$complex@N@0@ABV10@ABN@Z 7c088084 f i instances.obj
 0001:000070a1       ??$?DO@std@@YA?AV?$complex@O@0@ABV10@ABO@Z 7c0880a1 f i instances.obj
 0001:000070a1       ??$?DN@std@@YA?AV?$complex@N@0@ABV10@ABN@Z 7c0880a1 f i instances.obj
 0001:000070c6       ??$?HN@std@@YA?AV?$complex@N@0@ABV10@@Z 7c0880c6 f i instances.obj
 0001:000070c6       ??$?HO@std@@YA?AV?$complex@O@0@ABV10@@Z 7c0880c6 f i instances.obj
 0001:000070d9       ??$?8N@std@@YA_NABV?$complex@N@0@0@Z 7c0880d9 f i instances.obj
 0001:000070d9       ??$?8O@std@@YA_NABV?$complex@O@0@0@Z 7c0880d9 f i instances.obj
 0001:00007100       ??$?8N@std@@YA_NABV?$complex@N@0@ABN@Z 7c088100 f i instances.obj
 0001:00007100       ??$?8O@std@@YA_NABV?$complex@O@0@ABO@Z 7c088100 f i instances.obj
 0001:00007126       ??$abs@N@std@@YANABV?$complex@N@0@@Z 7c088126 f i instances.obj
 0001:00007150       ??$arg@N@std@@YANABV?$complex@N@0@@Z 7c088150 f i instances.obj
 0001:0000716e       ??$real@N@std@@YANABV?$complex@N@0@@Z 7c08816e f i instances.obj
 0001:0000716e       ??$real@O@std@@YAOABV?$complex@O@0@@Z 7c08816e f i instances.obj
 0001:00007175       ??$_Fabs@O@std@@YAOABV?$complex@O@0@PAH@Z 7c088175 f i instances.obj
 0001:000072f4       ??$?GO@std@@YA?AV?$complex@O@0@ABV10@ABO@Z 7c0882f4 f i instances.obj
 0001:000072f4       ??$?GN@std@@YA?AV?$complex@N@0@ABV10@ABN@Z 7c0882f4 f i instances.obj
 0001:00007311       ??$?KN@std@@YA?AV?$complex@N@0@ABV10@ABN@Z 7c088311 f i instances.obj
 0001:00007311       ??$?KO@std@@YA?AV?$complex@O@0@ABV10@ABO@Z 7c088311 f i instances.obj
 0001:00007336       ??$?8O@std@@YA_NABOABV?$complex@O@0@@Z 7c088336 f i instances.obj
 0001:00007336       ??$?8N@std@@YA_NABNABV?$complex@N@0@@Z 7c088336 f i instances.obj
 0001:00007360       ??$?9O@std@@YA_NABV?$complex@O@0@0@Z 7c088360 f i instances.obj
 0001:00007360       ??$?9N@std@@YA_NABV?$complex@N@0@0@Z 7c088360 f i instances.obj
 0001:00007375       ??$?9N@std@@YA_NABV?$complex@N@0@ABN@Z 7c088375 f i instances.obj
 0001:00007375       ??$?9O@std@@YA_NABV?$complex@O@0@ABO@Z 7c088375 f i instances.obj
 0001:0000738a       ??$?9N@std@@YA_NABNABV?$complex@N@0@@Z 7c08838a f i instances.obj
 0001:0000738a       ??$?9O@std@@YA_NABOABV?$complex@O@0@@Z 7c08838a f i instances.obj
 0001:0000739f       ??$abs@O@std@@YAOABV?$complex@O@0@@Z 7c08839f f i instances.obj
 0001:000073c9       ??$arg@O@std@@YAOABV?$complex@O@0@@Z 7c0883c9 f i instances.obj
 0001:000073e7       ??$norm@N@std@@YANABV?$complex@N@0@@Z 7c0883e7 f i instances.obj
 0001:000073e7       ??$norm@O@std@@YAOABV?$complex@O@0@@Z 7c0883e7 f i instances.obj
 0001:000073fb       ??$_Maklocstr@D@std@@YAPADPBDPADABU_Cvtvec@@@Z 7c0883fb f i instances.obj
 0001:00007424       ??$_LStrcoll@G@std@@YAHPBG000PBU_Collvec@@@Z 7c088424 f i instances.obj
 0001:00007465       ??$_LStrxfrm@G@std@@YAIPAG0PBG1PBU_Collvec@@@Z 7c088465 f i instances.obj
 0001:00007494       ??_F?$num_get@DV?$istreambuf_iterator@DU?$char_traits@D@std@@@std@@@std@@QAEXXZ 7c088494 f i instances.obj
 0001:0000749c       ??_F?$num_put@DV?$ostreambuf_iterator@DU?$char_traits@D@std@@@std@@@std@@QAEXXZ 7c08849c f i instances.obj
 0001:000074a4       ??_F?$num_get@_WV?$istreambuf_iterator@_WU?$char_traits@_W@std@@@std@@@std@@QAEXXZ 7c0884a4 f i instances.obj
 0001:000074ac       ??_F?$num_put@_WV?$ostreambuf_iterator@_WU?$char_traits@_W@std@@@std@@@std@@QAEXXZ 7c0884ac f i instances.obj
 0001:000074b4       ??_F?$num_get@GV?$istreambuf_iterator@GU?$char_traits@G@std@@@std@@@std@@QAEXXZ 7c0884b4 f i instances.obj
 0001:000074bc       ??_F?$num_put@GV?$ostreambuf_iterator@GU?$char_traits@G@std@@@std@@@std@@QAEXXZ 7c0884bc f i instances.obj
 0001:000074c4       ??_E?$basic_ios@DU?$char_traits@D@std@@@std@@UAEPAXI@Z 7c0884c4 f i instances.obj
 0001:00007513       ??_E?$basic_ios@_WU?$char_traits@_W@std@@@std@@UAEPAXI@Z 7c088513 f i instances.obj
 0001:00007562       ??_E?$basic_ios@GU?$char_traits@G@std@@@std@@UAEPAXI@Z 7c088562 f i instances.obj
 0001:000075b1       ??_D?$basic_ostream@_WU?$char_traits@_W@std@@@std@@QAEXXZ 7c0885b1 f i instances.obj
 0001:000075cc       ??_D?$basic_ostream@GU?$char_traits@G@std@@@std@@QAEXXZ 7c0885cc f i instances.obj
 0001:000075e7       ??_D?$basic_istream@_WU?$char_traits@_W@std@@@std@@QAEXXZ 7c0885e7 f i instances.obj
 0001:00007602       ??_D?$basic_istream@GU?$char_traits@G@std@@@std@@QAEXXZ 7c088602 f i instances.obj
 0001:0000761d       ??_D?$basic_iostream@DU?$char_traits@D@std@@@std@@QAEXXZ 7c08861d f i instances.obj
 0001:00007636       ??_D?$basic_iostream@_WU?$char_traits@_W@std@@@std@@QAEXXZ 7c088636 f i instances.obj
 0001:0000764f       ??_D?$basic_iostream@GU?$char_traits@G@std@@@std@@QAEXXZ 7c08864f f i instances.obj
 0001:00007668       ??0?$complex@M@std@@QAE@ABV?$complex@N@1@@Z 7c088668 f i instances.obj
 0001:00007668       ??0?$complex@M@std@@QAE@ABV?$complex@O@1@@Z 7c088668 f i instances.obj
 0001:00007684       ??0?$_Complex_base@MU_C_float_complex@@@std@@QAE@ABM0@Z 7c088684 f i instances.obj
 0001:00007684       ??0?$complex@M@std@@QAE@ABM0@Z 7c088684 f i instances.obj
 0001:0000769a       ??4?$complex@M@std@@QAEAAV01@ABV01@@Z 7c08869a f i instances.obj
 0001:0000769a       ??0?$complex@M@std@@QAE@ABU_C_float_complex@@@Z 7c08869a f i instances.obj
 0001:0000769a       ??4?$_Complex_base@MU_C_float_complex@@@std@@QAEAAV01@ABV01@@Z 7c08869a f i instances.obj
 0001:000076ad       ??Y?$complex@M@std@@QAEAAV01@ABV01@@Z 7c0886ad f i instances.obj
 0001:000076c5       ??Z?$complex@M@std@@QAEAAV01@ABV01@@Z 7c0886c5 f i instances.obj
 0001:000076dd       ??X?$complex@M@std@@QAEAAV01@ABV01@@Z 7c0886dd f i instances.obj
 0001:000076ef       ??_0?$complex@M@std@@QAEAAV01@ABV01@@Z 7c0886ef f i instances.obj
 0001:00007701       ??0?$complex@N@std@@QAE@ABU_C_double_complex@@@Z 7c088701 f i instances.obj
 0001:00007701       ??4?$complex@O@std@@QAEAAV01@ABV01@@Z 7c088701 f i instances.obj
 0001:00007701       ??4?$complex@N@std@@QAEAAV01@ABV01@@Z 7c088701 f i instances.obj
 0001:00007701       ??0?$complex@O@std@@QAE@ABU_C_ldouble_complex@@@Z 7c088701 f i instances.obj
 0001:00007714       ??Y?$complex@N@std@@QAEAAV01@ABV01@@Z 7c088714 f i instances.obj
 0001:00007714       ??Y?$complex@O@std@@QAEAAV01@ABV01@@Z 7c088714 f i instances.obj
 0001:0000772c       ??Z?$complex@O@std@@QAEAAV01@ABV01@@Z 7c08872c f i instances.obj
 0001:0000772c       ??Z?$complex@N@std@@QAEAAV01@ABV01@@Z 7c08872c f i instances.obj
 0001:00007744       ??X?$complex@N@std@@QAEAAV01@ABV01@@Z 7c088744 f i instances.obj
 0001:00007744       ??X?$complex@O@std@@QAEAAV01@ABV01@@Z 7c088744 f i instances.obj
 0001:00007756       ??_0?$complex@N@std@@QAEAAV01@ABV01@@Z 7c088756 f i instances.obj
 0001:00007768       ??_0?$complex@O@std@@QAEAAV01@ABV01@@Z 7c088768 f i instances.obj
 0001:0000777a       ??_F?$complex@M@std@@QAEXXZ 7c08877a f i instances.obj
 0001:00007782       ??_F?$complex@O@std@@QAEXXZ 7c088782 f i instances.obj
 0001:00007782       ??_F?$complex@N@std@@QAEXXZ 7c088782 f i instances.obj
 0001:0000778a       ??0?$complex@O@std@@QAE@ABV?$complex@M@1@@Z 7c08878a f i instances.obj
 0001:0000778a       ??0?$complex@N@std@@QAE@ABV?$complex@M@1@@Z 7c08878a f i instances.obj
 0001:0000779d       ??0?$complex@O@std@@QAE@ABV?$complex@N@1@@Z 7c08879d f i instances.obj
 0001:0000779d       ??0?$complex@N@std@@QAE@ABV?$complex@O@1@@Z 7c08879d f i instances.obj
 0001:000077b0       ??_E?$time_put@DV?$ostreambuf_iterator@DU?$char_traits@D@std@@@std@@@std@@MAEPAXI@Z 7c0887b0 f i instances.obj
 0001:000077f9       ??_E?$time_put@_WV?$ostreambuf_iterator@_WU?$char_traits@_W@std@@@std@@@std@@MAEPAXI@Z 7c0887f9 f i instances.obj
 0001:00007842       ??_E?$time_put@GV?$ostreambuf_iterator@GU?$char_traits@G@std@@@std@@@std@@MAEPAXI@Z 7c088842 f i instances.obj
 0001:0000788b       ?at@?$basic_string@GU?$char_traits@G@std@@V?$allocator@G@2@@std@@QAEAAGI@Z 7c08888b f i instances.obj
 0001:0000788b       ?at@?$basic_string@_WU?$char_traits@_W@std@@V?$allocator@_W@2@@std@@QBEAB_WI@Z 7c08888b f i instances.obj
 0001:0000788b       ?at@?$basic_string@_WU?$char_traits@_W@std@@V?$allocator@_W@2@@std@@QAEAA_WI@Z 7c08888b f i instances.obj
 0001:0000788b       ?at@?$basic_string@GU?$char_traits@G@std@@V?$allocator@G@2@@std@@QBEABGI@Z 7c08888b f i instances.obj
 0001:000078b3       ??A?$basic_string@GU?$char_traits@G@std@@V?$allocator@G@2@@std@@QBEABGI@Z 7c0888b3 f i instances.obj
 0001:000078b3       ??A?$basic_string@GU?$char_traits@G@std@@V?$allocator@G@2@@std@@QAEAAGI@Z 7c0888b3 f i instances.obj
 0001:000078b3       ??A?$basic_string@_WU?$char_traits@_W@std@@V?$allocator@_W@2@@std@@QAEAA_WI@Z 7c0888b3 f i instances.obj
 0001:000078b3       ??A?$basic_string@_WU?$char_traits@_W@std@@V?$allocator@_W@2@@std@@QBEAB_WI@Z 7c0888b3 f i instances.obj
 0001:000078cb       ?_Myptr@?$basic_string@GU?$char_traits@G@std@@V?$allocator@G@2@@std@@QBEPBGXZ 7c0888cb f i instances.obj
 0001:000078cb       ?data@?$basic_string@GU?$char_traits@G@std@@V?$allocator@G@2@@std@@QBEPBGXZ 7c0888cb f i instances.obj
 0001:000078cb       ?_Myptr@?$basic_string@_WU?$char_traits@_W@std@@V?$allocator@_W@2@@std@@QAEPA_WXZ 7c0888cb f i instances.obj
 0001:000078cb       ?_Myptr@?$basic_string@GU?$char_traits@G@std@@V?$allocator@G@2@@std@@QAEPAGXZ 7c0888cb f i instances.obj
 0001:000078cb       ?c_str@?$basic_string@GU?$char_traits@G@std@@V?$allocator@G@2@@std@@QBEPBGXZ 7c0888cb f i instances.obj
 0001:000078cb       ?c_str@?$basic_string@_WU?$char_traits@_W@std@@V?$allocator@_W@2@@std@@QBEPB_WXZ 7c0888cb f i instances.obj
 0001:000078cb       ?_Myptr@?$basic_string@_WU?$char_traits@_W@std@@V?$allocator@_W@2@@std@@QBEPB_WXZ 7c0888cb f i instances.obj
 0001:000078cb       ?data@?$basic_string@_WU?$char_traits@_W@std@@V?$allocator@_W@2@@std@@QBEPB_WXZ 7c0888cb f i instances.obj
 0001:000078d9       ?copy@?$basic_string@GU?$char_traits@G@std@@V?$allocator@G@2@@std@@QBEIPAGII@Z 7c0888d9 f i instances.obj
 0001:000078d9       ?copy@?$basic_string@_WU?$char_traits@_W@std@@V?$allocator@_W@2@@std@@QBEIPA_WII@Z 7c0888d9 f i instances.obj
 0001:00007922       ?find@?$basic_string@_WU?$char_traits@_W@std@@V?$allocator@_W@2@@std@@QBEIPB_WII@Z 7c088922 f i instances.obj
 0001:00007922       ?find@?$basic_string@GU?$char_traits@G@std@@V?$allocator@G@2@@std@@QBEIPBGII@Z 7c088922 f i instances.obj
 0001:000079c9       ?find@?$basic_string@_WU?$char_traits@_W@std@@V?$allocator@_W@2@@std@@QBEI_WI@Z 7c0889c9 f i instances.obj
 0001:000079c9       ?find_first_of@?$basic_string@_WU?$char_traits@_W@std@@V?$allocator@_W@2@@std@@QBEI_WI@Z 7c0889c9 f i instances.obj
 0001:000079c9       ?find_first_of@?$basic_string@GU?$char_traits@G@std@@V?$allocator@G@2@@std@@QBEIGI@Z 7c0889c9 f i instances.obj
 0001:000079c9       ?find@?$basic_string@GU?$char_traits@G@std@@V?$allocator@G@2@@std@@QBEIGI@Z 7c0889c9 f i instances.obj
 0001:000079dc       ?find_first_not_of@?$basic_string@_WU?$char_traits@_W@std@@V?$allocator@_W@2@@std@@QBEIPB_WII@Z 7c0889dc f i instances.obj
 0001:000079dc       ?find_first_not_of@?$basic_string@GU?$char_traits@G@std@@V?$allocator@G@2@@std@@QBEIPBGII@Z 7c0889dc f i instances.obj
 0001:00007a4b       ?find_first_not_of@?$basic_string@GU?$char_traits@G@std@@V?$allocator@G@2@@std@@QBEIGI@Z 7c088a4b f i instances.obj
 0001:00007a4b       ?find_first_not_of@?$basic_string@_WU?$char_traits@_W@std@@V?$allocator@_W@2@@std@@QBEI_WI@Z 7c088a4b f i instances.obj
 0001:00007a5e       ?find_last_not_of@?$basic_string@GU?$char_traits@G@std@@V?$allocator@G@2@@std@@QBEIPBGII@Z 7c088a5e f i instances.obj
 0001:00007a5e       ?find_last_not_of@?$basic_string@_WU?$char_traits@_W@std@@V?$allocator@_W@2@@std@@QBEIPB_WII@Z 7c088a5e f i instances.obj
 0001:00007acb       ?find_last_not_of@?$basic_string@_WU?$char_traits@_W@std@@V?$allocator@_W@2@@std@@QBEI_WI@Z 7c088acb f i instances.obj
 0001:00007acb       ?find_last_not_of@?$basic_string@GU?$char_traits@G@std@@V?$allocator@G@2@@std@@QBEIGI@Z 7c088acb f i instances.obj
 0001:00007ade       ?_Eos@?$basic_string@_WU?$char_traits@_W@std@@V?$allocator@_W@2@@std@@IAEXI@Z 7c088ade f i instances.obj
 0001:00007ade       ?_Eos@?$basic_string@GU?$char_traits@G@std@@V?$allocator@G@2@@std@@IAEXI@Z 7c088ade f i instances.obj
 0001:00007afb       ?end@?$basic_string@_WU?$char_traits@_W@std@@V?$allocator@_W@2@@std@@QAE?AViterator@12@XZ 7c088afb f i instances.obj
 0001:00007afb       ?end@?$basic_string@GU?$char_traits@G@std@@V?$allocator@G@2@@std@@QBE?AVconst_iterator@12@XZ 7c088afb f i instances.obj
 0001:00007afb       ?end@?$basic_string@GU?$char_traits@G@std@@V?$allocator@G@2@@std@@QAE?AViterator@12@XZ 7c088afb f i instances.obj
 0001:00007afb       ?end@?$basic_string@_WU?$char_traits@_W@std@@V?$allocator@_W@2@@std@@QBE?AVconst_iterator@12@XZ 7c088afb f i instances.obj
 0001:00007b18       ?rbegin@?$basic_string@_WU?$char_traits@_W@std@@V?$allocator@_W@2@@std@@QBE?AV?$reverse_iterator@Vconst_iterator@?$basic_string@_WU?$char_traits@_W@std@@V?$allocator@_W@2@@std@@@2@XZ 7c088b18 f i instances.obj
 0001:00007b18       ?rbegin@?$basic_string@_WU?$char_traits@_W@std@@V?$allocator@_W@2@@std@@QAE?AV?$reverse_iterator@Viterator@?$basic_string@_WU?$char_traits@_W@std@@V?$allocator@_W@2@@std@@@2@XZ 7c088b18 f i instances.obj
 0001:00007b18       ?rbegin@?$basic_string@GU?$char_traits@G@std@@V?$allocator@G@2@@std@@QBE?AV?$reverse_iterator@Vconst_iterator@?$basic_string@GU?$char_traits@G@std@@V?$allocator@G@2@@std@@@2@XZ 7c088b18 f i instances.obj
 0001:00007b18       ?rbegin@?$basic_string@GU?$char_traits@G@std@@V?$allocator@G@2@@std@@QAE?AV?$reverse_iterator@Viterator@?$basic_string@GU?$char_traits@G@std@@V?$allocator@G@2@@std@@@2@XZ 7c088b18 f i instances.obj
 0001:00007b30       ?begin@?$basic_string@GU?$char_traits@G@std@@V?$allocator@G@2@@std@@QAE?AViterator@12@XZ 7c088b30 f i instances.obj
 0001:00007b30       ?rend@?$basic_string@GU?$char_traits@G@std@@V?$allocator@G@2@@std@@QBE?AV?$reverse_iterator@Vconst_iterator@?$basic_string@GU?$char_traits@G@std@@V?$allocator@G@2@@std@@@2@XZ 7c088b30 f i instances.obj
 0001:00007b30       ?begin@?$basic_string@GU?$char_traits@G@std@@V?$allocator@G@2@@std@@QBE?AVconst_iterator@12@XZ 7c088b30 f i instances.obj
 0001:00007b30       ?rend@?$basic_string@_WU?$char_traits@_W@std@@V?$allocator@_W@2@@std@@QAE?AV?$reverse_iterator@Viterator@?$basic_string@_WU?$char_traits@_W@std@@V?$allocator@_W@2@@std@@@2@XZ 7c088b30 f i instances.obj
 0001:00007b30       ?rend@?$basic_string@_WU?$char_traits@_W@std@@V?$allocator@_W@2@@std@@QBE?AV?$reverse_iterator@Vconst_iterator@?$basic_string@_WU?$char_traits@_W@std@@V?$allocator@_W@2@@std@@@2@XZ 7c088b30 f i instances.obj
 0001:00007b30       ?begin@?$basic_string@_WU?$char_traits@_W@std@@V?$allocator@_W@2@@std@@QAE?AViterator@12@XZ 7c088b30 f i instances.obj
 0001:00007b30       ?rend@?$basic_string@GU?$char_traits@G@std@@V?$allocator@G@2@@std@@QAE?AV?$reverse_iterator@Viterator@?$basic_string@GU?$char_traits@G@std@@V?$allocator@G@2@@std@@@2@XZ 7c088b30 f i instances.obj
 0001:00007b30       ?begin@?$basic_string@_WU?$char_traits@_W@std@@V?$allocator@_W@2@@std@@QBE?AVconst_iterator@12@XZ 7c088b30 f i instances.obj
 0001:00007b47       ?max_size@?$basic_string@GU?$char_traits@G@std@@V?$allocator@G@2@@std@@QBEIXZ 7c088b47 f i instances.obj
 0001:00007b47       ?max_size@?$basic_string@_WU?$char_traits@_W@std@@V?$allocator@_W@2@@std@@QBEIXZ 7c088b47 f i instances.obj
 0001:00007b4d       ?find@?$basic_string@GU?$char_traits@G@std@@V?$allocator@G@2@@std@@QBEIPBGI@Z 7c088b4d f i instances.obj
 0001:00007b4d       ?find@?$basic_string@_WU?$char_traits@_W@std@@V?$allocator@_W@2@@std@@QBEIPB_WI@Z 7c088b4d f i instances.obj
 0001:00007b6f       ?rfind@?$basic_string@_WU?$char_traits@_W@std@@V?$allocator@_W@2@@std@@QBEIPB_WII@Z 7c088b6f f i instances.obj
 0001:00007b6f       ?rfind@?$basic_string@GU?$char_traits@G@std@@V?$allocator@G@2@@std@@QBEIPBGII@Z 7c088b6f f i instances.obj
 0001:00007c00       ?rfind@?$basic_string@GU?$char_traits@G@std@@V?$allocator@G@2@@std@@QBEIPBGI@Z 7c088c00 f i instances.obj
 0001:00007c00       ?rfind@?$basic_string@_WU?$char_traits@_W@std@@V?$allocator@_W@2@@std@@QBEIPB_WI@Z 7c088c00 f i instances.obj
 0001:00007c22       ?find_first_of@?$basic_string@GU?$char_traits@G@std@@V?$allocator@G@2@@std@@QBEIPBGII@Z 7c088c22 f i instances.obj
 0001:00007c22       ?find_first_of@?$basic_string@_WU?$char_traits@_W@std@@V?$allocator@_W@2@@std@@QBEIPB_WII@Z 7c088c22 f i instances.obj
 0001:00007c97       ?find_first_of@?$basic_string@GU?$char_traits@G@std@@V?$allocator@G@2@@std@@QBEIPBGI@Z 7c088c97 f i instances.obj
 0001:00007c97       ?find_first_of@?$basic_string@_WU?$char_traits@_W@std@@V?$allocator@_W@2@@std@@QBEIPB_WI@Z 7c088c97 f i instances.obj
 0001:00007cb9       ?find_last_of@?$basic_string@_WU?$char_traits@_W@std@@V?$allocator@_W@2@@std@@QBEIPB_WII@Z 7c088cb9 f i instances.obj
 0001:00007cb9       ?find_last_of@?$basic_string@GU?$char_traits@G@std@@V?$allocator@G@2@@std@@QBEIPBGII@Z 7c088cb9 f i instances.obj
 0001:00007d2c       ?find_last_of@?$basic_string@GU?$char_traits@G@std@@V?$allocator@G@2@@std@@QBEIPBGI@Z 7c088d2c f i instances.obj
 0001:00007d2c       ?find_last_of@?$basic_string@_WU?$char_traits@_W@std@@V?$allocator@_W@2@@std@@QBEIPB_WI@Z 7c088d2c f i instances.obj
 0001:00007d4e       ?find_last_of@?$basic_string@_WU?$char_traits@_W@std@@V?$allocator@_W@2@@std@@QBEI_WI@Z 7c088d4e f i instances.obj
 0001:00007d4e       ?find_last_of@?$basic_string@GU?$char_traits@G@std@@V?$allocator@G@2@@std@@QBEIGI@Z 7c088d4e f i instances.obj
 0001:00007d4e       ?rfind@?$basic_string@GU?$char_traits@G@std@@V?$allocator@G@2@@std@@QBEIGI@Z 7c088d4e f i instances.obj
 0001:00007d4e       ?rfind@?$basic_string@_WU?$char_traits@_W@std@@V?$allocator@_W@2@@std@@QBEI_WI@Z 7c088d4e f i instances.obj
 0001:00007d61       ?find_first_not_of@?$basic_string@GU?$char_traits@G@std@@V?$allocator@G@2@@std@@QBEIPBGI@Z 7c088d61 f i instances.obj
 0001:00007d61       ?find_first_not_of@?$basic_string@_WU?$char_traits@_W@std@@V?$allocator@_W@2@@std@@QBEIPB_WI@Z 7c088d61 f i instances.obj
 0001:00007d83       ?find_last_not_of@?$basic_string@_WU?$char_traits@_W@std@@V?$allocator@_W@2@@std@@QBEIPB_WI@Z 7c088d83 f i instances.obj
 0001:00007d83       ?find_last_not_of@?$basic_string@GU?$char_traits@G@std@@V?$allocator@G@2@@std@@QBEIPBGI@Z 7c088d83 f i instances.obj
 0001:00007da5       ?compare@?$basic_string@GU?$char_traits@G@std@@V?$allocator@G@2@@std@@QBEHIIPBGI@Z 7c088da5 f i instances.obj
 0001:00007da5       ?compare@?$basic_string@_WU?$char_traits@_W@std@@V?$allocator@_W@2@@std@@QBEHIIPB_WI@Z 7c088da5 f i instances.obj
 0001:00007e10       ?_Inside@?$basic_string@GU?$char_traits@G@std@@V?$allocator@G@2@@std@@IAE_NPBG@Z 7c088e10 f i instances.obj
 0001:00007e10       ?_Inside@?$basic_string@_WU?$char_traits@_W@std@@V?$allocator@_W@2@@std@@IAE_NPB_W@Z 7c088e10 f i instances.obj
 0001:00007e45       ?_Pdif@?$basic_string@GU?$char_traits@G@std@@V?$allocator@G@2@@std@@KAIVconst_iterator@12@0@Z 7c088e45 f i instances.obj
 0001:00007e45       ?_Pdif@?$basic_string@_WU?$char_traits@_W@std@@V?$allocator@_W@2@@std@@KAIVconst_iterator@12@0@Z 7c088e45 f i instances.obj
 0001:00007e55       ?_Tidy@?$basic_string@_WU?$char_traits@_W@std@@V?$allocator@_W@2@@std@@IAEX_NI@Z 7c088e55 f i instances.obj
 0001:00007e55       ?_Tidy@?$basic_string@GU?$char_traits@G@std@@V?$allocator@G@2@@std@@IAEX_NI@Z 7c088e55 f i instances.obj
 0001:00007e9e       ??0?$codecvt@DDH@std@@QAE@ABV_Locinfo@1@I@Z 7c088e9e f i instances.obj
 0001:00007eb0       ?in_avail@?$basic_streambuf@DU?$char_traits@D@std@@@std@@QAEHXZ 7c088eb0 f i instances.obj
 0001:00007ed3       ?sputbackc@?$basic_streambuf@DU?$char_traits@D@std@@@std@@QAEHD@Z 7c088ed3 f i instances.obj
 0001:00007f0e       ?stossc@?$basic_streambuf@DU?$char_traits@D@std@@@std@@QAEXXZ 7c088f0e f i instances.obj
 0001:00007f33       ?sungetc@?$basic_streambuf@DU?$char_traits@D@std@@@std@@QAEHXZ 7c088f33 f i instances.obj
 0001:00007f5e       ??0?$basic_streambuf@_WU?$char_traits@_W@std@@@std@@IAE@XZ 7c088f5e f i instances.obj
 0001:00007fb1       ??1?$basic_streambuf@_WU?$char_traits@_W@std@@@std@@UAE@XZ 7c088fb1 f i instances.obj
 0001:00007fda       ?in_avail@?$basic_streambuf@GU?$char_traits@G@std@@@std@@QAEHXZ 7c088fda f i instances.obj
 0001:00007fda       ?in_avail@?$basic_streambuf@_WU?$char_traits@_W@std@@@std@@QAEHXZ 7c088fda f i instances.obj
 0001:00007fff       ?sputbackc@?$basic_streambuf@_WU?$char_traits@_W@std@@@std@@QAEG_W@Z 7c088fff f i instances.obj
 0001:00007fff       ?sputbackc@?$basic_streambuf@GU?$char_traits@G@std@@@std@@QAEGG@Z 7c088fff f i instances.obj
 0001:0000803c       ?sungetc@?$basic_streambuf@GU?$char_traits@G@std@@@std@@QAEGXZ 7c08903c f i instances.obj
 0001:0000803c       ?sungetc@?$basic_streambuf@_WU?$char_traits@_W@std@@@std@@QAEGXZ 7c08903c f i instances.obj
 0001:0000806e       ?seekpos@?$basic_streambuf@DU?$char_traits@D@std@@@std@@MAE?AV?$fpos@H@2@V32@H@Z 7c08906e f i cerr.obj
 0001:0000806e       ?seekpos@?$basic_streambuf@_WU?$char_traits@_W@std@@@std@@MAE?AV?$fpos@H@2@V32@H@Z 7c08906e f i instances.obj
 0001:0000806e       ?seekpos@?$basic_streambuf@GU?$char_traits@G@std@@@std@@MAE?AV?$fpos@H@2@V32@H@Z 7c08906e f i instances.obj
 0001:00008084       ??0?$basic_streambuf@GU?$char_traits@G@std@@@std@@IAE@XZ 7c089084 f i instances.obj
 0001:000080d7       ??1?$basic_streambuf@GU?$char_traits@G@std@@@std@@UAE@XZ 7c0890d7 f i instances.obj
 0001:00008100       ?stossc@?$basic_streambuf@_WU?$char_traits@_W@std@@@std@@QAEXXZ 7c089100 f i instances.obj
 0001:00008100       ?stossc@?$basic_streambuf@GU?$char_traits@G@std@@@std@@QAEXXZ 7c089100 f i instances.obj
 0001:00008127       ??1?$numpunct@D@std@@MAE@XZ 7c089127 f i instances.obj
 0001:0000813d       ?_Init@?$numpunct@D@std@@IAEXABV_Locinfo@2@@Z 7c08913d f i instances.obj
 0001:000081f3       ?_Getcat@?$num_get@DV?$istreambuf_iterator@DU?$char_traits@D@std@@@std@@@std@@SAIPAPBVfacet@locale@2@@Z 7c0891f3 f i instances.obj
 0001:0000823c       ?_Getcat@?$num_put@DV?$ostreambuf_iterator@DU?$char_traits@D@std@@@std@@@std@@SAIPAPBVfacet@locale@2@@Z 7c08923c f i instances.obj
 0001:00008285       ??1?$numpunct@_W@std@@MAE@XZ 7c089285 f i instances.obj
 0001:0000829b       ?_Getcat@?$num_get@_WV?$istreambuf_iterator@_WU?$char_traits@_W@std@@@std@@@std@@SAIPAPBVfacet@locale@2@@Z 7c08929b f i instances.obj
 0001:000082e4       ?_Getcat@?$num_put@_WV?$ostreambuf_iterator@_WU?$char_traits@_W@std@@@std@@@std@@SAIPAPBVfacet@locale@2@@Z 7c0892e4 f i instances.obj
 0001:0000832d       ??1?$numpunct@G@std@@MAE@XZ 7c08932d f i instances.obj
 0001:00008343       ?_Init@?$numpunct@G@std@@IAEXABV_Locinfo@2@@Z 7c089343 f i instances.obj
 0001:00008343       ?_Init@?$numpunct@_W@std@@IAEXABV_Locinfo@2@@Z 7c089343 f i instances.obj
 0001:0000842e       ?_Getcat@?$num_get@GV?$istreambuf_iterator@GU?$char_traits@G@std@@@std@@@std@@SAIPAPBVfacet@locale@2@@Z 7c08942e f i instances.obj
 0001:00008477       ?_Getcat@?$num_put@GV?$ostreambuf_iterator@GU?$char_traits@G@std@@@std@@@std@@SAIPAPBVfacet@locale@2@@Z 7c089477 f i instances.obj
 0001:000084c0       ?copyfmt@?$basic_ios@DU?$char_traits@D@std@@@std@@QAEAAV12@ABV12@@Z 7c0894c0 f i instances.obj
 0001:000084e1       ?copyfmt@?$basic_ios@_WU?$char_traits@_W@std@@@std@@QAEAAV12@ABV12@@Z 7c0894e1 f i instances.obj
 0001:000084e1       ?copyfmt@?$basic_ios@GU?$char_traits@G@std@@@std@@QAEAAV12@ABV12@@Z 7c0894e1 f i instances.obj
 0001:00008504       ?opfx@?$basic_ostream@GU?$char_traits@G@std@@@std@@QAE_NXZ 7c089504 f i instances.obj
 0001:00008504       ?opfx@?$basic_ostream@DU?$char_traits@D@std@@@std@@QAE_NXZ 7c089504 f i instances.obj
 0001:00008504       ?opfx@?$basic_ostream@_WU?$char_traits@_W@std@@@std@@QAE_NXZ 7c089504 f i instances.obj
 0001:00008534       ?seekp@?$basic_ostream@_WU?$char_traits@_W@std@@@std@@QAEAAV12@V?$fpos@H@2@@Z 7c089534 f i instances.obj
 0001:00008534       ?seekp@?$basic_ostream@DU?$char_traits@D@std@@@std@@QAEAAV12@V?$fpos@H@2@@Z 7c089534 f i instances.obj
 0001:00008534       ?seekp@?$basic_ostream@GU?$char_traits@G@std@@@std@@QAEAAV12@V?$fpos@H@2@@Z 7c089534 f i instances.obj
 0001:00008592       ?tellp@?$basic_ostream@_WU?$char_traits@_W@std@@@std@@QAE?AV?$fpos@H@2@XZ 7c089592 f i instances.obj
 0001:00008592       ?tellp@?$basic_ostream@GU?$char_traits@G@std@@@std@@QAE?AV?$fpos@H@2@XZ 7c089592 f i instances.obj
 0001:00008592       ?tellp@?$basic_ostream@DU?$char_traits@D@std@@@std@@QAE?AV?$fpos@H@2@XZ 7c089592 f i instances.obj
 0001:000085c9       ?seekp@?$basic_ostream@GU?$char_traits@G@std@@@std@@QAEAAV12@JH@Z 7c0895c9 f i instances.obj
 0001:000085c9       ?seekp@?$basic_ostream@DU?$char_traits@D@std@@@std@@QAEAAV12@JH@Z 7c0895c9 f i instances.obj
 0001:000085c9       ?seekp@?$basic_ostream@_WU?$char_traits@_W@std@@@std@@QAEAAV12@JH@Z 7c0895c9 f i instances.obj
 0001:00008621       ?seekg@?$basic_istream@_WU?$char_traits@_W@std@@@std@@QAEAAV12@V?$fpos@H@2@@Z 7c089621 f i instances.obj
 0001:00008621       ?seekg@?$basic_istream@DU?$char_traits@D@std@@@std@@QAEAAV12@V?$fpos@H@2@@Z 7c089621 f i instances.obj
 0001:00008621       ?seekg@?$basic_istream@GU?$char_traits@G@std@@@std@@QAEAAV12@V?$fpos@H@2@@Z 7c089621 f i instances.obj
 0001:0000867f       ?seekg@?$basic_istream@DU?$char_traits@D@std@@@std@@QAEAAV12@JH@Z 7c08967f f i instances.obj
 0001:0000867f       ?seekg@?$basic_istream@_WU?$char_traits@_W@std@@@std@@QAEAAV12@JH@Z 7c08967f f i instances.obj
 0001:0000867f       ?seekg@?$basic_istream@GU?$char_traits@G@std@@@std@@QAEAAV12@JH@Z 7c08967f f i instances.obj
 0001:000086d7       ?tellg@?$basic_istream@GU?$char_traits@G@std@@@std@@QAE?AV?$fpos@H@2@XZ 7c0896d7 f i instances.obj
 0001:000086d7       ?tellg@?$basic_istream@DU?$char_traits@D@std@@@std@@QAE?AV?$fpos@H@2@XZ 7c0896d7 f i instances.obj
 0001:000086d7       ?tellg@?$basic_istream@_WU?$char_traits@_W@std@@@std@@QAE?AV?$fpos@H@2@XZ 7c0896d7 f i instances.obj
 0001:0000870e       ?seekoff@?$basic_stringbuf@DU?$char_traits@D@std@@V?$allocator@D@2@@std@@MAE?AV?$fpos@H@2@JHH@Z 7c08970e f i instances.obj
 0001:0000884f       ?seekpos@?$basic_stringbuf@DU?$char_traits@D@std@@V?$allocator@D@2@@std@@MAE?AV?$fpos@H@2@V32@H@Z 7c08984f f i instances.obj
 0001:00008915       ?_Tidy@?$basic_stringbuf@GU?$char_traits@G@std@@V?$allocator@G@2@@std@@IAEXXZ 7c089915 f i instances.obj
 0001:00008915       ?_Tidy@?$basic_stringbuf@DU?$char_traits@D@std@@V?$allocator@D@2@@std@@IAEXXZ 7c089915 f i instances.obj
 0001:00008915       ?_Tidy@?$basic_stringbuf@_WU?$char_traits@_W@std@@V?$allocator@_W@2@@std@@IAEXXZ 7c089915 f i instances.obj
 0001:00008952       ?seekoff@?$basic_stringbuf@_WU?$char_traits@_W@std@@V?$allocator@_W@2@@std@@MAE?AV?$fpos@H@2@JHH@Z 7c089952 f i instances.obj
 0001:00008952       ?seekoff@?$basic_stringbuf@GU?$char_traits@G@std@@V?$allocator@G@2@@std@@MAE?AV?$fpos@H@2@JHH@Z 7c089952 f i instances.obj
 0001:00008a97       ?seekpos@?$basic_stringbuf@GU?$char_traits@G@std@@V?$allocator@G@2@@std@@MAE?AV?$fpos@H@2@V32@H@Z 7c089a97 f i instances.obj
 0001:00008a97       ?seekpos@?$basic_stringbuf@_WU?$char_traits@_W@std@@V?$allocator@_W@2@@std@@MAE?AV?$fpos@H@2@V32@H@Z 7c089a97 f i instances.obj
 0001:00008b6c       ??0?$basic_filebuf@DU?$char_traits@D@std@@@std@@QAE@W4_Uninitialized@1@@Z 7c089b6c f i instances.obj
 0001:00008b89       ??0?$basic_filebuf@_WU?$char_traits@_W@std@@@std@@QAE@PAU_iobuf@@@Z 7c089b89 f i instances.obj
 0001:00008bae       ??0?$basic_filebuf@_WU?$char_traits@_W@std@@@std@@QAE@W4_Uninitialized@1@@Z 7c089bae f i instances.obj
 0001:00008bcb       ??0?$basic_filebuf@GU?$char_traits@G@std@@@std@@QAE@PAU_iobuf@@@Z 7c089bcb f i instances.obj
 0001:00008bf0       ??0?$basic_filebuf@GU?$char_traits@G@std@@@std@@QAE@W4_Uninitialized@1@@Z 7c089bf0 f i instances.obj
 0001:00008c0d       ??0?$messages@D@std@@QAE@I@Z 7c089c0d f i instances.obj
 0001:00008c5c       ??0?$messages@D@std@@QAE@ABV_Locinfo@1@I@Z 7c089c5c f i instances.obj
 0001:00008c6e       ?_Getcat@?$messages@D@std@@SAIPAPBVfacet@locale@2@@Z 7c089c6e f i instances.obj
 0001:00008cb7       ??0?$messages@_W@std@@QAE@I@Z 7c089cb7 f i instances.obj
 0001:00008d06       ??0?$messages@_W@std@@QAE@ABV_Locinfo@1@I@Z 7c089d06 f i instances.obj
 0001:00008d18       ?_Getcat@?$messages@_W@std@@SAIPAPBVfacet@locale@2@@Z 7c089d18 f i instances.obj
 0001:00008d61       ??0?$messages@G@std@@QAE@I@Z 7c089d61 f i instances.obj
 0001:00008db0       ??0?$messages@G@std@@QAE@ABV_Locinfo@1@I@Z 7c089db0 f i instances.obj
 0001:00008dc2       ?_Getcat@?$messages@G@std@@SAIPAPBVfacet@locale@2@@Z 7c089dc2 f i instances.obj
 0001:00008e0b       ??1?$_Mpunct@D@std@@MAE@XZ 7c089e0b f i instances.obj
 0001:00008e21       ?_Init@?$_Mpunct@D@std@@IAEXABV_Locinfo@2@@Z 7c089e21 f i instances.obj
 0001:00008f4d       ??0?$money_get@DV?$istreambuf_iterator@DU?$char_traits@D@std@@@std@@@std@@QAE@I@Z 7c089f4d f i instances.obj
 0001:00008fa7       ??0?$money_get@DV?$istreambuf_iterator@DU?$char_traits@D@std@@@std@@@std@@QAE@ABV_Locinfo@1@I@Z 7c089fa7 f i instances.obj
 0001:00008fc8       ?_Getcat@?$money_get@DV?$istreambuf_iterator@DU?$char_traits@D@std@@@std@@@std@@SAIPAPBVfacet@locale@2@@Z 7c089fc8 f i instances.obj
 0001:00009011       ??0?$money_put@DV?$ostreambuf_iterator@DU?$char_traits@D@std@@@std@@@std@@QAE@I@Z 7c08a011 f i instances.obj
 0001:0000906b       ??0?$money_put@DV?$ostreambuf_iterator@DU?$char_traits@D@std@@@std@@@std@@QAE@ABV_Locinfo@1@I@Z 7c08a06b f i instances.obj
 0001:0000908c       ?_Getcat@?$money_put@DV?$ostreambuf_iterator@DU?$char_traits@D@std@@@std@@@std@@SAIPAPBVfacet@locale@2@@Z 7c08a08c f i instances.obj
 0001:000090d5       ??1?$_Mpunct@_W@std@@MAE@XZ 7c08a0d5 f i instances.obj
 0001:000090eb       ??0?$money_get@_WV?$istreambuf_iterator@_WU?$char_traits@_W@std@@@std@@@std@@QAE@I@Z 7c08a0eb f i instances.obj
 0001:00009145       ??0?$money_get@_WV?$istreambuf_iterator@_WU?$char_traits@_W@std@@@std@@@std@@QAE@ABV_Locinfo@1@I@Z 7c08a145 f i instances.obj
 0001:00009166       ?_Getcat@?$money_get@_WV?$istreambuf_iterator@_WU?$char_traits@_W@std@@@std@@@std@@SAIPAPBVfacet@locale@2@@Z 7c08a166 f i instances.obj
 0001:000091af       ??0?$money_put@_WV?$ostreambuf_iterator@_WU?$char_traits@_W@std@@@std@@@std@@QAE@I@Z 7c08a1af f i instances.obj
 0001:00009209       ??0?$money_put@_WV?$ostreambuf_iterator@_WU?$char_traits@_W@std@@@std@@@std@@QAE@ABV_Locinfo@1@I@Z 7c08a209 f i instances.obj
 0001:0000922a       ?_Getcat@?$money_put@_WV?$ostreambuf_iterator@_WU?$char_traits@_W@std@@@std@@@std@@SAIPAPBVfacet@locale@2@@Z 7c08a22a f i instances.obj
 0001:00009273       ??1?$_Mpunct@G@std@@MAE@XZ 7c08a273 f i instances.obj
 0001:00009289       ?_Init@?$_Mpunct@G@std@@IAEXABV_Locinfo@2@@Z 7c08a289 f i instances.obj
 0001:00009289       ?_Init@?$_Mpunct@_W@std@@IAEXABV_Locinfo@2@@Z 7c08a289 f i instances.obj
 0001:000093ce       ??0?$money_get@GV?$istreambuf_iterator@GU?$char_traits@G@std@@@std@@@std@@QAE@I@Z 7c08a3ce f i instances.obj
 0001:00009428       ??0?$money_get@GV?$istreambuf_iterator@GU?$char_traits@G@std@@@std@@@std@@QAE@ABV_Locinfo@1@I@Z 7c08a428 f i instances.obj
 0001:00009449       ?_Getcat@?$money_get@GV?$istreambuf_iterator@GU?$char_traits@G@std@@@std@@@std@@SAIPAPBVfacet@locale@2@@Z 7c08a449 f i instances.obj
 0001:00009492       ??0?$money_put@GV?$ostreambuf_iterator@GU?$char_traits@G@std@@@std@@@std@@QAE@I@Z 7c08a492 f i instances.obj
 0001:000094ec       ??0?$money_put@GV?$ostreambuf_iterator@GU?$char_traits@G@std@@@std@@@std@@QAE@ABV_Locinfo@1@I@Z 7c08a4ec f i instances.obj
 0001:0000950d       ?_Getcat@?$money_put@GV?$ostreambuf_iterator@GU?$char_traits@G@std@@@std@@@std@@SAIPAPBVfacet@locale@2@@Z 7c08a50d f i instances.obj
 0001:00009556       ??1?$time_get@DV?$istreambuf_iterator@DU?$char_traits@D@std@@@std@@@std@@MAE@XZ 7c08a556 f i instances.obj
 0001:0000956c       ??0?$time_put@DV?$ostreambuf_iterator@DU?$char_traits@D@std@@@std@@@std@@QAE@I@Z 7c08a56c f i instances.obj
 0001:000095c7       ??0?$time_put@DV?$ostreambuf_iterator@DU?$char_traits@D@std@@@std@@@std@@QAE@ABV_Locinfo@1@I@Z 7c08a5c7 f i instances.obj
 0001:000095ea       ?_Getcat@?$time_put@DV?$ostreambuf_iterator@DU?$char_traits@D@std@@@std@@@std@@SAIPAPBVfacet@locale@2@@Z 7c08a5ea f i instances.obj
 0001:00009633       ??1?$time_get@_WV?$istreambuf_iterator@_WU?$char_traits@_W@std@@@std@@@std@@MAE@XZ 7c08a633 f i instances.obj
 0001:00009649       ??0?$time_put@_WV?$ostreambuf_iterator@_WU?$char_traits@_W@std@@@std@@@std@@QAE@I@Z 7c08a649 f i instances.obj
 0001:000096a4       ??0?$time_put@_WV?$ostreambuf_iterator@_WU?$char_traits@_W@std@@@std@@@std@@QAE@ABV_Locinfo@1@I@Z 7c08a6a4 f i instances.obj
 0001:000096c7       ?_Getcat@?$time_put@_WV?$ostreambuf_iterator@_WU?$char_traits@_W@std@@@std@@@std@@SAIPAPBVfacet@locale@2@@Z 7c08a6c7 f i instances.obj
 0001:00009710       ??1?$time_get@GV?$istreambuf_iterator@GU?$char_traits@G@std@@@std@@@std@@MAE@XZ 7c08a710 f i instances.obj
 0001:00009726       ??0?$time_put@GV?$ostreambuf_iterator@GU?$char_traits@G@std@@@std@@@std@@QAE@I@Z 7c08a726 f i instances.obj
 0001:00009781       ??0?$time_put@GV?$ostreambuf_iterator@GU?$char_traits@G@std@@@std@@@std@@QAE@ABV_Locinfo@1@I@Z 7c08a781 f i instances.obj
 0001:000097a4       ?_Getcat@?$time_put@GV?$ostreambuf_iterator@GU?$char_traits@G@std@@@std@@@std@@SAIPAPBVfacet@locale@2@@Z 7c08a7a4 f i instances.obj
 0001:000097ed       ??0?$collate@D@std@@QAE@I@Z 7c08a7ed f i instances.obj
 0001:00009847       ??0?$collate@D@std@@QAE@ABV_Locinfo@1@I@Z 7c08a847 f i instances.obj
 0001:00009868       ?_Getcat@?$collate@D@std@@SAIPAPBVfacet@locale@2@@Z 7c08a868 f i instances.obj
 0001:000098b1       ??0?$collate@_W@std@@QAE@I@Z 7c08a8b1 f i instances.obj
 0001:0000990b       ??0?$collate@_W@std@@QAE@ABV_Locinfo@1@I@Z 7c08a90b f i instances.obj
 0001:0000992c       ?_Getcat@?$collate@_W@std@@SAIPAPBVfacet@locale@2@@Z 7c08a92c f i instances.obj
 0001:00009975       ??0?$collate@G@std@@QAE@I@Z 7c08a975 f i instances.obj
 0001:000099cf       ??0?$collate@G@std@@QAE@ABV_Locinfo@1@I@Z 7c08a9cf f i instances.obj
 0001:000099f0       ?_Getcat@?$collate@G@std@@SAIPAPBVfacet@locale@2@@Z 7c08a9f0 f i instances.obj
 0001:00009a39       ?do_compare@?$collate@G@std@@MBEHPBG000@Z 7c08aa39 f i instances.obj
 0001:00009a58       ??_E?$_Mpunct@D@std@@MAEPAXI@Z 7c08aa58 f i instances.obj
 0001:00009aa1       ??_E?$_Mpunct@_W@std@@MAEPAXI@Z 7c08aaa1 f i instances.obj
 0001:00009aea       ??_E?$_Mpunct@G@std@@MAEPAXI@Z 7c08aaea f i instances.obj
 0001:00009b33       ??4?$ostreambuf_iterator@DU?$char_traits@D@std@@@std@@QAEAAV01@D@Z 7c08ab33 f i instances.obj
 0001:00009b54       ??4?$ostreambuf_iterator@_WU?$char_traits@_W@std@@@std@@QAEAAV01@_W@Z 7c08ab54 f i instances.obj
 0001:00009b54       ??4?$ostreambuf_iterator@GU?$char_traits@G@std@@@std@@QAEAAV01@G@Z 7c08ab54 f i instances.obj
 0001:00009b76       ?_Inc@?$istreambuf_iterator@DU?$char_traits@D@std@@@std@@AAEXXZ 7c08ab76 f i instances.obj
 0001:00009b98       ?_Peek@?$istreambuf_iterator@DU?$char_traits@D@std@@@std@@AAEDXZ 7c08ab98 f i instances.obj
 0001:00009bbc       ?_Inc@?$istreambuf_iterator@_WU?$char_traits@_W@std@@@std@@AAEXXZ 7c08abbc f i instances.obj
 0001:00009bbc       ?_Inc@?$istreambuf_iterator@GU?$char_traits@G@std@@@std@@AAEXXZ 7c08abbc f i instances.obj
 0001:00009bdf       ?_Peek@?$istreambuf_iterator@_WU?$char_traits@_W@std@@@std@@AAE_WXZ 7c08abdf f i instances.obj
 0001:00009bdf       ?_Peek@?$istreambuf_iterator@GU?$char_traits@G@std@@@std@@AAEGXZ 7c08abdf f i instances.obj
 0001:00009c09       ??$?6U?$char_traits@D@std@@@std@@YAAAV?$basic_ostream@DU?$char_traits@D@std@@@0@AAV10@PBD@Z 7c08ac09 f i instances.obj
 0001:00009d4f       ??$?6U?$char_traits@D@std@@@std@@YAAAV?$basic_ostream@DU?$char_traits@D@std@@@0@AAV10@D@Z 7c08ad4f f i instances.obj
 0001:00009e85       ??$?6U?$char_traits@D@std@@@std@@YAAAV?$basic_ostream@DU?$char_traits@D@std@@@0@AAV10@PBC@Z 7c08ae85 f i instances.obj
 0001:00009e85       ??$?6U?$char_traits@D@std@@@std@@YAAAV?$basic_ostream@DU?$char_traits@D@std@@@0@AAV10@PBE@Z 7c08ae85 f i instances.obj
 0001:00009e8a       ??$?6U?$char_traits@D@std@@@std@@YAAAV?$basic_ostream@DU?$char_traits@D@std@@@0@AAV10@E@Z 7c08ae8a f i instances.obj
 0001:00009e8a       ??$?6U?$char_traits@D@std@@@std@@YAAAV?$basic_ostream@DU?$char_traits@D@std@@@0@AAV10@C@Z 7c08ae8a f i instances.obj
 0001:00009e8f       ??$?6GU?$char_traits@G@std@@@std@@YAAAV?$basic_ostream@GU?$char_traits@G@std@@@0@AAV10@PBG@Z 7c08ae8f f i instances.obj
 0001:00009e8f       ??$?6_WU?$char_traits@_W@std@@@std@@YAAAV?$basic_ostream@_WU?$char_traits@_W@std@@@0@AAV10@PB_W@Z 7c08ae8f f i instances.obj
 0001:00009fd6       ??$?6GU?$char_traits@G@std@@@std@@YAAAV?$basic_ostream@GU?$char_traits@G@std@@@0@AAV10@G@Z 7c08afd6 f i instances.obj
 0001:00009fd6       ??$?6_WU?$char_traits@_W@std@@@std@@YAAAV?$basic_ostream@_WU?$char_traits@_W@std@@@0@AAV10@_W@Z 7c08afd6 f i instances.obj
 0001:0000a110       ??$?6DU?$char_traits@D@std@@V?$allocator@D@1@@std@@YAAAV?$basic_ostream@DU?$char_traits@D@std@@@0@AAV10@ABV?$basic_string@DU?$char_traits@D@std@@V?$allocator@D@2@@0@@Z 7c08b110 f i instances.obj
 0001:0000a277       ??$?6GU?$char_traits@G@std@@V?$allocator@G@1@@std@@YAAAV?$basic_ostream@GU?$char_traits@G@std@@@0@AAV10@ABV?$basic_string@GU?$char_traits@G@std@@V?$allocator@G@2@@0@@Z 7c08b277 f i instances.obj
 0001:0000a277       ??$?6_WU?$char_traits@_W@std@@V?$allocator@_W@1@@std@@YAAAV?$basic_ostream@_WU?$char_traits@_W@std@@@0@AAV10@ABV?$basic_string@_WU?$char_traits@_W@std@@V?$allocator@_W@2@@0@@Z 7c08b277 f i instances.obj
 0001:0000a3e2       ??$?HM@std@@YA?AV?$complex@M@0@ABV10@0@Z 7c08b3e2 f i instances.obj
 0001:0000a419       ??$?HM@std@@YA?AV?$complex@M@0@ABMABV10@@Z 7c08b419 f i instances.obj
 0001:0000a44d       ??$?GM@std@@YA?AV?$complex@M@0@ABV10@0@Z 7c08b44d f i instances.obj
 0001:0000a484       ??$?GM@std@@YA?AV?$complex@M@0@ABMABV10@@Z 7c08b484 f i instances.obj
 0001:0000a4b6       ??$?DM@std@@YA?AV?$complex@M@0@ABV10@0@Z 7c08b4b6 f i instances.obj
 0001:0000a4e4       ??$?DM@std@@YA?AV?$complex@M@0@ABMABV10@@Z 7c08b4e4 f i instances.obj
 0001:0000a510       ??$?KM@std@@YA?AV?$complex@M@0@ABV10@0@Z 7c08b510 f i instances.obj
 0001:0000a53e       ??$?KM@std@@YA?AV?$complex@M@0@ABMABV10@@Z 7c08b53e f i instances.obj
 0001:0000a56a       ??$?GM@std@@YA?AV?$complex@M@0@ABV10@@Z 7c08b56a f i instances.obj
 0001:0000a581       ??$conj@M@std@@YA?AV?$complex@M@0@ABV10@@Z 7c08b581 f i instances.obj
 0001:0000a596       ??$cos@M@std@@YA?AV?$complex@M@0@ABV10@@Z 7c08b596 f i instances.obj
 0001:0000a5f5       ??$cosh@M@std@@YA?AV?$complex@M@0@ABV10@@Z 7c08b5f5 f i instances.obj
 0001:0000a652       ??$exp@M@std@@YA?AV?$complex@M@0@ABV10@@Z 7c08b652 f i instances.obj
 0001:0000a6bd       ??$log@M@std@@YA?AV?$complex@M@0@ABV10@@Z 7c08b6bd f i instances.obj
 0001:0000a76e       ??$log10@M@std@@YA?AV?$complex@M@0@ABV10@@Z 7c08b76e f i instances.obj
 0001:0000a79e       ??$polar@M@std@@YA?AV?$complex@M@0@ABM0@Z 7c08b79e f i instances.obj
 0001:0000a7e1       ??$polar@M@std@@YA?AV?$complex@M@0@ABM@Z 7c08b7e1 f i instances.obj
 0001:0000a7f2       ??$pow@M@std@@YA?AV?$complex@M@0@ABV10@ABM@Z 7c08b7f2 f i instances.obj
 0001:0000a862       ??$pow@M@std@@YA?AV?$complex@M@0@ABV10@H@Z 7c08b862 f i instances.obj
 0001:0000a8e7       ??$pow@M@std@@YA?AV?$complex@M@0@ABMABV10@@Z 7c08b8e7 f i instances.obj
 0001:0000a9a0       ??$sin@M@std@@YA?AV?$complex@M@0@ABV10@@Z 7c08b9a0 f i instances.obj
 0001:0000a9fd       ??$sinh@M@std@@YA?AV?$complex@M@0@ABV10@@Z 7c08b9fd f i instances.obj
 0001:0000aa5a       ??$sqrt@M@std@@YA?AV?$complex@M@0@ABV10@@Z 7c08ba5a f i instances.obj
 0001:0000ab48       ??$tanh@M@std@@YA?AV?$complex@M@0@ABV10@@Z 7c08bb48 f i instances.obj
 0001:0000abc8       ??$tan@M@std@@YA?AV?$complex@M@0@ABV10@@Z 7c08bbc8 f i instances.obj
 0001:0000abff       ??$?HN@std@@YA?AV?$complex@N@0@ABV10@0@Z 7c08bbff f i instances.obj
 0001:0000abff       ??$?HO@std@@YA?AV?$complex@O@0@ABV10@0@Z 7c08bbff f i instances.obj
 0001:0000ac1f       ??$?DO@std@@YA?AV?$complex@O@0@ABOABV10@@Z 7c08bc1f f i instances.obj
 0001:0000ac1f       ??$?DN@std@@YA?AV?$complex@N@0@ABNABV10@@Z 7c08bc1f f i instances.obj
 0001:0000ac4d       ??$?KN@std@@YA?AV?$complex@N@0@ABV10@0@Z 7c08bc4d f i instances.obj
 0001:0000ac7a       ??$?KN@std@@YA?AV?$complex@N@0@ABNABV10@@Z 7c08bc7a f i instances.obj
 0001:0000aca8       ??$conj@N@std@@YA?AV?$complex@N@0@ABV10@@Z 7c08bca8 f i instances.obj
 0001:0000aca8       ??$conj@O@std@@YA?AV?$complex@O@0@ABV10@@Z 7c08bca8 f i instances.obj
 0001:0000acbd       ??$cos@N@std@@YA?AV?$complex@N@0@ABV10@@Z 7c08bcbd f i instances.obj
 0001:0000ad19       ??$cosh@N@std@@YA?AV?$complex@N@0@ABV10@@Z 7c08bd19 f i instances.obj
 0001:0000ad73       ??$exp@N@std@@YA?AV?$complex@N@0@ABV10@@Z 7c08bd73 f i instances.obj
 0001:0000adda       ??$log@N@std@@YA?AV?$complex@N@0@ABV10@@Z 7c08bdda f i instances.obj
 0001:0000ae91       ??$log10@N@std@@YA?AV?$complex@N@0@ABV10@@Z 7c08be91 f i instances.obj
 0001:0000aec3       ??$polar@O@std@@YA?AV?$complex@O@0@ABO@Z 7c08bec3 f i instances.obj
 0001:0000aec3       ??$polar@N@std@@YA?AV?$complex@N@0@ABN@Z 7c08bec3 f i instances.obj
 0001:0000aed5       ??$pow@N@std@@YA?AV?$complex@N@0@ABV10@ABN@Z 7c08bed5 f i instances.obj
 0001:0000af44       ??$pow@N@std@@YA?AV?$complex@N@0@ABV10@H@Z 7c08bf44 f i instances.obj
 0001:0000afc1       ??$pow@N@std@@YA?AV?$complex@N@0@ABNABV10@@Z 7c08bfc1 f i instances.obj
 0001:0000b06c       ??$sin@N@std@@YA?AV?$complex@N@0@ABV10@@Z 7c08c06c f i instances.obj
 0001:0000b0c6       ??$sinh@N@std@@YA?AV?$complex@N@0@ABV10@@Z 7c08c0c6 f i instances.obj
 0001:0000b120       ??$sqrt@N@std@@YA?AV?$complex@N@0@ABV10@@Z 7c08c120 f i instances.obj
 0001:0000b1d8       ??$tanh@N@std@@YA?AV?$complex@N@0@ABV10@@Z 7c08c1d8 f i instances.obj
 0001:0000b248       ??$tan@N@std@@YA?AV?$complex@N@0@ABV10@@Z 7c08c248 f i instances.obj
 0001:0000b27f       ??$?HO@std@@YA?AV?$complex@O@0@ABOABV10@@Z 7c08c27f f i instances.obj
 0001:0000b27f       ??$?HN@std@@YA?AV?$complex@N@0@ABNABV10@@Z 7c08c27f f i instances.obj
 0001:0000b2a0       ??$?GN@std@@YA?AV?$complex@N@0@ABV10@0@Z 7c08c2a0 f i instances.obj
 0001:0000b2a0       ??$?GO@std@@YA?AV?$complex@O@0@ABV10@0@Z 7c08c2a0 f i instances.obj
 0001:0000b2c2       ??$?GO@std@@YA?AV?$complex@O@0@ABOABV10@@Z 7c08c2c2 f i instances.obj
 0001:0000b2c2       ??$?GN@std@@YA?AV?$complex@N@0@ABNABV10@@Z 7c08c2c2 f i instances.obj
 0001:0000b2df       ??$?DN@std@@YA?AV?$complex@N@0@ABV10@0@Z 7c08c2df f i instances.obj
 0001:0000b2df       ??$?DO@std@@YA?AV?$complex@O@0@ABV10@0@Z 7c08c2df f i instances.obj
 0001:0000b30c       ??$?KO@std@@YA?AV?$complex@O@0@ABV10@0@Z 7c08c30c f i instances.obj
 0001:0000b339       ??$?KO@std@@YA?AV?$complex@O@0@ABOABV10@@Z 7c08c339 f i instances.obj
 0001:0000b367       ??$?GN@std@@YA?AV?$complex@N@0@ABV10@@Z 7c08c367 f i instances.obj
 0001:0000b367       ??$?GO@std@@YA?AV?$complex@O@0@ABV10@@Z 7c08c367 f i instances.obj
 0001:0000b37e       ??$cos@O@std@@YA?AV?$complex@O@0@ABV10@@Z 7c08c37e f i instances.obj
 0001:0000b3da       ??$cosh@O@std@@YA?AV?$complex@O@0@ABV10@@Z 7c08c3da f i instances.obj
 0001:0000b434       ??$exp@O@std@@YA?AV?$complex@O@0@ABV10@@Z 7c08c434 f i instances.obj
 0001:0000b49b       ??$log@O@std@@YA?AV?$complex@O@0@ABV10@@Z 7c08c49b f i instances.obj
 0001:0000b552       ??$log10@O@std@@YA?AV?$complex@O@0@ABV10@@Z 7c08c552 f i instances.obj
 0001:0000b584       ??$polar@N@std@@YA?AV?$complex@N@0@ABN0@Z 7c08c584 f i instances.obj
 0001:0000b584       ??$polar@O@std@@YA?AV?$complex@O@0@ABO0@Z 7c08c584 f i instances.obj
 0001:0000b5bf       ??$pow@O@std@@YA?AV?$complex@O@0@ABV10@ABO@Z 7c08c5bf f i instances.obj
 0001:0000b62e       ??$pow@O@std@@YA?AV?$complex@O@0@ABV10@H@Z 7c08c62e f i instances.obj
 0001:0000b6ab       ??$pow@O@std@@YA?AV?$complex@O@0@ABOABV10@@Z 7c08c6ab f i instances.obj
 0001:0000b756       ??$sin@O@std@@YA?AV?$complex@O@0@ABV10@@Z 7c08c756 f i instances.obj
 0001:0000b7b0       ??$sinh@O@std@@YA?AV?$complex@O@0@ABV10@@Z 7c08c7b0 f i instances.obj
 0001:0000b80a       ??$sqrt@O@std@@YA?AV?$complex@O@0@ABV10@@Z 7c08c80a f i instances.obj
 0001:0000b8c2       ??$tanh@O@std@@YA?AV?$complex@O@0@ABV10@@Z 7c08c8c2 f i instances.obj
 0001:0000b932       ??$tan@O@std@@YA?AV?$complex@O@0@ABV10@@Z 7c08c932 f i instances.obj
 0001:0000b969       ??$use_facet@V?$num_put@DV?$ostreambuf_iterator@DU?$char_traits@D@std@@@std@@@std@@@std@@YAABV?$num_put@DV?$ostreambuf_iterator@DU?$char_traits@D@std@@@std@@@0@ABVlocale@0@@Z 7c08c969 f i instances.obj
 0001:0000ba0e       ??$use_facet@V?$num_put@_WV?$ostreambuf_iterator@_WU?$char_traits@_W@std@@@std@@@std@@@std@@YAABV?$num_put@_WV?$ostreambuf_iterator@_WU?$char_traits@_W@std@@@std@@@0@ABVlocale@0@@Z 7c08ca0e f i instances.obj
 0001:0000bab3       ??$use_facet@V?$num_put@GV?$ostreambuf_iterator@GU?$char_traits@G@std@@@std@@@std@@@std@@YAABV?$num_put@GV?$ostreambuf_iterator@GU?$char_traits@G@std@@@std@@@0@ABVlocale@0@@Z 7c08cab3 f i instances.obj
 0001:0000bb58       ??$use_facet@V?$num_get@DV?$istreambuf_iterator@DU?$char_traits@D@std@@@std@@@std@@@std@@YAABV?$num_get@DV?$istreambuf_iterator@DU?$char_traits@D@std@@@std@@@0@ABVlocale@0@@Z 7c08cb58 f i instances.obj
 0001:0000bbfd       ??$use_facet@V?$num_get@_WV?$istreambuf_iterator@_WU?$char_traits@_W@std@@@std@@@std@@@std@@YAABV?$num_get@_WV?$istreambuf_iterator@_WU?$char_traits@_W@std@@@std@@@0@ABVlocale@0@@Z 7c08cbfd f i instances.obj
 0001:0000bca2       ??$use_facet@V?$num_get@GV?$istreambuf_iterator@GU?$char_traits@G@std@@@std@@@std@@@std@@YAABV?$num_get@GV?$istreambuf_iterator@GU?$char_traits@G@std@@@std@@@0@ABVlocale@0@@Z 7c08cca2 f i instances.obj
 0001:0000bd47       ??$use_facet@V?$codecvt@_WDH@std@@@std@@YAABV?$codecvt@_WDH@0@ABVlocale@0@@Z 7c08cd47 f i instances.obj
 0001:0000bdec       ??$use_facet@V?$codecvt@GDH@std@@@std@@YAABV?$codecvt@GDH@0@ABVlocale@0@@Z 7c08cdec f i instances.obj
 0001:0000be91       ?equal@?$istreambuf_iterator@DU?$char_traits@D@std@@@std@@QBE_NABV12@@Z 7c08ce91 f i instances.obj
 0001:0000becb       ?equal@?$istreambuf_iterator@_WU?$char_traits@_W@std@@@std@@QBE_NABV12@@Z 7c08cecb f i instances.obj
 0001:0000becb       ?equal@?$istreambuf_iterator@GU?$char_traits@G@std@@@std@@QBE_NABV12@@Z 7c08cecb f i instances.obj
 0001:0000bf05       ??_F?$codecvt@DDH@std@@QAEXXZ 7c08cf05 f i instances.obj
 0001:0000bf0d       ??_E?$basic_streambuf@DU?$char_traits@D@std@@@std@@UAEPAXI@Z 7c08cf0d f i instances.obj
 0001:0000bf56       ??_E?$basic_streambuf@_WU?$char_traits@_W@std@@@std@@UAEPAXI@Z 7c08cf56 f i instances.obj
 0001:0000bf9f       ??_E?$basic_streambuf@GU?$char_traits@G@std@@@std@@UAEPAXI@Z 7c08cf9f f i instances.obj
 0001:0000bfe8       ??_E?$numpunct@D@std@@MAEPAXI@Z 7c08cfe8 f i instances.obj
 0001:0000c031       ??_E?$numpunct@_W@std@@MAEPAXI@Z 7c08d031 f i instances.obj
 0001:0000c07a       ??_E?$numpunct@G@std@@MAEPAXI@Z 7c08d07a f i instances.obj
 0001:0000c0c3       ??_E?$basic_ostream@DU?$char_traits@D@std@@@std@@UAEPAXI@Z 7c08d0c3 f i instances.obj
 0001:0000c10d       ??_E?$basic_ostream@_WU?$char_traits@_W@std@@@std@@UAEPAXI@Z 7c08d10d f i instances.obj
 0001:0000c157       ??_E?$basic_ostream@GU?$char_traits@G@std@@@std@@UAEPAXI@Z 7c08d157 f i instances.obj
 0001:0000c1a1       ??_E?$basic_istream@DU?$char_traits@D@std@@@std@@UAEPAXI@Z 7c08d1a1 f i instances.obj
 0001:0000c1eb       ??_E?$basic_istream@_WU?$char_traits@_W@std@@@std@@UAEPAXI@Z 7c08d1eb f i instances.obj
 0001:0000c235       ??_E?$basic_istream@GU?$char_traits@G@std@@@std@@UAEPAXI@Z 7c08d235 f i instances.obj
 0001:0000c27f       ??_E?$basic_iostream@DU?$char_traits@D@std@@@std@@UAEPAXI@Z 7c08d27f f i instances.obj
 0001:0000c2c9       ??_E?$basic_iostream@_WU?$char_traits@_W@std@@@std@@UAEPAXI@Z 7c08d2c9 f i instances.obj
 0001:0000c313       ??_E?$basic_iostream@GU?$char_traits@G@std@@@std@@UAEPAXI@Z 7c08d313 f i instances.obj
 0001:0000c35d       ??_F?$basic_filebuf@DU?$char_traits@D@std@@@std@@QAEXXZ 7c08d35d f i instances.obj
 0001:0000c365       ??_F?$basic_filebuf@_WU?$char_traits@_W@std@@@std@@QAEXXZ 7c08d365 f i instances.obj
 0001:0000c36d       ??_F?$basic_filebuf@GU?$char_traits@G@std@@@std@@QAEXXZ 7c08d36d f i instances.obj
 0001:0000c375       ??_F?$messages@D@std@@QAEXXZ 7c08d375 f i instances.obj
 0001:0000c37d       ??_F?$messages@_W@std@@QAEXXZ 7c08d37d f i instances.obj
 0001:0000c385       ??_F?$messages@G@std@@QAEXXZ 7c08d385 f i instances.obj
 0001:0000c38d       ??1?$moneypunct@D$00@std@@UAE@XZ 7c08d38d f i instances.obj
 0001:0000c38d       ??1?$moneypunct@D$0A@@std@@UAE@XZ 7c08d38d f i instances.obj
 0001:0000c392       ??_E?$moneypunct@D$00@std@@UAEPAXI@Z 7c08d392 f i instances.obj
 0001:0000c392       ??_E?$moneypunct@D$0A@@std@@UAEPAXI@Z 7c08d392 f i instances.obj
 0001:0000c3db       ??_F?$money_get@DV?$istreambuf_iterator@DU?$char_traits@D@std@@@std@@@std@@QAEXXZ 7c08d3db f i instances.obj
 0001:0000c3e3       ??_F?$money_put@DV?$ostreambuf_iterator@DU?$char_traits@D@std@@@std@@@std@@QAEXXZ 7c08d3e3 f i instances.obj
 0001:0000c3eb       ??1?$moneypunct@_W$00@std@@UAE@XZ 7c08d3eb f i instances.obj
 0001:0000c3eb       ??1?$moneypunct@_W$0A@@std@@UAE@XZ 7c08d3eb f i instances.obj
 0001:0000c3f0       ??_E?$moneypunct@_W$0A@@std@@UAEPAXI@Z 7c08d3f0 f i instances.obj
 0001:0000c3f0       ??_E?$moneypunct@_W$00@std@@UAEPAXI@Z 7c08d3f0 f i instances.obj
 0001:0000c439       ??_F?$money_get@_WV?$istreambuf_iterator@_WU?$char_traits@_W@std@@@std@@@std@@QAEXXZ 7c08d439 f i instances.obj
 0001:0000c441       ??_F?$money_put@_WV?$ostreambuf_iterator@_WU?$char_traits@_W@std@@@std@@@std@@QAEXXZ 7c08d441 f i instances.obj
 0001:0000c449       ??1?$moneypunct@G$00@std@@UAE@XZ 7c08d449 f i instances.obj
 0001:0000c449       ??1?$moneypunct@G$0A@@std@@UAE@XZ 7c08d449 f i instances.obj
 0001:0000c44e       ??_E?$moneypunct@G$00@std@@UAEPAXI@Z 7c08d44e f i instances.obj
 0001:0000c44e       ??_E?$moneypunct@G$0A@@std@@UAEPAXI@Z 7c08d44e f i instances.obj
 0001:0000c497       ??_F?$money_get@GV?$istreambuf_iterator@GU?$char_traits@G@std@@@std@@@std@@QAEXXZ 7c08d497 f i instances.obj
 0001:0000c49f       ??_F?$money_put@GV?$ostreambuf_iterator@GU?$char_traits@G@std@@@std@@@std@@QAEXXZ 7c08d49f f i instances.obj
 0001:0000c4a7       ??_E?$time_get@DV?$istreambuf_iterator@DU?$char_traits@D@std@@@std@@@std@@MAEPAXI@Z 7c08d4a7 f i instances.obj
 0001:0000c4f0       ??_F?$time_put@DV?$ostreambuf_iterator@DU?$char_traits@D@std@@@std@@@std@@QAEXXZ 7c08d4f0 f i instances.obj
 0001:0000c4f8       ??_E?$time_get@_WV?$istreambuf_iterator@_WU?$char_traits@_W@std@@@std@@@std@@MAEPAXI@Z 7c08d4f8 f i instances.obj
 0001:0000c541       ??_F?$time_put@_WV?$ostreambuf_iterator@_WU?$char_traits@_W@std@@@std@@@std@@QAEXXZ 7c08d541 f i instances.obj
 0001:0000c549       ??_E?$time_get@GV?$istreambuf_iterator@GU?$char_traits@G@std@@@std@@@std@@MAEPAXI@Z 7c08d549 f i instances.obj
 0001:0000c592       ??_F?$time_put@GV?$ostreambuf_iterator@GU?$char_traits@G@std@@@std@@@std@@QAEXXZ 7c08d592 f i instances.obj
 0001:0000c59a       ??_F?$collate@D@std@@QAEXXZ 7c08d59a f i instances.obj
 0001:0000c5a2       ??_F?$collate@_W@std@@QAEXXZ 7c08d5a2 f i instances.obj
 0001:0000c5aa       ??_F?$collate@G@std@@QAEXXZ 7c08d5aa f i instances.obj
 0001:0000c5b2       ??0?$basic_string@_WU?$char_traits@_W@std@@V?$allocator@_W@2@@std@@QAE@ABV?$allocator@_W@1@@Z 7c08d5b2 f i instances.obj
 0001:0000c5b2       ??0?$basic_string@GU?$char_traits@G@std@@V?$allocator@G@2@@std@@QAE@ABV?$allocator@G@1@@Z 7c08d5b2 f i instances.obj
 0001:0000c5c9       ??1?$basic_string@GU?$char_traits@G@std@@V?$allocator@G@2@@std@@QAE@XZ 7c08d5c9 f i instances.obj
 0001:0000c5c9       ??1?$basic_string@_WU?$char_traits@_W@std@@V?$allocator@_W@2@@std@@QAE@XZ 7c08d5c9 f i instances.obj
 0001:0000c5d3       ?erase@?$basic_string@GU?$char_traits@G@std@@V?$allocator@G@2@@std@@QAE?AViterator@12@V312@@Z 7c08d5d3 f i instances.obj
 0001:0000c5d3       ?erase@?$basic_string@_WU?$char_traits@_W@std@@V?$allocator@_W@2@@std@@QAE?AViterator@12@V312@@Z 7c08d5d3 f i instances.obj
 0001:0000c61a       ?erase@?$basic_string@GU?$char_traits@G@std@@V?$allocator@G@2@@std@@QAE?AViterator@12@V312@0@Z 7c08d61a f i instances.obj
 0001:0000c61a       ?erase@?$basic_string@_WU?$char_traits@_W@std@@V?$allocator@_W@2@@std@@QAE?AViterator@12@V312@0@Z 7c08d61a f i instances.obj
 0001:0000c66c       ?clear@?$basic_string@GU?$char_traits@G@std@@V?$allocator@G@2@@std@@QAEXXZ 7c08d66c f i instances.obj
 0001:0000c66c       ?clear@?$basic_string@_WU?$char_traits@_W@std@@V?$allocator@_W@2@@std@@QAEXXZ 7c08d66c f i instances.obj
 0001:0000c69e       ?compare@?$basic_string@GU?$char_traits@G@std@@V?$allocator@G@2@@std@@QBEHABV12@@Z 7c08d69e f i instances.obj
 0001:0000c69e       ?compare@?$basic_string@_WU?$char_traits@_W@std@@V?$allocator@_W@2@@std@@QBEHABV12@@Z 7c08d69e f i instances.obj
 0001:0000c6c2       ?compare@?$basic_string@_WU?$char_traits@_W@std@@V?$allocator@_W@2@@std@@QBEHIIABV12@II@Z 7c08d6c2 f i instances.obj
 0001:0000c6c2       ?compare@?$basic_string@GU?$char_traits@G@std@@V?$allocator@G@2@@std@@QBEHIIABV12@II@Z 7c08d6c2 f i instances.obj
 0001:0000c710       ??0?$basic_string@GU?$char_traits@G@std@@V?$allocator@G@2@@std@@QAE@XZ 7c08d710 f i instances.obj
 0001:0000c710       ??0?$basic_string@_WU?$char_traits@_W@std@@V?$allocator@_W@2@@std@@QAE@XZ 7c08d710 f i instances.obj
 0001:0000c725       ?erase@?$basic_string@GU?$char_traits@G@std@@V?$allocator@G@2@@std@@QAEAAV12@II@Z 7c08d725 f i instances.obj
 0001:0000c725       ?erase@?$basic_string@_WU?$char_traits@_W@std@@V?$allocator@_W@2@@std@@QAEAAV12@II@Z 7c08d725 f i instances.obj
 0001:0000c794       ?find@?$basic_string@_WU?$char_traits@_W@std@@V?$allocator@_W@2@@std@@QBEIABV12@I@Z 7c08d794 f i instances.obj
 0001:0000c794       ?find@?$basic_string@GU?$char_traits@G@std@@V?$allocator@G@2@@std@@QBEIABV12@I@Z 7c08d794 f i instances.obj
 0001:0000c7b7       ?rfind@?$basic_string@_WU?$char_traits@_W@std@@V?$allocator@_W@2@@std@@QBEIABV12@I@Z 7c08d7b7 f i instances.obj
 0001:0000c7b7       ?rfind@?$basic_string@GU?$char_traits@G@std@@V?$allocator@G@2@@std@@QBEIABV12@I@Z 7c08d7b7 f i instances.obj
 0001:0000c7da       ?find_first_of@?$basic_string@GU?$char_traits@G@std@@V?$allocator@G@2@@std@@QBEIABV12@I@Z 7c08d7da f i instances.obj
 0001:0000c7da       ?find_first_of@?$basic_string@_WU?$char_traits@_W@std@@V?$allocator@_W@2@@std@@QBEIABV12@I@Z 7c08d7da f i instances.obj
 0001:0000c7fd       ?find_last_of@?$basic_string@GU?$char_traits@G@std@@V?$allocator@G@2@@std@@QBEIABV12@I@Z 7c08d7fd f i instances.obj
 0001:0000c7fd       ?find_last_of@?$basic_string@_WU?$char_traits@_W@std@@V?$allocator@_W@2@@std@@QBEIABV12@I@Z 7c08d7fd f i instances.obj
 0001:0000c820       ?find_first_not_of@?$basic_string@GU?$char_traits@G@std@@V?$allocator@G@2@@std@@QBEIABV12@I@Z 7c08d820 f i instances.obj
 0001:0000c820       ?find_first_not_of@?$basic_string@_WU?$char_traits@_W@std@@V?$allocator@_W@2@@std@@QBEIABV12@I@Z 7c08d820 f i instances.obj
 0001:0000c843       ?find_last_not_of@?$basic_string@GU?$char_traits@G@std@@V?$allocator@G@2@@std@@QBEIABV12@I@Z 7c08d843 f i instances.obj
 0001:0000c843       ?find_last_not_of@?$basic_string@_WU?$char_traits@_W@std@@V?$allocator@_W@2@@std@@QBEIABV12@I@Z 7c08d843 f i instances.obj
 0001:0000c866       ?compare@?$basic_string@GU?$char_traits@G@std@@V?$allocator@G@2@@std@@QBEHPBG@Z 7c08d866 f i instances.obj
 0001:0000c866       ?compare@?$basic_string@_WU?$char_traits@_W@std@@V?$allocator@_W@2@@std@@QBEHPB_W@Z 7c08d866 f i instances.obj
 0001:0000c889       ?compare@?$basic_string@_WU?$char_traits@_W@std@@V?$allocator@_W@2@@std@@QBEHIIPB_W@Z 7c08d889 f i instances.obj
 0001:0000c889       ?compare@?$basic_string@GU?$char_traits@G@std@@V?$allocator@G@2@@std@@QBEHIIPBG@Z 7c08d889 f i instances.obj
 0001:0000c8af       ?_Copy@?$basic_string@_WU?$char_traits@_W@std@@V?$allocator@_W@2@@std@@IAEXII@Z 7c08d8af f i instances.obj
 0001:0000c8af       ?_Copy@?$basic_string@GU?$char_traits@G@std@@V?$allocator@G@2@@std@@IAEXII@Z 7c08d8af f i instances.obj
 0001:0000c9a0       ?_Grow@?$basic_string@_WU?$char_traits@_W@std@@V?$allocator@_W@2@@std@@IAE_NI_N@Z 7c08d9a0 f i instances.obj
 0001:0000c9a0       ?_Grow@?$basic_string@GU?$char_traits@G@std@@V?$allocator@G@2@@std@@IAE_NI_N@Z 7c08d9a0 f i instances.obj
 0001:0000ca01       ??0?$numpunct@D@std@@QAE@I@Z 7c08da01 f i instances.obj
 0001:0000ca60       ??0?$numpunct@D@std@@QAE@ABV_Locinfo@1@I@Z 7c08da60 f i instances.obj
 0001:0000ca9a       ?_Getcat@?$numpunct@D@std@@SAIPAPBVfacet@locale@2@@Z 7c08da9a f i instances.obj
 0001:0000cae3       ?_Put@?$num_put@DV?$ostreambuf_iterator@DU?$char_traits@D@std@@@std@@@std@@ABA?AV?$ostreambuf_iterator@DU?$char_traits@D@std@@@2@V32@PBDI@Z 7c08dae3 f i instances.obj
 0001:0000cae3       ?_Putc@?$num_put@DV?$ostreambuf_iterator@DU?$char_traits@D@std@@@std@@@std@@ABA?AV?$ostreambuf_iterator@DU?$char_traits@D@std@@@2@V32@PBDI@Z 7c08dae3 f i instances.obj
 0001:0000cb14       ?_Rep@?$num_put@DV?$ostreambuf_iterator@DU?$char_traits@D@std@@@std@@@std@@ABA?AV?$ostreambuf_iterator@DU?$char_traits@D@std@@@2@V32@DI@Z 7c08db14 f i instances.obj
 0001:0000cb3e       ?grouping@?$_Mpunct@D@std@@QBE?AV?$basic_string@DU?$char_traits@D@std@@V?$allocator@D@2@@2@XZ 7c08db3e f i instances.obj
 0001:0000cb3e       ?grouping@?$_Mpunct@_W@std@@QBE?AV?$basic_string@DU?$char_traits@D@std@@V?$allocator@D@2@@2@XZ 7c08db3e f i instances.obj
 0001:0000cb3e       ?grouping@?$numpunct@_W@std@@QBE?AV?$basic_string@DU?$char_traits@D@std@@V?$allocator@D@2@@2@XZ 7c08db3e f i instances.obj
 0001:0000cb3e       ?grouping@?$_Mpunct@G@std@@QBE?AV?$basic_string@DU?$char_traits@D@std@@V?$allocator@D@2@@2@XZ 7c08db3e f i instances.obj
 0001:0000cb3e       ?grouping@?$numpunct@G@std@@QBE?AV?$basic_string@DU?$char_traits@D@std@@V?$allocator@D@2@@2@XZ 7c08db3e f i instances.obj
 0001:0000cb3e       ?grouping@?$numpunct@D@std@@QBE?AV?$basic_string@DU?$char_traits@D@std@@V?$allocator@D@2@@2@XZ 7c08db3e f i instances.obj
 0001:0000cb55       ??0?$numpunct@_W@std@@QAE@I@Z 7c08db55 f i instances.obj
 0001:0000cbb4       ??0?$numpunct@_W@std@@QAE@ABV_Locinfo@1@I@Z 7c08dbb4 f i instances.obj
 0001:0000cbee       ?_Getcat@?$numpunct@_W@std@@SAIPAPBVfacet@locale@2@@Z 7c08dbee f i instances.obj
 0001:0000cc37       ?_Put@?$num_put@GV?$ostreambuf_iterator@GU?$char_traits@G@std@@@std@@@std@@ABA?AV?$ostreambuf_iterator@GU?$char_traits@G@std@@@2@V32@PBGI@Z 7c08dc37 f i instances.obj
 0001:0000cc37       ?_Put@?$num_put@_WV?$ostreambuf_iterator@_WU?$char_traits@_W@std@@@std@@@std@@ABA?AV?$ostreambuf_iterator@_WU?$char_traits@_W@std@@@2@V32@PB_WI@Z 7c08dc37 f i instances.obj
 0001:0000cc69       ?_Rep@?$num_put@GV?$ostreambuf_iterator@GU?$char_traits@G@std@@@std@@@std@@ABA?AV?$ostreambuf_iterator@GU?$char_traits@G@std@@@2@V32@GI@Z 7c08dc69 f i instances.obj
 0001:0000cc69       ?_Rep@?$num_put@_WV?$ostreambuf_iterator@_WU?$char_traits@_W@std@@@std@@@std@@ABA?AV?$ostreambuf_iterator@_WU?$char_traits@_W@std@@@2@V32@_WI@Z 7c08dc69 f i instances.obj
 0001:0000cc93       ??0?$numpunct@G@std@@QAE@I@Z 7c08dc93 f i instances.obj
 0001:0000ccf2       ??0?$numpunct@G@std@@QAE@ABV_Locinfo@1@I@Z 7c08dcf2 f i instances.obj
 0001:0000cd2c       ?_Getcat@?$numpunct@G@std@@SAIPAPBVfacet@locale@2@@Z 7c08dd2c f i instances.obj
 0001:0000cd75       ?_Putc@?$num_put@_WV?$ostreambuf_iterator@_WU?$char_traits@_W@std@@@std@@@std@@ABA?AV?$ostreambuf_iterator@_WU?$char_traits@_W@std@@@2@V32@PBDI@Z 7c08dd75 f i instances.obj
 0001:0000cd75       ?_Putc@?$num_put@GV?$ostreambuf_iterator@GU?$char_traits@G@std@@@std@@@std@@ABA?AV?$ostreambuf_iterator@GU?$char_traits@G@std@@@2@V32@PBDI@Z 7c08dd75 f i instances.obj
 0001:0000cdba       ?narrow@?$basic_ios@DU?$char_traits@D@std@@@std@@QBEDDD@Z 7c08ddba f i instances.obj
 0001:0000ce04       ?narrow@?$basic_ios@_WU?$char_traits@_W@std@@@std@@QBED_WD@Z 7c08de04 f i instances.obj
 0001:0000ce4e       ?widen@?$basic_ios@_WU?$char_traits@_W@std@@@std@@QBE_WD@Z 7c08de4e f i instances.obj
 0001:0000ce95       ?init@?$basic_ios@_WU?$char_traits@_W@std@@@std@@IAEXPAV?$basic_streambuf@_WU?$char_traits@_W@std@@@2@_N@Z 7c08de95 f i instances.obj
 0001:0000cee2       ?narrow@?$basic_ios@GU?$char_traits@G@std@@@std@@QBEDGD@Z 7c08dee2 f i instances.obj
 0001:0000cf2c       ?widen@?$basic_ios@GU?$char_traits@G@std@@@std@@QBEGD@Z 7c08df2c f i instances.obj
 0001:0000cf73       ?init@?$basic_ios@GU?$char_traits@G@std@@@std@@IAEXPAV?$basic_streambuf@GU?$char_traits@G@std@@@2@_N@Z 7c08df73 f i instances.obj
 0001:0000cfc0       ??6?$basic_ostream@DU?$char_traits@D@std@@@std@@QAEAAV01@_N@Z 7c08dfc0 f i instances.obj
 0001:0000d0a8       ??6?$basic_ostream@DU?$char_traits@D@std@@@std@@QAEAAV01@F@Z 7c08e0a8 f i instances.obj
 0001:0000d1b2       ??6?$basic_ostream@DU?$char_traits@D@std@@@std@@QAEAAV01@G@Z 7c08e1b2 f i instances.obj
 0001:0000d29c       ??6?$basic_ostream@DU?$char_traits@D@std@@@std@@QAEAAV01@J@Z 7c08e29c f i instances.obj
 0001:0000d29c       ??6?$basic_ostream@DU?$char_traits@D@std@@@std@@QAEAAV01@H@Z 7c08e29c f i instances.obj
 0001:0000d384       ??6?$basic_ostream@DU?$char_traits@D@std@@@std@@QAEAAV01@K@Z 7c08e384 f i instances.obj
 0001:0000d384       ??6?$basic_ostream@DU?$char_traits@D@std@@@std@@QAEAAV01@I@Z 7c08e384 f i instances.obj
 0001:0000d46c       ??6?$basic_ostream@DU?$char_traits@D@std@@@std@@QAEAAV01@_J@Z 7c08e46c f i instances.obj
 0001:0000d557       ??6?$basic_ostream@DU?$char_traits@D@std@@@std@@QAEAAV01@_K@Z 7c08e557 f i instances.obj
 0001:0000d642       ??6?$basic_ostream@DU?$char_traits@D@std@@@std@@QAEAAV01@M@Z 7c08e642 f i instances.obj
 0001:0000d72f       ??6?$basic_ostream@DU?$char_traits@D@std@@@std@@QAEAAV01@N@Z 7c08e72f f i instances.obj
 0001:0000d81c       ??6?$basic_ostream@DU?$char_traits@D@std@@@std@@QAEAAV01@O@Z 7c08e81c f i instances.obj
 0001:0000d909       ??6?$basic_ostream@DU?$char_traits@D@std@@@std@@QAEAAV01@PBX@Z 7c08e909 f i instances.obj
 0001:0000d9f1       ??6?$basic_ostream@DU?$char_traits@D@std@@@std@@QAEAAV01@PAV?$basic_streambuf@DU?$char_traits@D@std@@@1@@Z 7c08e9f1 f i instances.obj
 0001:0000db02       ??0?$basic_ostream@_WU?$char_traits@_W@std@@@std@@QAE@PAV?$basic_streambuf@_WU?$char_traits@_W@std@@@1@_N@Z 7c08eb02 f i instances.obj
 0001:0000db64       ??6?$basic_ostream@_WU?$char_traits@_W@std@@@std@@QAEAAV01@_N@Z 7c08eb64 f i instances.obj
 0001:0000dc48       ??6?$basic_ostream@_WU?$char_traits@_W@std@@@std@@QAEAAV01@F@Z 7c08ec48 f i instances.obj
 0001:0000dd4e       ??6?$basic_ostream@_WU?$char_traits@_W@std@@@std@@QAEAAV01@G@Z 7c08ed4e f i instances.obj
 0001:0000de35       ??6?$basic_ostream@_WU?$char_traits@_W@std@@@std@@QAEAAV01@H@Z 7c08ee35 f i instances.obj
 0001:0000de35       ??6?$basic_ostream@_WU?$char_traits@_W@std@@@std@@QAEAAV01@J@Z 7c08ee35 f i instances.obj
 0001:0000df19       ??6?$basic_ostream@_WU?$char_traits@_W@std@@@std@@QAEAAV01@I@Z 7c08ef19 f i instances.obj
 0001:0000df19       ??6?$basic_ostream@_WU?$char_traits@_W@std@@@std@@QAEAAV01@K@Z 7c08ef19 f i instances.obj
 0001:0000dffd       ??6?$basic_ostream@_WU?$char_traits@_W@std@@@std@@QAEAAV01@_J@Z 7c08effd f i instances.obj
 0001:0000e0e4       ??6?$basic_ostream@_WU?$char_traits@_W@std@@@std@@QAEAAV01@_K@Z 7c08f0e4 f i instances.obj
 0001:0000e1cb       ??6?$basic_ostream@_WU?$char_traits@_W@std@@@std@@QAEAAV01@M@Z 7c08f1cb f i instances.obj
 0001:0000e2b4       ??6?$basic_ostream@_WU?$char_traits@_W@std@@@std@@QAEAAV01@N@Z 7c08f2b4 f i instances.obj
 0001:0000e39d       ??6?$basic_ostream@_WU?$char_traits@_W@std@@@std@@QAEAAV01@O@Z 7c08f39d f i instances.obj
 0001:0000e486       ??6?$basic_ostream@_WU?$char_traits@_W@std@@@std@@QAEAAV01@PBX@Z 7c08f486 f i instances.obj
 0001:0000e56a       ?write@?$basic_ostream@DU?$char_traits@D@std@@@std@@QAEAAV12@PBDH@Z 7c08f56a f i instances.obj
 0001:0000e56a       ?write@?$basic_ostream@_WU?$char_traits@_W@std@@@std@@QAEAAV12@PB_WH@Z 7c08f56a f i instances.obj
 0001:0000e56a       ?write@?$basic_ostream@GU?$char_traits@G@std@@@std@@QAEAAV12@PBGH@Z 7c08f56a f i instances.obj
 0001:0000e610       ??0?$basic_ostream@GU?$char_traits@G@std@@@std@@QAE@PAV?$basic_streambuf@GU?$char_traits@G@std@@@1@_N@Z 7c08f610 f i instances.obj
 0001:0000e672       ?_Osfx@?$basic_ostream@_WU?$char_traits@_W@std@@@std@@QAEXXZ 7c08f672 f i cerr.obj
 0001:0000e672       ?_Osfx@?$basic_ostream@GU?$char_traits@G@std@@@std@@QAEXXZ 7c08f672 f i cerr.obj
 0001:0000e672       ?osfx@?$basic_ostream@GU?$char_traits@G@std@@@std@@QAEXXZ 7c08f672 f i instances.obj
 0001:0000e672       ?_Osfx@?$basic_ostream@DU?$char_traits@D@std@@@std@@QAEXXZ 7c08f672 f i cerr.obj
 0001:0000e672       ?osfx@?$basic_ostream@DU?$char_traits@D@std@@@std@@QAEXXZ 7c08f672 f i instances.obj
 0001:0000e672       ?osfx@?$basic_ostream@_WU?$char_traits@_W@std@@@std@@QAEXXZ 7c08f672 f i instances.obj
 0001:0000e684       ??6?$basic_ostream@GU?$char_traits@G@std@@@std@@QAEAAV01@_N@Z 7c08f684 f i instances.obj
 0001:0000e768       ??6?$basic_ostream@GU?$char_traits@G@std@@@std@@QAEAAV01@F@Z 7c08f768 f i instances.obj
 0001:0000e86e       ??6?$basic_ostream@GU?$char_traits@G@std@@@std@@QAEAAV01@G@Z 7c08f86e f i instances.obj
 0001:0000e955       ??6?$basic_ostream@GU?$char_traits@G@std@@@std@@QAEAAV01@H@Z 7c08f955 f i instances.obj
 0001:0000e955       ??6?$basic_ostream@GU?$char_traits@G@std@@@std@@QAEAAV01@J@Z 7c08f955 f i instances.obj
 0001:0000ea39       ??6?$basic_ostream@GU?$char_traits@G@std@@@std@@QAEAAV01@K@Z 7c08fa39 f i instances.obj
 0001:0000ea39       ??6?$basic_ostream@GU?$char_traits@G@std@@@std@@QAEAAV01@I@Z 7c08fa39 f i instances.obj
 0001:0000eb1d       ??6?$basic_ostream@GU?$char_traits@G@std@@@std@@QAEAAV01@_J@Z 7c08fb1d f i instances.obj
 0001:0000ec04       ??6?$basic_ostream@GU?$char_traits@G@std@@@std@@QAEAAV01@_K@Z 7c08fc04 f i instances.obj
 0001:0000eceb       ??6?$basic_ostream@GU?$char_traits@G@std@@@std@@QAEAAV01@M@Z 7c08fceb f i instances.obj
 0001:0000edd4       ??6?$basic_ostream@GU?$char_traits@G@std@@@std@@QAEAAV01@N@Z 7c08fdd4 f i instances.obj
 0001:0000eebd       ??6?$basic_ostream@GU?$char_traits@G@std@@@std@@QAEAAV01@O@Z 7c08febd f i instances.obj
 0001:0000efa6       ??6?$basic_ostream@GU?$char_traits@G@std@@@std@@QAEAAV01@PBX@Z 7c08ffa6 f i instances.obj
 0001:0000f08a       ??6?$basic_ostream@_WU?$char_traits@_W@std@@@std@@QAEAAV01@PAV?$basic_streambuf@_WU?$char_traits@_W@std@@@1@@Z 7c09008a f i instances.obj
 0001:0000f08a       ??6?$basic_ostream@GU?$char_traits@G@std@@@std@@QAEAAV01@PAV?$basic_streambuf@GU?$char_traits@G@std@@@1@@Z 7c09008a f i instances.obj
 0001:0000f1a7       ?ipfx@?$basic_istream@DU?$char_traits@D@std@@@std@@QAE_N_N@Z 7c0901a7 f i instances.obj
 0001:0000f1ac       ??0?$basic_istream@_WU?$char_traits@_W@std@@@std@@QAE@PAV?$basic_streambuf@_WU?$char_traits@_W@std@@@1@_N1@Z 7c0901ac f i instances.obj
 0001:0000f216       ?ipfx@?$basic_istream@_WU?$char_traits@_W@std@@@std@@QAE_N_N@Z 7c090216 f i instances.obj
 0001:0000f21b       ??0?$basic_istream@GU?$char_traits@G@std@@@std@@QAE@PAV?$basic_streambuf@GU?$char_traits@G@std@@@1@_N1@Z 7c09021b f i instances.obj
 0001:0000f285       ?ipfx@?$basic_istream@GU?$char_traits@G@std@@@std@@QAE_N_N@Z 7c090285 f i instances.obj
 0001:0000f28a       ??0?$basic_iostream@DU?$char_traits@D@std@@@std@@QAE@PAV?$basic_streambuf@DU?$char_traits@D@std@@@1@@Z 7c09028a f i instances.obj
 0001:0000f2fe       ??0?$basic_iostream@_WU?$char_traits@_W@std@@@std@@QAE@PAV?$basic_streambuf@_WU?$char_traits@_W@std@@@1@@Z 7c0902fe f i instances.obj
 0001:0000f372       ??0?$basic_iostream@GU?$char_traits@G@std@@@std@@QAE@PAV?$basic_streambuf@GU?$char_traits@G@std@@@1@@Z 7c090372 f i instances.obj
 0001:0000f3e6       ??1?$basic_stringbuf@DU?$char_traits@D@std@@V?$allocator@D@2@@std@@UAE@XZ 7c0903e6 f i instances.obj
 0001:0000f3fc       ?overflow@?$basic_stringbuf@DU?$char_traits@D@std@@V?$allocator@D@2@@std@@MAEHH@Z 7c0903fc f i instances.obj
 0001:0000f59b       ?_Init@?$basic_stringbuf@DU?$char_traits@D@std@@V?$allocator@D@2@@std@@IAEXPBDIH@Z 7c09059b f i instances.obj
 0001:0000f622       ??1?$basic_stringbuf@_WU?$char_traits@_W@std@@V?$allocator@_W@2@@std@@UAE@XZ 7c090622 f i instances.obj
 0001:0000f638       ?overflow@?$basic_stringbuf@GU?$char_traits@G@std@@V?$allocator@G@2@@std@@MAEGG@Z 7c090638 f i instances.obj
 0001:0000f638       ?overflow@?$basic_stringbuf@_WU?$char_traits@_W@std@@V?$allocator@_W@2@@std@@MAEGG@Z 7c090638 f i instances.obj
 0001:0000f804       ?_Init@?$basic_stringbuf@_WU?$char_traits@_W@std@@V?$allocator@_W@2@@std@@IAEXPB_WIH@Z 7c090804 f i instances.obj
 0001:0000f804       ?_Init@?$basic_stringbuf@GU?$char_traits@G@std@@V?$allocator@G@2@@std@@IAEXPBGIH@Z 7c090804 f i instances.obj
 0001:0000f899       ??1?$basic_stringbuf@GU?$char_traits@G@std@@V?$allocator@G@2@@std@@UAE@XZ 7c090899 f i instances.obj
 0001:0000f8af       ??1?$basic_istringstream@DU?$char_traits@D@std@@V?$allocator@D@2@@std@@UAE@XZ 7c0908af f i instances.obj
 0001:0000f8f5       ??1?$basic_istringstream@_WU?$char_traits@_W@std@@V?$allocator@_W@2@@std@@UAE@XZ 7c0908f5 f i instances.obj
 0001:0000f93b       ??1?$basic_istringstream@GU?$char_traits@G@std@@V?$allocator@G@2@@std@@UAE@XZ 7c09093b f i instances.obj
 0001:0000f981       ??1?$basic_ostringstream@DU?$char_traits@D@std@@V?$allocator@D@2@@std@@UAE@XZ 7c090981 f i instances.obj
 0001:0000f9c7       ??1?$basic_ostringstream@_WU?$char_traits@_W@std@@V?$allocator@_W@2@@std@@UAE@XZ 7c0909c7 f i instances.obj
 0001:0000fa0d       ??1?$basic_ostringstream@GU?$char_traits@G@std@@V?$allocator@G@2@@std@@UAE@XZ 7c090a0d f i instances.obj
 0001:0000fa53       ??1?$basic_stringstream@DU?$char_traits@D@std@@V?$allocator@D@2@@std@@UAE@XZ 7c090a53 f i instances.obj
 0001:0000fa92       ??1?$basic_stringstream@_WU?$char_traits@_W@std@@V?$allocator@_W@2@@std@@UAE@XZ 7c090a92 f i instances.obj
 0001:0000fad1       ??1?$basic_stringstream@GU?$char_traits@G@std@@V?$allocator@G@2@@std@@UAE@XZ 7c090ad1 f i instances.obj
 0001:0000fb10       ?_Initcvt@?$basic_filebuf@DU?$char_traits@D@std@@@std@@IAEXPAV?$codecvt@DDH@2@@Z 7c090b10 f i cerr.obj
 0001:0000fb10       ?_Initcvt@?$basic_filebuf@GU?$char_traits@G@std@@@std@@IAEXPAV?$codecvt@GDH@2@@Z 7c090b10 f i instances.obj
 0001:0000fb10       ?_Initcvt@?$basic_filebuf@_WU?$char_traits@_W@std@@@std@@IAEXPAV?$codecvt@_WDH@2@@Z 7c090b10 f i instances.obj
 0001:0000fb58       ?get@?$messages@_W@std@@QBE?AV?$basic_string@_WU?$char_traits@_W@std@@V?$allocator@_W@2@@2@HHHABV32@@Z 7c090b58 f i instances.obj
 0001:0000fb58       ?get@?$messages@G@std@@QBE?AV?$basic_string@GU?$char_traits@G@std@@V?$allocator@G@2@@2@HHHABV32@@Z 7c090b58 f i instances.obj
 0001:0000fb58       ?get@?$messages@D@std@@QBE?AV?$basic_string@DU?$char_traits@D@std@@V?$allocator@D@2@@2@HHHABV32@@Z 7c090b58 f i instances.obj
 0001:0000fb7b       ?positive_sign@?$_Mpunct@D@std@@QBE?AV?$basic_string@DU?$char_traits@D@std@@V?$allocator@D@2@@2@XZ 7c090b7b f i instances.obj
 0001:0000fb7b       ?positive_sign@?$_Mpunct@_W@std@@QBE?AV?$basic_string@_WU?$char_traits@_W@std@@V?$allocator@_W@2@@2@XZ 7c090b7b f i instances.obj
 0001:0000fb7b       ?truename@?$numpunct@D@std@@QBE?AV?$basic_string@DU?$char_traits@D@std@@V?$allocator@D@2@@2@XZ 7c090b7b f i instances.obj
 0001:0000fb7b       ?positive_sign@?$_Mpunct@G@std@@QBE?AV?$basic_string@GU?$char_traits@G@std@@V?$allocator@G@2@@2@XZ 7c090b7b f i instances.obj
 0001:0000fb7b       ?truename@?$numpunct@G@std@@QBE?AV?$basic_string@GU?$char_traits@G@std@@V?$allocator@G@2@@2@XZ 7c090b7b f i instances.obj
 0001:0000fb7b       ?truename@?$numpunct@_W@std@@QBE?AV?$basic_string@_WU?$char_traits@_W@std@@V?$allocator@_W@2@@2@XZ 7c090b7b f i instances.obj
 0001:0000fb92       ??0?$_Mpunct@D@std@@QAE@I_N@Z 7c090b92 f i instances.obj
 0001:0000fbf7       ??0?$_Mpunct@D@std@@QAE@ABV_Locinfo@1@I_N@Z 7c090bf7 f i instances.obj
 0001:0000fc37       ??0?$moneypunct@D$0A@@std@@QAE@I@Z 7c090c37 f i instances.obj
 0001:0000fc51       ??0?$moneypunct@D$0A@@std@@QAE@ABV_Locinfo@1@I@Z 7c090c51 f i instances.obj
 0001:0000fc6f       ?_Getcat@?$moneypunct@D$0A@@std@@SAIPAPBVfacet@locale@2@@Z 7c090c6f f i instances.obj
 0001:0000fcb8       ?_Put@?$money_put@DV?$ostreambuf_iterator@DU?$char_traits@D@std@@@std@@@std@@CA?AV?$ostreambuf_iterator@DU?$char_traits@D@std@@@2@V32@Vconst_iterator@?$basic_string@DU?$char_traits@D@std@@V?$allocator@D@2@@2@I@Z 7c090cb8 f i instances.obj
 0001:0000fce9       ?_Rep@?$money_put@DV?$ostreambuf_iterator@DU?$char_traits@D@std@@@std@@@std@@CA?AV?$ostreambuf_iterator@DU?$char_traits@D@std@@@2@V32@DI@Z 7c090ce9 f i instances.obj
 0001:0000fd13       ??0?$_Mpunct@_W@std@@QAE@I_N@Z 7c090d13 f i instances.obj
 0001:0000fd78       ??0?$_Mpunct@_W@std@@QAE@ABV_Locinfo@1@I_N@Z 7c090d78 f i instances.obj
 0001:0000fdb8       ??0?$moneypunct@_W$0A@@std@@QAE@I@Z 7c090db8 f i instances.obj
 0001:0000fdd2       ??0?$moneypunct@_W$0A@@std@@QAE@ABV_Locinfo@1@I@Z 7c090dd2 f i instances.obj
 0001:0000fdf0       ?_Getcat@?$moneypunct@_W$0A@@std@@SAIPAPBVfacet@locale@2@@Z 7c090df0 f i instances.obj
 0001:0000fe39       ?_Put@?$money_put@_WV?$ostreambuf_iterator@_WU?$char_traits@_W@std@@@std@@@std@@CA?AV?$ostreambuf_iterator@_WU?$char_traits@_W@std@@@2@V32@Vconst_iterator@?$basic_string@_WU?$char_traits@_W@std@@V?$allocator@_W@2@@2@I@Z 7c090e39 f i instances.obj
 0001:0000fe39       ?_Put@?$money_put@GV?$ostreambuf_iterator@GU?$char_traits@G@std@@@std@@@std@@CA?AV?$ostreambuf_iterator@GU?$char_traits@G@std@@@2@V32@Vconst_iterator@?$basic_string@GU?$char_traits@G@std@@V?$allocator@G@2@@2@I@Z 7c090e39 f i instances.obj
 0001:0000fe6b       ?curr_symbol@?$_Mpunct@D@std@@QBE?AV?$basic_string@DU?$char_traits@D@std@@V?$allocator@D@2@@2@XZ 7c090e6b f i instances.obj
 0001:0000fe6b       ?curr_symbol@?$_Mpunct@_W@std@@QBE?AV?$basic_string@_WU?$char_traits@_W@std@@V?$allocator@_W@2@@2@XZ 7c090e6b f i instances.obj
 0001:0000fe6b       ?curr_symbol@?$_Mpunct@G@std@@QBE?AV?$basic_string@GU?$char_traits@G@std@@V?$allocator@G@2@@2@XZ 7c090e6b f i instances.obj
 0001:0000fe6b       ?falsename@?$numpunct@_W@std@@QBE?AV?$basic_string@_WU?$char_traits@_W@std@@V?$allocator@_W@2@@2@XZ 7c090e6b f i instances.obj
 0001:0000fe6b       ?falsename@?$numpunct@G@std@@QBE?AV?$basic_string@GU?$char_traits@G@std@@V?$allocator@G@2@@2@XZ 7c090e6b f i instances.obj
 0001:0000fe6b       ?falsename@?$numpunct@D@std@@QBE?AV?$basic_string@DU?$char_traits@D@std@@V?$allocator@D@2@@2@XZ 7c090e6b f i instances.obj
 0001:0000fe82       ?negative_sign@?$_Mpunct@G@std@@QBE?AV?$basic_string@GU?$char_traits@G@std@@V?$allocator@G@2@@2@XZ 7c090e82 f i instances.obj
 0001:0000fe82       ?negative_sign@?$_Mpunct@D@std@@QBE?AV?$basic_string@DU?$char_traits@D@std@@V?$allocator@D@2@@2@XZ 7c090e82 f i instances.obj
 0001:0000fe82       ?negative_sign@?$_Mpunct@_W@std@@QBE?AV?$basic_string@_WU?$char_traits@_W@std@@V?$allocator@_W@2@@2@XZ 7c090e82 f i instances.obj
 0001:0000fe99       ??0?$_Mpunct@G@std@@QAE@I_N@Z 7c090e99 f i instances.obj
 0001:0000fefe       ??0?$_Mpunct@G@std@@QAE@ABV_Locinfo@1@I_N@Z 7c090efe f i instances.obj
 0001:0000ff3e       ??0?$moneypunct@G$0A@@std@@QAE@I@Z 7c090f3e f i instances.obj
 0001:0000ff58       ??0?$moneypunct@G$0A@@std@@QAE@ABV_Locinfo@1@I@Z 7c090f58 f i instances.obj
 0001:0000ff76       ?_Getcat@?$moneypunct@G$0A@@std@@SAIPAPBVfacet@locale@2@@Z 7c090f76 f i instances.obj
 0001:0000ffbf       ?_Rep@?$money_put@GV?$ostreambuf_iterator@GU?$char_traits@G@std@@@std@@@std@@CA?AV?$ostreambuf_iterator@GU?$char_traits@G@std@@@2@V32@GI@Z 7c090fbf f i instances.obj
 0001:0000ffbf       ?_Rep@?$money_put@_WV?$ostreambuf_iterator@_WU?$char_traits@_W@std@@@std@@@std@@CA?AV?$ostreambuf_iterator@_WU?$char_traits@_W@std@@@2@V32@_WI@Z 7c090fbf f i instances.obj
 0001:0000ffe9       ?put@?$time_put@DV?$ostreambuf_iterator@DU?$char_traits@D@std@@@std@@@std@@QBE?AV?$ostreambuf_iterator@DU?$char_traits@D@std@@@2@V32@AAVios_base@2@DPBUtm@@PBD3@Z 7c090fe9 f i instances.obj
 0001:00010098       ?put@?$time_put@_WV?$ostreambuf_iterator@_WU?$char_traits@_W@std@@@std@@@std@@QBE?AV?$ostreambuf_iterator@_WU?$char_traits@_W@std@@@2@V32@AAVios_base@2@_WPBUtm@@PB_W4@Z 7c091098 f i instances.obj
 0001:00010098       ?put@?$time_put@GV?$ostreambuf_iterator@GU?$char_traits@G@std@@@std@@@std@@QBE?AV?$ostreambuf_iterator@GU?$char_traits@G@std@@@2@V32@AAVios_base@2@GPBUtm@@PBG3@Z 7c091098 f i instances.obj
 0001:00010196       ?transform@?$collate@G@std@@QBE?AV?$basic_string@GU?$char_traits@G@std@@V?$allocator@G@2@@2@PBG0@Z 7c091196 f i instances.obj
 0001:00010196       ?transform@?$collate@_W@std@@QBE?AV?$basic_string@_WU?$char_traits@_W@std@@V?$allocator@_W@2@@2@PB_W0@Z 7c091196 f i instances.obj
 0001:00010196       ?transform@?$collate@D@std@@QBE?AV?$basic_string@DU?$char_traits@D@std@@V?$allocator@D@2@@2@PBD0@Z 7c091196 f i instances.obj
 0001:000101b3       ??D?$istreambuf_iterator@DU?$char_traits@D@std@@@std@@QBEDXZ 7c0911b3 f i instances.obj
 0001:000101c6       ??D?$istreambuf_iterator@_WU?$char_traits@_W@std@@@std@@QBE_WXZ 7c0911c6 f i instances.obj
 0001:000101c6       ??D?$istreambuf_iterator@GU?$char_traits@G@std@@@std@@QBEGXZ 7c0911c6 f i instances.obj
 0001:000101da       ??$?5DU?$char_traits@D@std@@@std@@YAAAV?$basic_istream@DU?$char_traits@D@std@@@0@AAV10@PAD@Z 7c0911da f i instances.obj
 0001:000102fb       ??$?5DU?$char_traits@D@std@@@std@@YAAAV?$basic_istream@DU?$char_traits@D@std@@@0@AAV10@AAD@Z 7c0912fb f i instances.obj
 0001:0001039f       ??$?5DU?$char_traits@D@std@@@std@@YAAAV?$basic_istream@DU?$char_traits@D@std@@@0@AAV10@AAE@Z 7c09139f f i instances.obj
 0001:0001039f       ??$?5DU?$char_traits@D@std@@@std@@YAAAV?$basic_istream@DU?$char_traits@D@std@@@0@AAV10@AAC@Z 7c09139f f i instances.obj
 0001:000103a4       ??$?5DU?$char_traits@D@std@@@std@@YAAAV?$basic_istream@DU?$char_traits@D@std@@@0@AAV10@PAE@Z 7c0913a4 f i instances.obj
 0001:000103a4       ??$?5DU?$char_traits@D@std@@@std@@YAAAV?$basic_istream@DU?$char_traits@D@std@@@0@AAV10@PAC@Z 7c0913a4 f i instances.obj
 0001:000103a9       ??$?5_WU?$char_traits@_W@std@@@std@@YAAAV?$basic_istream@_WU?$char_traits@_W@std@@@0@AAV10@PA_W@Z 7c0913a9 f i instances.obj
 0001:000104da       ??$?5_WU?$char_traits@_W@std@@@std@@YAAAV?$basic_istream@_WU?$char_traits@_W@std@@@0@AAV10@AA_W@Z 7c0914da f i instances.obj
 0001:00010586       ??$?5GU?$char_traits@G@std@@@std@@YAAAV?$basic_istream@GU?$char_traits@G@std@@@0@AAV10@PAG@Z 7c091586 f i instances.obj
 0001:000106b7       ??$?5GU?$char_traits@G@std@@@std@@YAAAV?$basic_istream@GU?$char_traits@G@std@@@0@AAV10@AAG@Z 7c0916b7 f i instances.obj
 0001:00010763       ??$?8DU?$char_traits@D@std@@V?$allocator@D@1@@std@@YA_NABV?$basic_string@DU?$char_traits@D@std@@V?$allocator@D@2@@0@0@Z 7c091763 f i instances.obj
 0001:00010776       ??$?8DU?$char_traits@D@std@@V?$allocator@D@1@@std@@YA_NPBDABV?$basic_string@DU?$char_traits@D@std@@V?$allocator@D@2@@0@@Z 7c091776 f i instances.obj
 0001:00010789       ??$?8DU?$char_traits@D@std@@V?$allocator@D@1@@std@@YA_NABV?$basic_string@DU?$char_traits@D@std@@V?$allocator@D@2@@0@PBD@Z 7c091789 f i instances.obj
 0001:0001079c       ??$?9DU?$char_traits@D@std@@V?$allocator@D@1@@std@@YA_NABV?$basic_string@DU?$char_traits@D@std@@V?$allocator@D@2@@0@0@Z 7c09179c f i instances.obj
 0001:000107b0       ??$?9DU?$char_traits@D@std@@V?$allocator@D@1@@std@@YA_NPBDABV?$basic_string@DU?$char_traits@D@std@@V?$allocator@D@2@@0@@Z 7c0917b0 f i instances.obj
 0001:000107c4       ??$?9DU?$char_traits@D@std@@V?$allocator@D@1@@std@@YA_NABV?$basic_string@DU?$char_traits@D@std@@V?$allocator@D@2@@0@PBD@Z 7c0917c4 f i instances.obj
 0001:000107d8       ??$?MDU?$char_traits@D@std@@V?$allocator@D@1@@std@@YA_NABV?$basic_string@DU?$char_traits@D@std@@V?$allocator@D@2@@0@0@Z 7c0917d8 f i instances.obj
 0001:000107ef       ??$?MDU?$char_traits@D@std@@V?$allocator@D@1@@std@@YA_NPBDABV?$basic_string@DU?$char_traits@D@std@@V?$allocator@D@2@@0@@Z 7c0917ef f i instances.obj
 0001:00010806       ??$?MDU?$char_traits@D@std@@V?$allocator@D@1@@std@@YA_NABV?$basic_string@DU?$char_traits@D@std@@V?$allocator@D@2@@0@PBD@Z 7c091806 f i instances.obj
 0001:0001081d       ??$?ODU?$char_traits@D@std@@V?$allocator@D@1@@std@@YA_NABV?$basic_string@DU?$char_traits@D@std@@V?$allocator@D@2@@0@0@Z 7c09181d f i instances.obj
 0001:0001082d       ??$?ODU?$char_traits@D@std@@V?$allocator@D@1@@std@@YA_NPBDABV?$basic_string@DU?$char_traits@D@std@@V?$allocator@D@2@@0@@Z 7c09182d f i instances.obj
 0001:0001083d       ??$?ODU?$char_traits@D@std@@V?$allocator@D@1@@std@@YA_NABV?$basic_string@DU?$char_traits@D@std@@V?$allocator@D@2@@0@PBD@Z 7c09183d f i instances.obj
 0001:0001084d       ??$?NDU?$char_traits@D@std@@V?$allocator@D@1@@std@@YA_NABV?$basic_string@DU?$char_traits@D@std@@V?$allocator@D@2@@0@0@Z 7c09184d f i instances.obj
 0001:00010862       ??$?NDU?$char_traits@D@std@@V?$allocator@D@1@@std@@YA_NPBDABV?$basic_string@DU?$char_traits@D@std@@V?$allocator@D@2@@0@@Z 7c091862 f i instances.obj
 0001:00010877       ??$?NDU?$char_traits@D@std@@V?$allocator@D@1@@std@@YA_NABV?$basic_string@DU?$char_traits@D@std@@V?$allocator@D@2@@0@PBD@Z 7c091877 f i instances.obj
 0001:0001088c       ??$?PDU?$char_traits@D@std@@V?$allocator@D@1@@std@@YA_NABV?$basic_string@DU?$char_traits@D@std@@V?$allocator@D@2@@0@0@Z 7c09188c f i instances.obj
 0001:000108a1       ??$?PDU?$char_traits@D@std@@V?$allocator@D@1@@std@@YA_NPBDABV?$basic_string@DU?$char_traits@D@std@@V?$allocator@D@2@@0@@Z 7c0918a1 f i instances.obj
 0001:000108b6       ??$?PDU?$char_traits@D@std@@V?$allocator@D@1@@std@@YA_NABV?$basic_string@DU?$char_traits@D@std@@V?$allocator@D@2@@0@PBD@Z 7c0918b6 f i instances.obj
 0001:000108cb       ??$?8_WU?$char_traits@_W@std@@V?$allocator@_W@1@@std@@YA_NABV?$basic_string@_WU?$char_traits@_W@std@@V?$allocator@_W@2@@0@0@Z 7c0918cb f i instances.obj
 0001:000108cb       ??$?8GU?$char_traits@G@std@@V?$allocator@G@1@@std@@YA_NABV?$basic_string@GU?$char_traits@G@std@@V?$allocator@G@2@@0@0@Z 7c0918cb f i instances.obj
 0001:000108de       ??$?9GU?$char_traits@G@std@@V?$allocator@G@1@@std@@YA_NPBGABV?$basic_string@GU?$char_traits@G@std@@V?$allocator@G@2@@0@@Z 7c0918de f i instances.obj
 0001:000108de       ??$?9_WU?$char_traits@_W@std@@V?$allocator@_W@1@@std@@YA_NPB_WABV?$basic_string@_WU?$char_traits@_W@std@@V?$allocator@_W@2@@0@@Z 7c0918de f i instances.obj
 0001:000108f2       ??$?MGU?$char_traits@G@std@@V?$allocator@G@1@@std@@YA_NABV?$basic_string@GU?$char_traits@G@std@@V?$allocator@G@2@@0@0@Z 7c0918f2 f i instances.obj
 0001:000108f2       ??$?M_WU?$char_traits@_W@std@@V?$allocator@_W@1@@std@@YA_NABV?$basic_string@_WU?$char_traits@_W@std@@V?$allocator@_W@2@@0@0@Z 7c0918f2 f i instances.obj
 0001:00010909       ??$?O_WU?$char_traits@_W@std@@V?$allocator@_W@1@@std@@YA_NABV?$basic_string@_WU?$char_traits@_W@std@@V?$allocator@_W@2@@0@0@Z 7c091909 f i instances.obj
 0001:00010909       ??$?OGU?$char_traits@G@std@@V?$allocator@G@1@@std@@YA_NABV?$basic_string@GU?$char_traits@G@std@@V?$allocator@G@2@@0@0@Z 7c091909 f i instances.obj
 0001:00010919       ??$?N_WU?$char_traits@_W@std@@V?$allocator@_W@1@@std@@YA_NABV?$basic_string@_WU?$char_traits@_W@std@@V?$allocator@_W@2@@0@0@Z 7c091919 f i instances.obj
 0001:00010919       ??$?NGU?$char_traits@G@std@@V?$allocator@G@1@@std@@YA_NABV?$basic_string@GU?$char_traits@G@std@@V?$allocator@G@2@@0@0@Z 7c091919 f i instances.obj
 0001:0001092e       ??$?N_WU?$char_traits@_W@std@@V?$allocator@_W@1@@std@@YA_NPB_WABV?$basic_string@_WU?$char_traits@_W@std@@V?$allocator@_W@2@@0@@Z 7c09192e f i instances.obj
 0001:0001092e       ??$?NGU?$char_traits@G@std@@V?$allocator@G@1@@std@@YA_NPBGABV?$basic_string@GU?$char_traits@G@std@@V?$allocator@G@2@@0@@Z 7c09192e f i instances.obj
 0001:00010943       ??$?PGU?$char_traits@G@std@@V?$allocator@G@1@@std@@YA_NABV?$basic_string@GU?$char_traits@G@std@@V?$allocator@G@2@@0@0@Z 7c091943 f i instances.obj
 0001:00010943       ??$?P_WU?$char_traits@_W@std@@V?$allocator@_W@1@@std@@YA_NABV?$basic_string@_WU?$char_traits@_W@std@@V?$allocator@_W@2@@0@0@Z 7c091943 f i instances.obj
 0001:00010958       ??$?PGU?$char_traits@G@std@@V?$allocator@G@1@@std@@YA_NABV?$basic_string@GU?$char_traits@G@std@@V?$allocator@G@2@@0@PBG@Z 7c091958 f i instances.obj
 0001:00010958       ??$?P_WU?$char_traits@_W@std@@V?$allocator@_W@1@@std@@YA_NABV?$basic_string@_WU?$char_traits@_W@std@@V?$allocator@_W@2@@0@PB_W@Z 7c091958 f i instances.obj
 0001:0001096d       ??$?8GU?$char_traits@G@std@@V?$allocator@G@1@@std@@YA_NPBGABV?$basic_string@GU?$char_traits@G@std@@V?$allocator@G@2@@0@@Z 7c09196d f i instances.obj
 0001:0001096d       ??$?8_WU?$char_traits@_W@std@@V?$allocator@_W@1@@std@@YA_NPB_WABV?$basic_string@_WU?$char_traits@_W@std@@V?$allocator@_W@2@@0@@Z 7c09196d f i instances.obj
 0001:00010980       ??$?8_WU?$char_traits@_W@std@@V?$allocator@_W@1@@std@@YA_NABV?$basic_string@_WU?$char_traits@_W@std@@V?$allocator@_W@2@@0@PB_W@Z 7c091980 f i instances.obj
 0001:00010980       ??$?8GU?$char_traits@G@std@@V?$allocator@G@1@@std@@YA_NABV?$basic_string@GU?$char_traits@G@std@@V?$allocator@G@2@@0@PBG@Z 7c091980 f i instances.obj
 0001:00010993       ??$?9GU?$char_traits@G@std@@V?$allocator@G@1@@std@@YA_NABV?$basic_string@GU?$char_traits@G@std@@V?$allocator@G@2@@0@0@Z 7c091993 f i instances.obj
 0001:00010993       ??$?9_WU?$char_traits@_W@std@@V?$allocator@_W@1@@std@@YA_NABV?$basic_string@_WU?$char_traits@_W@std@@V?$allocator@_W@2@@0@0@Z 7c091993 f i instances.obj
 0001:000109a7       ??$?9GU?$char_traits@G@std@@V?$allocator@G@1@@std@@YA_NABV?$basic_string@GU?$char_traits@G@std@@V?$allocator@G@2@@0@PBG@Z 7c0919a7 f i instances.obj
 0001:000109a7       ??$?9_WU?$char_traits@_W@std@@V?$allocator@_W@1@@std@@YA_NABV?$basic_string@_WU?$char_traits@_W@std@@V?$allocator@_W@2@@0@PB_W@Z 7c0919a7 f i instances.obj
 0001:000109bb       ??$?M_WU?$char_traits@_W@std@@V?$allocator@_W@1@@std@@YA_NPB_WABV?$basic_string@_WU?$char_traits@_W@std@@V?$allocator@_W@2@@0@@Z 7c0919bb f i instances.obj
 0001:000109bb       ??$?MGU?$char_traits@G@std@@V?$allocator@G@1@@std@@YA_NPBGABV?$basic_string@GU?$char_traits@G@std@@V?$allocator@G@2@@0@@Z 7c0919bb f i instances.obj
 0001:000109d2       ??$?MGU?$char_traits@G@std@@V?$allocator@G@1@@std@@YA_NABV?$basic_string@GU?$char_traits@G@std@@V?$allocator@G@2@@0@PBG@Z 7c0919d2 f i instances.obj
 0001:000109d2       ??$?M_WU?$char_traits@_W@std@@V?$allocator@_W@1@@std@@YA_NABV?$basic_string@_WU?$char_traits@_W@std@@V?$allocator@_W@2@@0@PB_W@Z 7c0919d2 f i instances.obj
 0001:000109e9       ??$?O_WU?$char_traits@_W@std@@V?$allocator@_W@1@@std@@YA_NPB_WABV?$basic_string@_WU?$char_traits@_W@std@@V?$allocator@_W@2@@0@@Z 7c0919e9 f i instances.obj
 0001:000109e9       ??$?OGU?$char_traits@G@std@@V?$allocator@G@1@@std@@YA_NPBGABV?$basic_string@GU?$char_traits@G@std@@V?$allocator@G@2@@0@@Z 7c0919e9 f i instances.obj
 0001:000109f9       ??$?OGU?$char_traits@G@std@@V?$allocator@G@1@@std@@YA_NABV?$basic_string@GU?$char_traits@G@std@@V?$allocator@G@2@@0@PBG@Z 7c0919f9 f i instances.obj
 0001:000109f9       ??$?O_WU?$char_traits@_W@std@@V?$allocator@_W@1@@std@@YA_NABV?$basic_string@_WU?$char_traits@_W@std@@V?$allocator@_W@2@@0@PB_W@Z 7c0919f9 f i instances.obj
 0001:00010a09       ??$?N_WU?$char_traits@_W@std@@V?$allocator@_W@1@@std@@YA_NABV?$basic_string@_WU?$char_traits@_W@std@@V?$allocator@_W@2@@0@PB_W@Z 7c091a09 f i instances.obj
 0001:00010a09       ??$?NGU?$char_traits@G@std@@V?$allocator@G@1@@std@@YA_NABV?$basic_string@GU?$char_traits@G@std@@V?$allocator@G@2@@0@PBG@Z 7c091a09 f i instances.obj
 0001:00010a1e       ??$?PGU?$char_traits@G@std@@V?$allocator@G@1@@std@@YA_NPBGABV?$basic_string@GU?$char_traits@G@std@@V?$allocator@G@2@@0@@Z 7c091a1e f i instances.obj
 0001:00010a1e       ??$?P_WU?$char_traits@_W@std@@V?$allocator@_W@1@@std@@YA_NPB_WABV?$basic_string@_WU?$char_traits@_W@std@@V?$allocator@_W@2@@0@@Z 7c091a1e f i instances.obj
 0001:00010a33       ??$pow@M@std@@YA?AV?$complex@M@0@ABV10@0@Z 7c091a33 f i instances.obj
 0001:00010ac5       ??$pow@N@std@@YA?AV?$complex@N@0@ABV10@0@Z 7c091ac5 f i instances.obj
 0001:00010b51       ??$pow@O@std@@YA?AV?$complex@O@0@ABV10@0@Z 7c091b51 f i instances.obj
 0001:00010bdd       ??$use_facet@V?$numpunct@D@std@@@std@@YAABV?$numpunct@D@0@ABVlocale@0@@Z 7c091bdd f i instances.obj
 0001:00010c82       ??$use_facet@V?$numpunct@_W@std@@@std@@YAABV?$numpunct@_W@0@ABVlocale@0@@Z 7c091c82 f i instances.obj
 0001:00010d27       ??$use_facet@V?$numpunct@G@std@@@std@@YAABV?$numpunct@G@0@ABVlocale@0@@Z 7c091d27 f i instances.obj
 0001:00010dcc       ??$use_facet@V?$moneypunct@D$0A@@std@@@std@@YAABV?$moneypunct@D$0A@@0@ABVlocale@0@@Z 7c091dcc f i instances.obj
 0001:00010e71       ??$use_facet@V?$moneypunct@_W$0A@@std@@@std@@YAABV?$moneypunct@_W$0A@@0@ABVlocale@0@@Z 7c091e71 f i instances.obj
 0001:00010f16       ??$use_facet@V?$moneypunct@G$0A@@std@@@std@@YAABV?$moneypunct@G$0A@@0@ABVlocale@0@@Z 7c091f16 f i instances.obj
 0001:00010fbb       ??_F?$numpunct@D@std@@QAEXXZ 7c091fbb f i instances.obj
 0001:00010fc3       ??_F?$numpunct@_W@std@@QAEXXZ 7c091fc3 f i instances.obj
 0001:00010fcb       ??_F?$numpunct@G@std@@QAEXXZ 7c091fcb f i instances.obj
 0001:00010fd3       ??_E?$basic_stringbuf@DU?$char_traits@D@std@@V?$allocator@D@2@@std@@UAEPAXI@Z 7c091fd3 f i instances.obj
 0001:0001101c       ??_E?$basic_stringbuf@_WU?$char_traits@_W@std@@V?$allocator@_W@2@@std@@UAEPAXI@Z 7c09201c f i instances.obj
 0001:00011065       ??_E?$basic_stringbuf@GU?$char_traits@G@std@@V?$allocator@G@2@@std@@UAEPAXI@Z 7c092065 f i instances.obj
 0001:000110ae       ??_D?$basic_istringstream@DU?$char_traits@D@std@@V?$allocator@D@2@@std@@QAEXXZ 7c0920ae f i instances.obj
 0001:000110c7       ??_D?$basic_istringstream@_WU?$char_traits@_W@std@@V?$allocator@_W@2@@std@@QAEXXZ 7c0920c7 f i instances.obj
 0001:000110e0       ??_D?$basic_istringstream@GU?$char_traits@G@std@@V?$allocator@G@2@@std@@QAEXXZ 7c0920e0 f i instances.obj
 0001:000110f9       ??_D?$basic_ostringstream@DU?$char_traits@D@std@@V?$allocator@D@2@@std@@QAEXXZ 7c0920f9 f i instances.obj
 0001:00011112       ??_D?$basic_ostringstream@_WU?$char_traits@_W@std@@V?$allocator@_W@2@@std@@QAEXXZ 7c092112 f i instances.obj
 0001:0001112b       ??_D?$basic_ostringstream@GU?$char_traits@G@std@@V?$allocator@G@2@@std@@QAEXXZ 7c09212b f i instances.obj
 0001:00011144       ??_D?$basic_stringstream@DU?$char_traits@D@std@@V?$allocator@D@2@@std@@QAEXXZ 7c092144 f i instances.obj
 0001:0001115d       ??_D?$basic_stringstream@_WU?$char_traits@_W@std@@V?$allocator@_W@2@@std@@QAEXXZ 7c09215d f i instances.obj
 0001:00011176       ??_D?$basic_stringstream@GU?$char_traits@G@std@@V?$allocator@G@2@@std@@QAEXXZ 7c092176 f i instances.obj
 0001:0001118f       ??_F?$moneypunct@D$0A@@std@@QAEXXZ 7c09218f f i instances.obj
 0001:00011197       ??_F?$moneypunct@_W$0A@@std@@QAEXXZ 7c092197 f i instances.obj
 0001:0001119f       ??_F?$moneypunct@G$0A@@std@@QAEXXZ 7c09219f f i instances.obj
 0001:000111a7       ?append@?$basic_string@GU?$char_traits@G@std@@V?$allocator@G@2@@std@@QAEAAV12@IG@Z 7c0921a7 f i instances.obj
 0001:000111a7       ?append@?$basic_string@_WU?$char_traits@_W@std@@V?$allocator@_W@2@@std@@QAEAAV12@I_W@Z 7c0921a7 f i instances.obj
 0001:00011208       ?assign@?$basic_string@GU?$char_traits@G@std@@V?$allocator@G@2@@std@@QAEAAV12@IG@Z 7c092208 f i instances.obj
 0001:00011208       ?assign@?$basic_string@_WU?$char_traits@_W@std@@V?$allocator@_W@2@@std@@QAEAAV12@I_W@Z 7c092208 f i instances.obj
 0001:00011253       ?insert@?$basic_string@GU?$char_traits@G@std@@V?$allocator@G@2@@std@@QAEAAV12@IIG@Z 7c092253 f i instances.obj
 0001:00011253       ?insert@?$basic_string@_WU?$char_traits@_W@std@@V?$allocator@_W@2@@std@@QAEAAV12@II_W@Z 7c092253 f i instances.obj
 0001:00011300       ?insert@?$basic_string@GU?$char_traits@G@std@@V?$allocator@G@2@@std@@QAE?AViterator@12@V312@G@Z 7c092300 f i instances.obj
 0001:00011300       ?insert@?$basic_string@_WU?$char_traits@_W@std@@V?$allocator@_W@2@@std@@QAE?AViterator@12@V312@_W@Z 7c092300 f i instances.obj
 0001:0001134b       ?replace@?$basic_string@_WU?$char_traits@_W@std@@V?$allocator@_W@2@@std@@QAEAAV12@IIABV12@II@Z 7c09234b f i instances.obj
 0001:0001134b       ?replace@?$basic_string@GU?$char_traits@G@std@@V?$allocator@G@2@@std@@QAEAAV12@IIABV12@II@Z 7c09234b f i instances.obj
 0001:00011617       ?replace@?$basic_string@GU?$char_traits@G@std@@V?$allocator@G@2@@std@@QAEAAV12@IIPBGI@Z 7c092617 f i instances.obj
 0001:00011617       ?replace@?$basic_string@_WU?$char_traits@_W@std@@V?$allocator@_W@2@@std@@QAEAAV12@IIPB_WI@Z 7c092617 f i instances.obj
 0001:0001175b       ?replace@?$basic_string@GU?$char_traits@G@std@@V?$allocator@G@2@@std@@QAEAAV12@Viterator@12@0PBG1@Z 7c09275b f i instances.obj
 0001:0001175b       ?replace@?$basic_string@_WU?$char_traits@_W@std@@V?$allocator@_W@2@@std@@QAEAAV12@Viterator@12@0PB_W1@Z 7c09275b f i instances.obj
 0001:0001175b       ?replace@?$basic_string@GU?$char_traits@G@std@@V?$allocator@G@2@@std@@QAEAAV12@Viterator@12@0Vconst_iterator@12@1@Z 7c09275b f i instances.obj
 0001:0001175b       ?replace@?$basic_string@_WU?$char_traits@_W@std@@V?$allocator@_W@2@@std@@QAEAAV12@Viterator@12@0Vconst_iterator@12@1@Z 7c09275b f i instances.obj
 0001:000117df       ?resize@?$basic_string@GU?$char_traits@G@std@@V?$allocator@G@2@@std@@QAEXIG@Z 7c0927df f i instances.obj
 0001:000117df       ?resize@?$basic_string@_WU?$char_traits@_W@std@@V?$allocator@_W@2@@std@@QAEXI_W@Z 7c0927df f i instances.obj
 0001:00011803       ?reserve@?$basic_string@_WU?$char_traits@_W@std@@V?$allocator@_W@2@@std@@QAEXI@Z 7c092803 f i instances.obj
 0001:00011803       ?reserve@?$basic_string@GU?$char_traits@G@std@@V?$allocator@G@2@@std@@QAEXI@Z 7c092803 f i instances.obj
 0001:00011830       ?compare@?$basic_string@GU?$char_traits@G@std@@V?$allocator@G@2@@std@@QBEHIIABV12@@Z 7c092830 f i instances.obj
 0001:00011830       ?compare@?$basic_string@_WU?$char_traits@_W@std@@V?$allocator@_W@2@@std@@QBEHIIABV12@@Z 7c092830 f i instances.obj
 0001:00011848       ?append@?$basic_string@_WU?$char_traits@_W@std@@V?$allocator@_W@2@@std@@QAEAAV12@ABV12@II@Z 7c092848 f i instances.obj
 0001:00011848       ?append@?$basic_string@GU?$char_traits@G@std@@V?$allocator@G@2@@std@@QAEAAV12@ABV12@II@Z 7c092848 f i instances.obj
 0001:000118df       ?append@?$basic_string@_WU?$char_traits@_W@std@@V?$allocator@_W@2@@std@@QAEAAV12@PB_WI@Z 7c0928df f i instances.obj
 0001:000118df       ?append@?$basic_string@GU?$char_traits@G@std@@V?$allocator@G@2@@std@@QAEAAV12@PBGI@Z 7c0928df f i instances.obj
 0001:00011972       ?append@?$basic_string@GU?$char_traits@G@std@@V?$allocator@G@2@@std@@QAEAAV12@PBG@Z 7c092972 f i instances.obj
 0001:00011972       ?append@?$basic_string@_WU?$char_traits@_W@std@@V?$allocator@_W@2@@std@@QAEAAV12@PB_W@Z 7c092972 f i instances.obj
 0001:00011990       ?assign@?$basic_string@_WU?$char_traits@_W@std@@V?$allocator@_W@2@@std@@QAEAAV12@ABV12@II@Z 7c092990 f i instances.obj
 0001:00011990       ?assign@?$basic_string@GU?$char_traits@G@std@@V?$allocator@G@2@@std@@QAEAAV12@ABV12@II@Z 7c092990 f i instances.obj
 0001:00011a20       ?assign@?$basic_string@_WU?$char_traits@_W@std@@V?$allocator@_W@2@@std@@QAEAAV12@PB_WI@Z 7c092a20 f i instances.obj
 0001:00011a20       ?assign@?$basic_string@GU?$char_traits@G@std@@V?$allocator@G@2@@std@@QAEAAV12@PBGI@Z 7c092a20 f i instances.obj
 0001:00011a91       ?assign@?$basic_string@_WU?$char_traits@_W@std@@V?$allocator@_W@2@@std@@QAEAAV12@PB_W@Z 7c092a91 f i instances.obj
 0001:00011a91       ?assign@?$basic_string@GU?$char_traits@G@std@@V?$allocator@G@2@@std@@QAEAAV12@PBG@Z 7c092a91 f i instances.obj
 0001:00011aaf       ?insert@?$basic_string@GU?$char_traits@G@std@@V?$allocator@G@2@@std@@QAEAAV12@IABV12@II@Z 7c092aaf f i instances.obj
 0001:00011aaf       ?insert@?$basic_string@_WU?$char_traits@_W@std@@V?$allocator@_W@2@@std@@QAEAAV12@IABV12@II@Z 7c092aaf f i instances.obj
 0001:00011bd0       ?insert@?$basic_string@GU?$char_traits@G@std@@V?$allocator@G@2@@std@@QAEAAV12@IPBGI@Z 7c092bd0 f i instances.obj
 0001:00011bd0       ?insert@?$basic_string@_WU?$char_traits@_W@std@@V?$allocator@_W@2@@std@@QAEAAV12@IPB_WI@Z 7c092bd0 f i instances.obj
 0001:00011cb2       ?insert@?$basic_string@GU?$char_traits@G@std@@V?$allocator@G@2@@std@@QAEAAV12@IPBG@Z 7c092cb2 f i instances.obj
 0001:00011cb2       ?insert@?$basic_string@_WU?$char_traits@_W@std@@V?$allocator@_W@2@@std@@QAEAAV12@IPB_W@Z 7c092cb2 f i instances.obj
 0001:00011cd4       ?insert@?$basic_string@_WU?$char_traits@_W@std@@V?$allocator@_W@2@@std@@QAEXViterator@12@I_W@Z 7c092cd4 f i instances.obj
 0001:00011cd4       ?insert@?$basic_string@GU?$char_traits@G@std@@V?$allocator@G@2@@std@@QAEXViterator@12@IG@Z 7c092cd4 f i instances.obj
 0001:00011cff       ?replace@?$basic_string@_WU?$char_traits@_W@std@@V?$allocator@_W@2@@std@@QAEAAV12@IIPB_W@Z 7c092cff f i instances.obj
 0001:00011cff       ?replace@?$basic_string@GU?$char_traits@G@std@@V?$allocator@G@2@@std@@QAEAAV12@IIPBG@Z 7c092cff f i instances.obj
 0001:00011d25       ?replace@?$basic_string@GU?$char_traits@G@std@@V?$allocator@G@2@@std@@QAEAAV12@IIIG@Z 7c092d25 f i instances.obj
 0001:00011d25       ?replace@?$basic_string@_WU?$char_traits@_W@std@@V?$allocator@_W@2@@std@@QAEAAV12@III_W@Z 7c092d25 f i instances.obj
 0001:00011e2f       ?replace@?$basic_string@GU?$char_traits@G@std@@V?$allocator@G@2@@std@@QAEAAV12@Viterator@12@0PBGI@Z 7c092e2f f i instances.obj
 0001:00011e2f       ?replace@?$basic_string@_WU?$char_traits@_W@std@@V?$allocator@_W@2@@std@@QAEAAV12@Viterator@12@0PB_WI@Z 7c092e2f f i instances.obj
 0001:00011e6d       ?replace@?$basic_string@_WU?$char_traits@_W@std@@V?$allocator@_W@2@@std@@QAEAAV12@Viterator@12@0PB_W@Z 7c092e6d f i instances.obj
 0001:00011e6d       ?replace@?$basic_string@GU?$char_traits@G@std@@V?$allocator@G@2@@std@@QAEAAV12@Viterator@12@0PBG@Z 7c092e6d f i instances.obj
 0001:00011ea7       ?replace@?$basic_string@_WU?$char_traits@_W@std@@V?$allocator@_W@2@@std@@QAEAAV12@Viterator@12@0I_W@Z 7c092ea7 f i instances.obj
 0001:00011ea7       ?replace@?$basic_string@GU?$char_traits@G@std@@V?$allocator@G@2@@std@@QAEAAV12@Viterator@12@0IG@Z 7c092ea7 f i instances.obj
 0001:00011ee5       ?push_back@?$basic_string@GU?$char_traits@G@std@@V?$allocator@G@2@@std@@QAEXG@Z 7c092ee5 f i instances.obj
 0001:00011ee5       ?push_back@?$basic_string@_WU?$char_traits@_W@std@@V?$allocator@_W@2@@std@@QAEX_W@Z 7c092ee5 f i instances.obj
 0001:00011f0a       ?_Putgrouped@?$num_put@DV?$ostreambuf_iterator@DU?$char_traits@D@std@@@std@@@std@@ABA?AV?$ostreambuf_iterator@DU?$char_traits@D@std@@@2@V32@PBDID@Z 7c092f0a f i instances.obj
 0001:00011f91       ?_Putgrouped@?$num_put@_WV?$ostreambuf_iterator@_WU?$char_traits@_W@std@@@std@@@std@@ABA?AV?$ostreambuf_iterator@_WU?$char_traits@_W@std@@@2@V32@PBDI_W@Z 7c092f91 f i instances.obj
 0001:00011f91       ?_Putgrouped@?$num_put@GV?$ostreambuf_iterator@GU?$char_traits@G@std@@@std@@@std@@ABA?AV?$ostreambuf_iterator@GU?$char_traits@G@std@@@2@V32@PBDIG@Z 7c092f91 f i instances.obj
 0001:00012019       ??0?$basic_ios@DU?$char_traits@D@std@@@std@@QAE@PAV?$basic_streambuf@DU?$char_traits@D@std@@@1@@Z 7c093019 f i instances.obj
 0001:0001204f       ??0?$basic_ios@_WU?$char_traits@_W@std@@@std@@QAE@PAV?$basic_streambuf@_WU?$char_traits@_W@std@@@1@@Z 7c09304f f i instances.obj
 0001:00012085       ??0?$basic_ios@GU?$char_traits@G@std@@@std@@QAE@PAV?$basic_streambuf@GU?$char_traits@G@std@@@1@@Z 7c093085 f i instances.obj
 0001:000120bb       ??5?$basic_istream@DU?$char_traits@D@std@@@std@@QAEAAV01@AA_N@Z 7c0930bb f i instances.obj
 0001:0001219a       ??5?$basic_istream@DU?$char_traits@D@std@@@std@@QAEAAV01@AAF@Z 7c09319a f i instances.obj
 0001:000122a7       ??5?$basic_istream@DU?$char_traits@D@std@@@std@@QAEAAV01@AAG@Z 7c0932a7 f i instances.obj
 0001:00012386       ??5?$basic_istream@DU?$char_traits@D@std@@@std@@QAEAAV01@AAH@Z 7c093386 f i instances.obj
 0001:0001248f       ??5?$basic_istream@DU?$char_traits@D@std@@@std@@QAEAAV01@AAI@Z 7c09348f f i instances.obj
 0001:0001256e       ??5?$basic_istream@DU?$char_traits@D@std@@@std@@QAEAAV01@AAJ@Z 7c09356e f i instances.obj
 0001:0001264d       ??5?$basic_istream@DU?$char_traits@D@std@@@std@@QAEAAV01@AAK@Z 7c09364d f i instances.obj
 0001:0001272c       ??5?$basic_istream@DU?$char_traits@D@std@@@std@@QAEAAV01@AA_J@Z 7c09372c f i instances.obj
 0001:0001280b       ??5?$basic_istream@DU?$char_traits@D@std@@@std@@QAEAAV01@AA_K@Z 7c09380b f i instances.obj
 0001:000128ea       ??5?$basic_istream@DU?$char_traits@D@std@@@std@@QAEAAV01@AAM@Z 7c0938ea f i instances.obj
 0001:000129c9       ??5?$basic_istream@DU?$char_traits@D@std@@@std@@QAEAAV01@AAN@Z 7c0939c9 f i instances.obj
 0001:00012aa8       ??5?$basic_istream@DU?$char_traits@D@std@@@std@@QAEAAV01@AAO@Z 7c093aa8 f i instances.obj
 0001:00012b87       ??5?$basic_istream@DU?$char_traits@D@std@@@std@@QAEAAV01@AAPAX@Z 7c093b87 f i instances.obj
 0001:00012c66       ??5?$basic_istream@DU?$char_traits@D@std@@@std@@QAEAAV01@PAV?$basic_streambuf@DU?$char_traits@D@std@@@1@@Z 7c093c66 f i instances.obj
 0001:00012d44       ?get@?$basic_istream@DU?$char_traits@D@std@@@std@@QAEHXZ 7c093d44 f i instances.obj
 0001:00012df5       ?get@?$basic_istream@DU?$char_traits@D@std@@@std@@QAEAAV12@PADHD@Z 7c093df5 f i instances.obj
 0001:00012ed1       ?get@?$basic_istream@DU?$char_traits@D@std@@@std@@QAEAAV12@AAD@Z 7c093ed1 f i instances.obj
 0001:00012eea       ?get@?$basic_istream@DU?$char_traits@D@std@@@std@@QAEAAV12@AAV?$basic_streambuf@DU?$char_traits@D@std@@@2@D@Z 7c093eea f i instances.obj
 0001:00012fc9       ?getline@?$basic_istream@DU?$char_traits@D@std@@@std@@QAEAAV12@PADHD@Z 7c093fc9 f i instances.obj
 0001:000130cd       ?ignore@?$basic_istream@DU?$char_traits@D@std@@@std@@QAEAAV12@HH@Z 7c0940cd f i instances.obj
 0001:0001318c       ?read@?$basic_istream@DU?$char_traits@D@std@@@std@@QAEAAV12@PADH@Z 7c09418c f i instances.obj
 0001:0001323a       ?readsome@?$basic_istream@DU?$char_traits@D@std@@@std@@QAEHPADH@Z 7c09423a f i instances.obj
 0001:000132c5       ?peek@?$basic_istream@DU?$char_traits@D@std@@@std@@QAEHXZ 7c0942c5 f i instances.obj
 0001:00013371       ?putback@?$basic_istream@DU?$char_traits@D@std@@@std@@QAEAAV12@D@Z 7c094371 f i instances.obj
 0001:00013419       ?unget@?$basic_istream@DU?$char_traits@D@std@@@std@@QAEAAV12@XZ 7c094419 f i instances.obj
 0001:000134bc       ??5?$basic_istream@_WU?$char_traits@_W@std@@@std@@QAEAAV01@AA_N@Z 7c0944bc f i instances.obj
 0001:0001359b       ??5?$basic_istream@_WU?$char_traits@_W@std@@@std@@QAEAAV01@AAF@Z 7c09459b f i instances.obj
 0001:000136a8       ??5?$basic_istream@_WU?$char_traits@_W@std@@@std@@QAEAAV01@AAG@Z 7c0946a8 f i instances.obj
 0001:00013787       ??5?$basic_istream@_WU?$char_traits@_W@std@@@std@@QAEAAV01@AAH@Z 7c094787 f i instances.obj
 0001:00013890       ??5?$basic_istream@_WU?$char_traits@_W@std@@@std@@QAEAAV01@AAI@Z 7c094890 f i instances.obj
 0001:0001396f       ??5?$basic_istream@_WU?$char_traits@_W@std@@@std@@QAEAAV01@AAJ@Z 7c09496f f i instances.obj
 0001:00013a4e       ??5?$basic_istream@_WU?$char_traits@_W@std@@@std@@QAEAAV01@AAK@Z 7c094a4e f i instances.obj
 0001:00013b2d       ??5?$basic_istream@_WU?$char_traits@_W@std@@@std@@QAEAAV01@AA_J@Z 7c094b2d f i instances.obj
 0001:00013c0c       ??5?$basic_istream@_WU?$char_traits@_W@std@@@std@@QAEAAV01@AA_K@Z 7c094c0c f i instances.obj
 0001:00013ceb       ??5?$basic_istream@_WU?$char_traits@_W@std@@@std@@QAEAAV01@AAM@Z 7c094ceb f i instances.obj
 0001:00013dca       ??5?$basic_istream@_WU?$char_traits@_W@std@@@std@@QAEAAV01@AAN@Z 7c094dca f i instances.obj
 0001:00013ea9       ??5?$basic_istream@_WU?$char_traits@_W@std@@@std@@QAEAAV01@AAO@Z 7c094ea9 f i instances.obj
 0001:00013f88       ??5?$basic_istream@_WU?$char_traits@_W@std@@@std@@QAEAAV01@AAPAX@Z 7c094f88 f i instances.obj
 0001:00014067       ??5?$basic_istream@_WU?$char_traits@_W@std@@@std@@QAEAAV01@PAV?$basic_streambuf@_WU?$char_traits@_W@std@@@1@@Z 7c095067 f i instances.obj
 0001:00014154       ?get@?$basic_istream@_WU?$char_traits@_W@std@@@std@@QAEGXZ 7c095154 f i instances.obj
 0001:0001420e       ?get@?$basic_istream@_WU?$char_traits@_W@std@@@std@@QAEAAV12@PA_WH_W@Z 7c09520e f i instances.obj
 0001:000142f5       ?get@?$basic_istream@_WU?$char_traits@_W@std@@@std@@QAEAAV12@AA_W@Z 7c0952f5 f i instances.obj
 0001:00014313       ?get@?$basic_istream@_WU?$char_traits@_W@std@@@std@@QAEAAV12@AAV?$basic_streambuf@_WU?$char_traits@_W@std@@@2@_W@Z 7c095313 f i instances.obj
 0001:000143fe       ?getline@?$basic_istream@_WU?$char_traits@_W@std@@@std@@QAEAAV12@PA_WH_W@Z 7c0953fe f i instances.obj
 0001:0001450c       ?ignore@?$basic_istream@_WU?$char_traits@_W@std@@@std@@QAEAAV12@HG@Z 7c09550c f i instances.obj
 0001:000145d3       ?read@?$basic_istream@_WU?$char_traits@_W@std@@@std@@QAEAAV12@PA_WH@Z 7c0955d3 f i instances.obj
 0001:00014681       ?readsome@?$basic_istream@_WU?$char_traits@_W@std@@@std@@QAEHPA_WH@Z 7c095681 f i instances.obj
 0001:0001470c       ?peek@?$basic_istream@_WU?$char_traits@_W@std@@@std@@QAEGXZ 7c09570c f i instances.obj
 0001:000147c1       ?putback@?$basic_istream@_WU?$char_traits@_W@std@@@std@@QAEAAV12@_W@Z 7c0957c1 f i instances.obj
 0001:0001486d       ?unget@?$basic_istream@_WU?$char_traits@_W@std@@@std@@QAEAAV12@XZ 7c09586d f i instances.obj
 0001:00014914       ??5?$basic_istream@GU?$char_traits@G@std@@@std@@QAEAAV01@AA_N@Z 7c095914 f i instances.obj
 0001:000149f3       ??5?$basic_istream@GU?$char_traits@G@std@@@std@@QAEAAV01@AAF@Z 7c0959f3 f i instances.obj
 0001:00014b00       ??5?$basic_istream@GU?$char_traits@G@std@@@std@@QAEAAV01@AAG@Z 7c095b00 f i instances.obj
 0001:00014bdf       ??5?$basic_istream@GU?$char_traits@G@std@@@std@@QAEAAV01@AAH@Z 7c095bdf f i instances.obj
 0001:00014ce8       ??5?$basic_istream@GU?$char_traits@G@std@@@std@@QAEAAV01@AAI@Z 7c095ce8 f i instances.obj
 0001:00014dc7       ??5?$basic_istream@GU?$char_traits@G@std@@@std@@QAEAAV01@AAJ@Z 7c095dc7 f i instances.obj
 0001:00014ea6       ??5?$basic_istream@GU?$char_traits@G@std@@@std@@QAEAAV01@AAK@Z 7c095ea6 f i instances.obj
 0001:00014f85       ??5?$basic_istream@GU?$char_traits@G@std@@@std@@QAEAAV01@AA_J@Z 7c095f85 f i instances.obj
 0001:00015064       ??5?$basic_istream@GU?$char_traits@G@std@@@std@@QAEAAV01@AA_K@Z 7c096064 f i instances.obj
 0001:00015143       ??5?$basic_istream@GU?$char_traits@G@std@@@std@@QAEAAV01@AAM@Z 7c096143 f i instances.obj
 0001:00015222       ??5?$basic_istream@GU?$char_traits@G@std@@@std@@QAEAAV01@AAN@Z 7c096222 f i instances.obj
 0001:00015301       ??5?$basic_istream@GU?$char_traits@G@std@@@std@@QAEAAV01@AAO@Z 7c096301 f i instances.obj
 0001:000153e0       ??5?$basic_istream@GU?$char_traits@G@std@@@std@@QAEAAV01@AAPAX@Z 7c0963e0 f i instances.obj
 0001:000154bf       ??5?$basic_istream@GU?$char_traits@G@std@@@std@@QAEAAV01@PAV?$basic_streambuf@GU?$char_traits@G@std@@@1@@Z 7c0964bf f i instances.obj
 0001:000155ac       ?get@?$basic_istream@GU?$char_traits@G@std@@@std@@QAEGXZ 7c0965ac f i instances.obj
 0001:00015666       ?get@?$basic_istream@GU?$char_traits@G@std@@@std@@QAEAAV12@PAGHG@Z 7c096666 f i instances.obj
 0001:0001574d       ?get@?$basic_istream@GU?$char_traits@G@std@@@std@@QAEAAV12@AAG@Z 7c09674d f i instances.obj
 0001:0001576b       ?get@?$basic_istream@GU?$char_traits@G@std@@@std@@QAEAAV12@AAV?$basic_streambuf@GU?$char_traits@G@std@@@2@G@Z 7c09676b f i instances.obj
 0001:00015856       ?getline@?$basic_istream@GU?$char_traits@G@std@@@std@@QAEAAV12@PAGHG@Z 7c096856 f i instances.obj
 0001:00015964       ?ignore@?$basic_istream@GU?$char_traits@G@std@@@std@@QAEAAV12@HG@Z 7c096964 f i instances.obj
 0001:00015a2b       ?read@?$basic_istream@GU?$char_traits@G@std@@@std@@QAEAAV12@PAGH@Z 7c096a2b f i instances.obj
 0001:00015ad9       ?readsome@?$basic_istream@GU?$char_traits@G@std@@@std@@QAEHPAGH@Z 7c096ad9 f i instances.obj
 0001:00015b64       ?peek@?$basic_istream@GU?$char_traits@G@std@@@std@@QAEGXZ 7c096b64 f i instances.obj
 0001:00015c19       ?putback@?$basic_istream@GU?$char_traits@G@std@@@std@@QAEAAV12@G@Z 7c096c19 f i instances.obj
 0001:00015cc5       ?unget@?$basic_istream@GU?$char_traits@G@std@@@std@@QAEAAV12@XZ 7c096cc5 f i instances.obj
 0001:00015d6c       ??0?$basic_stringbuf@DU?$char_traits@D@std@@V?$allocator@D@2@@std@@QAE@H@Z 7c096d6c f i instances.obj
 0001:00015da9       ??0?$basic_stringbuf@DU?$char_traits@D@std@@V?$allocator@D@2@@std@@QAE@ABV?$basic_string@DU?$char_traits@D@std@@V?$allocator@D@2@@1@H@Z 7c096da9 f i instances.obj
 0001:00015e06       ?str@?$basic_stringbuf@DU?$char_traits@D@std@@V?$allocator@D@2@@std@@QAEXABV?$basic_string@DU?$char_traits@D@std@@V?$allocator@D@2@@2@@Z 7c096e06 f i instances.obj
 0001:00015e33       ??0?$basic_stringbuf@_WU?$char_traits@_W@std@@V?$allocator@_W@2@@std@@QAE@H@Z 7c096e33 f i instances.obj
 0001:00015e70       ??0?$basic_stringbuf@_WU?$char_traits@_W@std@@V?$allocator@_W@2@@std@@QAE@ABV?$basic_string@_WU?$char_traits@_W@std@@V?$allocator@_W@2@@1@H@Z 7c096e70 f i instances.obj
 0001:00015ecd       ?str@?$basic_stringbuf@_WU?$char_traits@_W@std@@V?$allocator@_W@2@@std@@QAEXABV?$basic_string@_WU?$char_traits@_W@std@@V?$allocator@_W@2@@2@@Z 7c096ecd f i instances.obj
 0001:00015ecd       ?str@?$basic_stringbuf@GU?$char_traits@G@std@@V?$allocator@G@2@@std@@QAEXABV?$basic_string@GU?$char_traits@G@std@@V?$allocator@G@2@@2@@Z 7c096ecd f i instances.obj
 0001:00015efa       ??0?$basic_stringbuf@GU?$char_traits@G@std@@V?$allocator@G@2@@std@@QAE@H@Z 7c096efa f i instances.obj
 0001:00015f37       ??0?$basic_stringbuf@GU?$char_traits@G@std@@V?$allocator@G@2@@std@@QAE@ABV?$basic_string@GU?$char_traits@G@std@@V?$allocator@G@2@@1@H@Z 7c096f37 f i instances.obj
 0001:00015f94       ??0?$basic_istringstream@DU?$char_traits@D@std@@V?$allocator@D@2@@std@@QAE@H@Z 7c096f94 f i instances.obj
 0001:00016006       ??0?$basic_istringstream@DU?$char_traits@D@std@@V?$allocator@D@2@@std@@QAE@ABV?$basic_string@DU?$char_traits@D@std@@V?$allocator@D@2@@1@H@Z 7c097006 f i instances.obj
 0001:0001607b       ?str@?$basic_istringstream@DU?$char_traits@D@std@@V?$allocator@D@2@@std@@QAEXABV?$basic_string@DU?$char_traits@D@std@@V?$allocator@D@2@@2@@Z 7c09707b f i instances.obj
 0001:00016083       ??0?$basic_istringstream@_WU?$char_traits@_W@std@@V?$allocator@_W@2@@std@@QAE@H@Z 7c097083 f i instances.obj
 0001:000160f5       ??0?$basic_istringstream@_WU?$char_traits@_W@std@@V?$allocator@_W@2@@std@@QAE@ABV?$basic_string@_WU?$char_traits@_W@std@@V?$allocator@_W@2@@1@H@Z 7c0970f5 f i instances.obj
 0001:0001616a       ?str@?$basic_istringstream@_WU?$char_traits@_W@std@@V?$allocator@_W@2@@std@@QAEXABV?$basic_string@_WU?$char_traits@_W@std@@V?$allocator@_W@2@@2@@Z 7c09716a f i instances.obj
 0001:0001616a       ?str@?$basic_istringstream@GU?$char_traits@G@std@@V?$allocator@G@2@@std@@QAEXABV?$basic_string@GU?$char_traits@G@std@@V?$allocator@G@2@@2@@Z 7c09716a f i instances.obj
 0001:00016172       ??0?$basic_istringstream@GU?$char_traits@G@std@@V?$allocator@G@2@@std@@QAE@H@Z 7c097172 f i instances.obj
 0001:000161e4       ??0?$basic_istringstream@GU?$char_traits@G@std@@V?$allocator@G@2@@std@@QAE@ABV?$basic_string@GU?$char_traits@G@std@@V?$allocator@G@2@@1@H@Z 7c0971e4 f i instances.obj
 0001:00016259       ??0?$basic_ostringstream@DU?$char_traits@D@std@@V?$allocator@D@2@@std@@QAE@H@Z 7c097259 f i instances.obj
 0001:000162ca       ??0?$basic_ostringstream@DU?$char_traits@D@std@@V?$allocator@D@2@@std@@QAE@ABV?$basic_string@DU?$char_traits@D@std@@V?$allocator@D@2@@1@H@Z 7c0972ca f i instances.obj
 0001:0001633e       ?str@?$basic_ostringstream@DU?$char_traits@D@std@@V?$allocator@D@2@@std@@QAEXABV?$basic_string@DU?$char_traits@D@std@@V?$allocator@D@2@@2@@Z 7c09733e f i instances.obj
 0001:00016346       ??0?$basic_ostringstream@_WU?$char_traits@_W@std@@V?$allocator@_W@2@@std@@QAE@H@Z 7c097346 f i instances.obj
 0001:000163b7       ??0?$basic_ostringstream@_WU?$char_traits@_W@std@@V?$allocator@_W@2@@std@@QAE@ABV?$basic_string@_WU?$char_traits@_W@std@@V?$allocator@_W@2@@1@H@Z 7c0973b7 f i instances.obj
 0001:0001642b       ?str@?$basic_ostringstream@_WU?$char_traits@_W@std@@V?$allocator@_W@2@@std@@QAEXABV?$basic_string@_WU?$char_traits@_W@std@@V?$allocator@_W@2@@2@@Z 7c09742b f i instances.obj
 0001:0001642b       ?str@?$basic_ostringstream@GU?$char_traits@G@std@@V?$allocator@G@2@@std@@QAEXABV?$basic_string@GU?$char_traits@G@std@@V?$allocator@G@2@@2@@Z 7c09742b f i instances.obj
 0001:00016433       ??0?$basic_ostringstream@GU?$char_traits@G@std@@V?$allocator@G@2@@std@@QAE@H@Z 7c097433 f i instances.obj
 0001:000164a4       ??0?$basic_ostringstream@GU?$char_traits@G@std@@V?$allocator@G@2@@std@@QAE@ABV?$basic_string@GU?$char_traits@G@std@@V?$allocator@G@2@@1@H@Z 7c0974a4 f i instances.obj
 0001:00016518       ??0?$basic_stringstream@DU?$char_traits@D@std@@V?$allocator@D@2@@std@@QAE@H@Z 7c097518 f i instances.obj
 0001:0001658b       ??0?$basic_stringstream@DU?$char_traits@D@std@@V?$allocator@D@2@@std@@QAE@ABV?$basic_string@DU?$char_traits@D@std@@V?$allocator@D@2@@1@H@Z 7c09758b f i instances.obj
 0001:00016601       ?str@?$basic_stringstream@DU?$char_traits@D@std@@V?$allocator@D@2@@std@@QAEXABV?$basic_string@DU?$char_traits@D@std@@V?$allocator@D@2@@2@@Z 7c097601 f i instances.obj
 0001:00016609       ??0?$basic_stringstream@_WU?$char_traits@_W@std@@V?$allocator@_W@2@@std@@QAE@H@Z 7c097609 f i instances.obj
 0001:0001667c       ??0?$basic_stringstream@_WU?$char_traits@_W@std@@V?$allocator@_W@2@@std@@QAE@ABV?$basic_string@_WU?$char_traits@_W@std@@V?$allocator@_W@2@@1@H@Z 7c09767c f i instances.obj
 0001:000166f2       ?str@?$basic_stringstream@_WU?$char_traits@_W@std@@V?$allocator@_W@2@@std@@QAEXABV?$basic_string@_WU?$char_traits@_W@std@@V?$allocator@_W@2@@2@@Z 7c0976f2 f i instances.obj
 0001:000166f2       ?str@?$basic_stringstream@GU?$char_traits@G@std@@V?$allocator@G@2@@std@@QAEXABV?$basic_string@GU?$char_traits@G@std@@V?$allocator@G@2@@2@@Z 7c0976f2 f i instances.obj
 0001:000166fa       ??0?$basic_stringstream@GU?$char_traits@G@std@@V?$allocator@G@2@@std@@QAE@H@Z 7c0976fa f i instances.obj
 0001:0001676d       ??0?$basic_stringstream@GU?$char_traits@G@std@@V?$allocator@G@2@@std@@QAE@ABV?$basic_string@GU?$char_traits@G@std@@V?$allocator@G@2@@1@H@Z 7c09776d f i instances.obj
 0001:000167e3       ?open@?$basic_filebuf@DU?$char_traits@D@std@@@std@@QAEPAV12@PBDHH@Z 7c0977e3 f i instances.obj
 0001:00016850       ?open@?$basic_filebuf@DU?$char_traits@D@std@@@std@@QAEPAV12@PBDI@Z 7c097850 f i instances.obj
 0001:00016865       ?open@?$basic_filebuf@_WU?$char_traits@_W@std@@@std@@QAEPAV12@PBDHH@Z 7c097865 f i instances.obj
 0001:000168d2       ?open@?$basic_filebuf@_WU?$char_traits@_W@std@@@std@@QAEPAV12@PBDI@Z 7c0978d2 f i instances.obj
 0001:000168e7       ?imbue@?$basic_filebuf@_WU?$char_traits@_W@std@@@std@@MAEXABVlocale@2@@Z 7c0978e7 f i instances.obj
 0001:00016900       ?open@?$basic_filebuf@GU?$char_traits@G@std@@@std@@QAEPAV12@PBDHH@Z 7c097900 f i instances.obj
 0001:0001696d       ?open@?$basic_filebuf@GU?$char_traits@G@std@@@std@@QAEPAV12@PBDI@Z 7c09796d f i instances.obj
 0001:00016982       ?uflow@?$basic_filebuf@GU?$char_traits@G@std@@@std@@MAEGXZ 7c097982 f i instances.obj
 0001:00016982       ?uflow@?$basic_filebuf@_WU?$char_traits@_W@std@@@std@@MAEGXZ 7c097982 f i instances.obj
 0001:00016afe       ?imbue@?$basic_filebuf@GU?$char_traits@G@std@@@std@@MAEXABVlocale@2@@Z 7c097afe f i instances.obj
 0001:00016b17       ?open@?$basic_ifstream@DU?$char_traits@D@std@@@std@@QAEXPBDHH@Z 7c097b17 f i instances.obj
 0001:00016b4f       ?open@?$basic_ifstream@DU?$char_traits@D@std@@@std@@QAEXPBDI@Z 7c097b4f f i instances.obj
 0001:00016b64       ?open@?$basic_ifstream@_WU?$char_traits@_W@std@@@std@@QAEXPBDHH@Z 7c097b64 f i instances.obj
 0001:00016b9c       ?open@?$basic_ifstream@_WU?$char_traits@_W@std@@@std@@QAEXPBDI@Z 7c097b9c f i instances.obj
 0001:00016bb1       ?open@?$basic_ifstream@GU?$char_traits@G@std@@@std@@QAEXPBDHH@Z 7c097bb1 f i instances.obj
 0001:00016be9       ?open@?$basic_ifstream@GU?$char_traits@G@std@@@std@@QAEXPBDI@Z 7c097be9 f i instances.obj
 0001:00016bfe       ?open@?$basic_ofstream@DU?$char_traits@D@std@@@std@@QAEXPBDHH@Z 7c097bfe f i instances.obj
 0001:00016c36       ?open@?$basic_ofstream@DU?$char_traits@D@std@@@std@@QAEXPBDI@Z 7c097c36 f i instances.obj
 0001:00016c4b       ?open@?$basic_ofstream@_WU?$char_traits@_W@std@@@std@@QAEXPBDHH@Z 7c097c4b f i instances.obj
 0001:00016c83       ?open@?$basic_ofstream@_WU?$char_traits@_W@std@@@std@@QAEXPBDI@Z 7c097c83 f i instances.obj
 0001:00016c98       ?open@?$basic_ofstream@GU?$char_traits@G@std@@@std@@QAEXPBDHH@Z 7c097c98 f i instances.obj
 0001:00016cd0       ?open@?$basic_ofstream@GU?$char_traits@G@std@@@std@@QAEXPBDI@Z 7c097cd0 f i instances.obj
 0001:00016ce5       ?open@?$basic_fstream@DU?$char_traits@D@std@@@std@@QAEXPBDHH@Z 7c097ce5 f i instances.obj
 0001:00016d19       ?open@?$basic_fstream@DU?$char_traits@D@std@@@std@@QAEXPBDI@Z 7c097d19 f i instances.obj
 0001:00016d2e       ?open@?$basic_fstream@_WU?$char_traits@_W@std@@@std@@QAEXPBDHH@Z 7c097d2e f i instances.obj
 0001:00016d62       ?open@?$basic_fstream@_WU?$char_traits@_W@std@@@std@@QAEXPBDI@Z 7c097d62 f i instances.obj
 0001:00016d77       ?open@?$basic_fstream@GU?$char_traits@G@std@@@std@@QAEXPBDHH@Z 7c097d77 f i instances.obj
 0001:00016dab       ?open@?$basic_fstream@GU?$char_traits@G@std@@@std@@QAEXPBDI@Z 7c097dab f i instances.obj
 0001:00016dc0       ??0?$moneypunct@D$00@std@@QAE@I@Z 7c097dc0 f i instances.obj
 0001:00016dda       ??0?$moneypunct@D$00@std@@QAE@ABV_Locinfo@1@I@Z 7c097dda f i instances.obj
 0001:00016df8       ?_Getcat@?$moneypunct@D$00@std@@SAIPAPBVfacet@locale@2@@Z 7c097df8 f i instances.obj
 0001:00016e41       ??0?$moneypunct@_W$00@std@@QAE@I@Z 7c097e41 f i instances.obj
 0001:00016e5b       ??0?$moneypunct@_W$00@std@@QAE@ABV_Locinfo@1@I@Z 7c097e5b f i instances.obj
 0001:00016e79       ?_Getcat@?$moneypunct@_W$00@std@@SAIPAPBVfacet@locale@2@@Z 7c097e79 f i instances.obj
 0001:00016ec2       ??0?$moneypunct@G$00@std@@QAE@I@Z 7c097ec2 f i instances.obj
 0001:00016edc       ??0?$moneypunct@G$00@std@@QAE@ABV_Locinfo@1@I@Z 7c097edc f i instances.obj
 0001:00016efa       ?_Getcat@?$moneypunct@G$00@std@@SAIPAPBVfacet@locale@2@@Z 7c097efa f i instances.obj
 0001:00016f43       ?_Getint@?$time_get@DV?$istreambuf_iterator@DU?$char_traits@D@std@@@std@@@std@@ABAHAAV?$istreambuf_iterator@DU?$char_traits@D@std@@@2@0HHAAH@Z 7c097f43 f i instances.obj
 0001:00017081       ?do_put@?$time_put@DV?$ostreambuf_iterator@DU?$char_traits@D@std@@@std@@@std@@MBE?AV?$ostreambuf_iterator@DU?$char_traits@D@std@@@2@V32@AAVios_base@2@DPBUtm@@DD@Z 7c098081 f i instances.obj
 0001:00017160       ?_Getint@?$time_get@GV?$istreambuf_iterator@GU?$char_traits@G@std@@@std@@@std@@ABAHAAV?$istreambuf_iterator@GU?$char_traits@G@std@@@2@0HHAAH@Z 7c098160 f i instances.obj
 0001:00017160       ?_Getint@?$time_get@_WV?$istreambuf_iterator@_WU?$char_traits@_W@std@@@std@@@std@@ABAHAAV?$istreambuf_iterator@_WU?$char_traits@_W@std@@@2@0HHAAH@Z 7c098160 f i instances.obj
 0001:000172f5       ?do_put@?$time_put@GV?$ostreambuf_iterator@GU?$char_traits@G@std@@@std@@@std@@MBE?AV?$ostreambuf_iterator@GU?$char_traits@G@std@@@2@V32@AAVios_base@2@GPBUtm@@DD@Z 7c0982f5 f i instances.obj
 0001:000172f5       ?do_put@?$time_put@_WV?$ostreambuf_iterator@_WU?$char_traits@_W@std@@@std@@@std@@MBE?AV?$ostreambuf_iterator@_WU?$char_traits@_W@std@@@2@V32@AAVios_base@2@_WPBUtm@@DD@Z 7c0982f5 f i instances.obj
 0001:00017411       ??$?5DU?$char_traits@D@std@@V?$allocator@D@1@@std@@YAAAV?$basic_istream@DU?$char_traits@D@std@@@0@AAV10@AAV?$basic_string@DU?$char_traits@D@std@@V?$allocator@D@2@@0@@Z 7c098411 f i instances.obj
 0001:00017540       ??$?5_WU?$char_traits@_W@std@@V?$allocator@_W@1@@std@@YAAAV?$basic_istream@_WU?$char_traits@_W@std@@@0@AAV10@AAV?$basic_string@_WU?$char_traits@_W@std@@V?$allocator@_W@2@@0@@Z 7c098540 f i instances.obj
 0001:00017680       ??$?5GU?$char_traits@G@std@@V?$allocator@G@1@@std@@YAAAV?$basic_istream@GU?$char_traits@G@std@@@0@AAV10@AAV?$basic_string@GU?$char_traits@G@std@@V?$allocator@G@2@@0@@Z 7c098680 f i instances.obj
 0001:000177c0       ??$?5MDU?$char_traits@D@std@@@std@@YAAAV?$basic_istream@DU?$char_traits@D@std@@@0@AAV10@AAV?$complex@M@0@@Z 7c0987c0 f i instances.obj
 0001:0001793f       ??$?5M_WU?$char_traits@_W@std@@@std@@YAAAV?$basic_istream@_WU?$char_traits@_W@std@@@0@AAV10@AAV?$complex@M@0@@Z 7c09893f f i instances.obj
 0001:00017ac2       ??$?5MGU?$char_traits@G@std@@@std@@YAAAV?$basic_istream@GU?$char_traits@G@std@@@0@AAV10@AAV?$complex@M@0@@Z 7c098ac2 f i instances.obj
 0001:00017c4e       ??$?5NGU?$char_traits@G@std@@@std@@YAAAV?$basic_istream@GU?$char_traits@G@std@@@0@AAV10@AAV?$complex@N@0@@Z 7c098c4e f i instances.obj
 0001:00017c4e       ??$?5OGU?$char_traits@G@std@@@std@@YAAAV?$basic_istream@GU?$char_traits@G@std@@@0@AAV10@AAV?$complex@O@0@@Z 7c098c4e f i instances.obj
 0001:00017dce       ??$?5ODU?$char_traits@D@std@@@std@@YAAAV?$basic_istream@DU?$char_traits@D@std@@@0@AAV10@AAV?$complex@O@0@@Z 7c098dce f i instances.obj
 0001:00017dce       ??$?5NDU?$char_traits@D@std@@@std@@YAAAV?$basic_istream@DU?$char_traits@D@std@@@0@AAV10@AAV?$complex@N@0@@Z 7c098dce f i instances.obj
 0001:00017f41       ??$?5N_WU?$char_traits@_W@std@@@std@@YAAAV?$basic_istream@_WU?$char_traits@_W@std@@@0@AAV10@AAV?$complex@N@0@@Z 7c098f41 f i instances.obj
 0001:00017f41       ??$?5O_WU?$char_traits@_W@std@@@std@@YAAAV?$basic_istream@_WU?$char_traits@_W@std@@@0@AAV10@AAV?$complex@O@0@@Z 7c098f41 f i instances.obj
 0001:000180b8       ??$use_facet@V?$moneypunct@D$00@std@@@std@@YAABV?$moneypunct@D$00@0@ABVlocale@0@@Z 7c0990b8 f i instances.obj
 0001:0001815d       ??$use_facet@V?$moneypunct@_W$00@std@@@std@@YAABV?$moneypunct@_W$00@0@ABVlocale@0@@Z 7c09915d f i instances.obj
 0001:00018202       ??$use_facet@V?$moneypunct@G$00@std@@@std@@YAABV?$moneypunct@G$00@0@ABVlocale@0@@Z 7c099202 f i instances.obj
 0001:000182a7       ??_F?$basic_stringbuf@DU?$char_traits@D@std@@V?$allocator@D@2@@std@@QAEXXZ 7c0992a7 f i instances.obj
 0001:000182af       ??_F?$basic_stringbuf@_WU?$char_traits@_W@std@@V?$allocator@_W@2@@std@@QAEXXZ 7c0992af f i instances.obj
 0001:000182b7       ??_F?$basic_stringbuf@GU?$char_traits@G@std@@V?$allocator@G@2@@std@@QAEXXZ 7c0992b7 f i instances.obj
 0001:000182bf       ??_F?$basic_istringstream@DU?$char_traits@D@std@@V?$allocator@D@2@@std@@QAEXXZ 7c0992bf f i instances.obj
 0001:000182c9       ??_E?$basic_istringstream@DU?$char_traits@D@std@@V?$allocator@D@2@@std@@UAEPAXI@Z 7c0992c9 f i instances.obj
 0001:00018316       ??_F?$basic_istringstream@_WU?$char_traits@_W@std@@V?$allocator@_W@2@@std@@QAEXXZ 7c099316 f i instances.obj
 0001:00018320       ??_E?$basic_istringstream@_WU?$char_traits@_W@std@@V?$allocator@_W@2@@std@@UAEPAXI@Z 7c099320 f i instances.obj
 0001:0001836d       ??_F?$basic_istringstream@GU?$char_traits@G@std@@V?$allocator@G@2@@std@@QAEXXZ 7c09936d f i instances.obj
 0001:00018377       ??_E?$basic_istringstream@GU?$char_traits@G@std@@V?$allocator@G@2@@std@@UAEPAXI@Z 7c099377 f i instances.obj
 0001:000183c4       ??_F?$basic_ostringstream@DU?$char_traits@D@std@@V?$allocator@D@2@@std@@QAEXXZ 7c0993c4 f i instances.obj
 0001:000183ce       ??_E?$basic_ostringstream@DU?$char_traits@D@std@@V?$allocator@D@2@@std@@UAEPAXI@Z 7c0993ce f i instances.obj
 0001:0001841b       ??_F?$basic_ostringstream@_WU?$char_traits@_W@std@@V?$allocator@_W@2@@std@@QAEXXZ 7c09941b f i instances.obj
 0001:00018425       ??_E?$basic_ostringstream@_WU?$char_traits@_W@std@@V?$allocator@_W@2@@std@@UAEPAXI@Z 7c099425 f i instances.obj
 0001:00018472       ??_F?$basic_ostringstream@GU?$char_traits@G@std@@V?$allocator@G@2@@std@@QAEXXZ 7c099472 f i instances.obj
 0001:0001847c       ??_E?$basic_ostringstream@GU?$char_traits@G@std@@V?$allocator@G@2@@std@@UAEPAXI@Z 7c09947c f i instances.obj
 0001:000184c9       ??_F?$basic_stringstream@DU?$char_traits@D@std@@V?$allocator@D@2@@std@@QAEXXZ 7c0994c9 f i instances.obj
 0001:000184d3       ??_E?$basic_stringstream@DU?$char_traits@D@std@@V?$allocator@D@2@@std@@UAEPAXI@Z 7c0994d3 f i instances.obj
 0001:00018520       ??_F?$basic_stringstream@_WU?$char_traits@_W@std@@V?$allocator@_W@2@@std@@QAEXXZ 7c099520 f i instances.obj
 0001:0001852a       ??_E?$basic_stringstream@_WU?$char_traits@_W@std@@V?$allocator@_W@2@@std@@UAEPAXI@Z 7c09952a f i instances.obj
 0001:00018577       ??_F?$basic_stringstream@GU?$char_traits@G@std@@V?$allocator@G@2@@std@@QAEXXZ 7c099577 f i instances.obj
 0001:00018581       ??_E?$basic_stringstream@GU?$char_traits@G@std@@V?$allocator@G@2@@std@@UAEPAXI@Z 7c099581 f i instances.obj
 0001:000185ce       ??_F?$moneypunct@D$00@std@@QAEXXZ 7c0995ce f i instances.obj
 0001:000185d6       ??_F?$moneypunct@_W$00@std@@QAEXXZ 7c0995d6 f i instances.obj
 0001:000185de       ??_F?$moneypunct@G$00@std@@QAEXXZ 7c0995de f i instances.obj
 0001:000185e6       ??0?$basic_string@GU?$char_traits@G@std@@V?$allocator@G@2@@std@@QAE@PBGIABV?$allocator@G@1@@Z 7c0995e6 f i instances.obj
 0001:000185e6       ??0?$basic_string@_WU?$char_traits@_W@std@@V?$allocator@_W@2@@std@@QAE@PB_WIABV?$allocator@_W@1@@Z 7c0995e6 f i instances.obj
 0001:0001860c       ??0?$basic_string@_WU?$char_traits@_W@std@@V?$allocator@_W@2@@std@@QAE@I_W@Z 7c09960c f i instances.obj
 0001:0001860c       ??0?$basic_string@GU?$char_traits@G@std@@V?$allocator@G@2@@std@@QAE@IG@Z 7c09960c f i instances.obj
 0001:00018632       ??0?$basic_string@_WU?$char_traits@_W@std@@V?$allocator@_W@2@@std@@QAE@I_WABV?$allocator@_W@1@@Z 7c099632 f i instances.obj
 0001:00018632       ??0?$basic_string@GU?$char_traits@G@std@@V?$allocator@G@2@@std@@QAE@IGABV?$allocator@G@1@@Z 7c099632 f i instances.obj
 0001:00018658       ??0?$basic_string@_WU?$char_traits@_W@std@@V?$allocator@_W@2@@std@@QAE@Vconst_iterator@01@0@Z 7c099658 f i instances.obj
 0001:00018658       ??0?$basic_string@GU?$char_traits@G@std@@V?$allocator@G@2@@std@@QAE@PBG0@Z 7c099658 f i instances.obj
 0001:00018658       ??0?$basic_string@GU?$char_traits@G@std@@V?$allocator@G@2@@std@@QAE@Vconst_iterator@01@0@Z 7c099658 f i instances.obj
 0001:00018658       ??0?$basic_string@_WU?$char_traits@_W@std@@V?$allocator@_W@2@@std@@QAE@PB_W0@Z 7c099658 f i instances.obj
 0001:0001868b       ??4?$basic_string@_WU?$char_traits@_W@std@@V?$allocator@_W@2@@std@@QAEAAV01@_W@Z 7c09968b f i instances.obj
 0001:0001868b       ??4?$basic_string@GU?$char_traits@G@std@@V?$allocator@G@2@@std@@QAEAAV01@G@Z 7c09968b f i instances.obj
 0001:00018699       ??Y?$basic_string@_WU?$char_traits@_W@std@@V?$allocator@_W@2@@std@@QAEAAV01@_W@Z 7c099699 f i instances.obj
 0001:00018699       ??Y?$basic_string@GU?$char_traits@G@std@@V?$allocator@G@2@@std@@QAEAAV01@G@Z 7c099699 f i instances.obj
 0001:000186a7       ?append@?$basic_string@GU?$char_traits@G@std@@V?$allocator@G@2@@std@@QAEAAV12@ABV12@@Z 7c0996a7 f i instances.obj
 0001:000186a7       ??Y?$basic_string@_WU?$char_traits@_W@std@@V?$allocator@_W@2@@std@@QAEAAV01@ABV01@@Z 7c0996a7 f i instances.obj
 0001:000186a7       ??Y?$basic_string@GU?$char_traits@G@std@@V?$allocator@G@2@@std@@QAEAAV01@ABV01@@Z 7c0996a7 f i instances.obj
 0001:000186a7       ?append@?$basic_string@_WU?$char_traits@_W@std@@V?$allocator@_W@2@@std@@QAEAAV12@ABV12@@Z 7c0996a7 f i instances.obj
 0001:000186b7       ?assign@?$basic_string@GU?$char_traits@G@std@@V?$allocator@G@2@@std@@QAEAAV12@Vconst_iterator@12@0@Z 7c0996b7 f i instances.obj
 0001:000186b7       ?assign@?$basic_string@_WU?$char_traits@_W@std@@V?$allocator@_W@2@@std@@QAEAAV12@Vconst_iterator@12@0@Z 7c0996b7 f i instances.obj
 0001:000186b7       ?assign@?$basic_string@GU?$char_traits@G@std@@V?$allocator@G@2@@std@@QAEAAV12@PBG0@Z 7c0996b7 f i instances.obj
 0001:000186b7       ?assign@?$basic_string@_WU?$char_traits@_W@std@@V?$allocator@_W@2@@std@@QAEAAV12@PB_W0@Z 7c0996b7 f i instances.obj
 0001:000186ec       ?insert@?$basic_string@GU?$char_traits@G@std@@V?$allocator@G@2@@std@@QAE?AViterator@12@V312@@Z 7c0996ec f i instances.obj
 0001:000186ec       ?insert@?$basic_string@_WU?$char_traits@_W@std@@V?$allocator@_W@2@@std@@QAE?AViterator@12@V312@@Z 7c0996ec f i instances.obj
 0001:00018702       ?insert@?$basic_string@_WU?$char_traits@_W@std@@V?$allocator@_W@2@@std@@QAEXViterator@12@Vconst_iterator@12@1@Z 7c099702 f i instances.obj
 0001:00018702       ?insert@?$basic_string@GU?$char_traits@G@std@@V?$allocator@G@2@@std@@QAEXViterator@12@PBG1@Z 7c099702 f i instances.obj
 0001:00018702       ?insert@?$basic_string@GU?$char_traits@G@std@@V?$allocator@G@2@@std@@QAEXViterator@12@Vconst_iterator@12@1@Z 7c099702 f i instances.obj
 0001:00018702       ?insert@?$basic_string@_WU?$char_traits@_W@std@@V?$allocator@_W@2@@std@@QAEXViterator@12@PB_W1@Z 7c099702 f i instances.obj
 0001:0001871a       ?resize@?$basic_string@_WU?$char_traits@_W@std@@V?$allocator@_W@2@@std@@QAEXI@Z 7c09971a f i instances.obj
 0001:0001871a       ?resize@?$basic_string@GU?$char_traits@G@std@@V?$allocator@G@2@@std@@QAEXI@Z 7c09971a f i instances.obj
 0001:00018728       ??0?$basic_string@_WU?$char_traits@_W@std@@V?$allocator@_W@2@@std@@QAE@ABV01@@Z 7c099728 f i instances.obj
 0001:00018728       ??0?$basic_string@GU?$char_traits@G@std@@V?$allocator@G@2@@std@@QAE@ABV01@@Z 7c099728 f i instances.obj
 0001:0001874e       ??0?$basic_string@GU?$char_traits@G@std@@V?$allocator@G@2@@std@@QAE@ABV01@II@Z 7c09974e f i instances.obj
 0001:0001874e       ??0?$basic_string@_WU?$char_traits@_W@std@@V?$allocator@_W@2@@std@@QAE@ABV01@II@Z 7c09974e f i instances.obj
 0001:00018778       ??0?$basic_string@_WU?$char_traits@_W@std@@V?$allocator@_W@2@@std@@QAE@ABV01@IIABV?$allocator@_W@1@@Z 7c099778 f i instances.obj
 0001:00018778       ??0?$basic_string@GU?$char_traits@G@std@@V?$allocator@G@2@@std@@QAE@ABV01@IIABV?$allocator@G@1@@Z 7c099778 f i instances.obj
 0001:000187a2       ??0?$basic_string@_WU?$char_traits@_W@std@@V?$allocator@_W@2@@std@@QAE@PB_WI@Z 7c0997a2 f i instances.obj
 0001:000187a2       ??0?$basic_string@GU?$char_traits@G@std@@V?$allocator@G@2@@std@@QAE@PBGI@Z 7c0997a2 f i instances.obj
 0001:000187c8       ??0?$basic_string@GU?$char_traits@G@std@@V?$allocator@G@2@@std@@QAE@PBG@Z 7c0997c8 f i instances.obj
 0001:000187c8       ??0?$basic_string@_WU?$char_traits@_W@std@@V?$allocator@_W@2@@std@@QAE@PB_W@Z 7c0997c8 f i instances.obj
 0001:000187ea       ??0?$basic_string@GU?$char_traits@G@std@@V?$allocator@G@2@@std@@QAE@PBGABV?$allocator@G@1@@Z 7c0997ea f i instances.obj
 0001:000187ea       ??0?$basic_string@_WU?$char_traits@_W@std@@V?$allocator@_W@2@@std@@QAE@PB_WABV?$allocator@_W@1@@Z 7c0997ea f i instances.obj
 0001:0001880c       ??4?$basic_string@GU?$char_traits@G@std@@V?$allocator@G@2@@std@@QAEAAV01@PBG@Z 7c09980c f i instances.obj
 0001:0001880c       ??4?$basic_string@_WU?$char_traits@_W@std@@V?$allocator@_W@2@@std@@QAEAAV01@PB_W@Z 7c09980c f i instances.obj
 0001:00018811       ??Y?$basic_string@GU?$char_traits@G@std@@V?$allocator@G@2@@std@@QAEAAV01@PBG@Z 7c099811 f i instances.obj
 0001:00018811       ??Y?$basic_string@_WU?$char_traits@_W@std@@V?$allocator@_W@2@@std@@QAEAAV01@PB_W@Z 7c099811 f i instances.obj
 0001:00018816       ?append@?$basic_string@GU?$char_traits@G@std@@V?$allocator@G@2@@std@@QAEAAV12@PBG0@Z 7c099816 f i instances.obj
 0001:00018816       ?append@?$basic_string@GU?$char_traits@G@std@@V?$allocator@G@2@@std@@QAEAAV12@Vconst_iterator@12@0@Z 7c099816 f i instances.obj
 0001:00018816       ?append@?$basic_string@_WU?$char_traits@_W@std@@V?$allocator@_W@2@@std@@QAEAAV12@Vconst_iterator@12@0@Z 7c099816 f i instances.obj
 0001:00018816       ?append@?$basic_string@_WU?$char_traits@_W@std@@V?$allocator@_W@2@@std@@QAEAAV12@PB_W0@Z 7c099816 f i instances.obj
 0001:0001884c       ??4?$basic_string@_WU?$char_traits@_W@std@@V?$allocator@_W@2@@std@@QAEAAV01@ABV01@@Z 7c09984c f i instances.obj
 0001:0001884c       ?assign@?$basic_string@GU?$char_traits@G@std@@V?$allocator@G@2@@std@@QAEAAV12@ABV12@@Z 7c09984c f i instances.obj
 0001:0001884c       ??4?$basic_string@GU?$char_traits@G@std@@V?$allocator@G@2@@std@@QAEAAV01@ABV01@@Z 7c09984c f i instances.obj
 0001:0001884c       ?assign@?$basic_string@_WU?$char_traits@_W@std@@V?$allocator@_W@2@@std@@QAEAAV12@ABV12@@Z 7c09984c f i instances.obj
 0001:0001885c       ?insert@?$basic_string@_WU?$char_traits@_W@std@@V?$allocator@_W@2@@std@@QAEAAV12@IABV12@@Z 7c09985c f i instances.obj
 0001:0001885c       ?insert@?$basic_string@GU?$char_traits@G@std@@V?$allocator@G@2@@std@@QAEAAV12@IABV12@@Z 7c09985c f i instances.obj
 0001:00018870       ?replace@?$basic_string@GU?$char_traits@G@std@@V?$allocator@G@2@@std@@QAEAAV12@IIABV12@@Z 7c099870 f i instances.obj
 0001:00018870       ?replace@?$basic_string@_WU?$char_traits@_W@std@@V?$allocator@_W@2@@std@@QAEAAV12@IIABV12@@Z 7c099870 f i instances.obj
 0001:00018888       ?replace@?$basic_string@GU?$char_traits@G@std@@V?$allocator@G@2@@std@@QAEAAV12@Viterator@12@0ABV12@@Z 7c099888 f i instances.obj
 0001:00018888       ?replace@?$basic_string@_WU?$char_traits@_W@std@@V?$allocator@_W@2@@std@@QAEAAV12@Viterator@12@0ABV12@@Z 7c099888 f i instances.obj
 0001:000188c6       ?substr@?$basic_string@GU?$char_traits@G@std@@V?$allocator@G@2@@std@@QBE?AV12@II@Z 7c0998c6 f i instances.obj
 0001:000188c6       ?substr@?$basic_string@_WU?$char_traits@_W@std@@V?$allocator@_W@2@@std@@QBE?AV12@II@Z 7c0998c6 f i instances.obj
 0001:000188e4       ?_Getifld@?$num_get@DV?$istreambuf_iterator@DU?$char_traits@D@std@@@std@@@std@@ABAHPADAAV?$istreambuf_iterator@DU?$char_traits@D@std@@@2@1HABVlocale@2@@Z 7c0998e4 f i instances.obj
 0001:00018bc7       ?_Getffld@?$num_get@DV?$istreambuf_iterator@DU?$char_traits@D@std@@@std@@@std@@ABAHPADAAV?$istreambuf_iterator@DU?$char_traits@D@std@@@2@1ABVlocale@2@@Z 7c099bc7 f i instances.obj
 0001:0001902a       ?do_put@?$num_put@DV?$ostreambuf_iterator@DU?$char_traits@D@std@@@std@@@std@@MBE?AV?$ostreambuf_iterator@DU?$char_traits@D@std@@@2@V32@AAVios_base@2@D_N@Z 7c09a02a f i instances.obj
 0001:00019186       ?_Fput@?$num_put@DV?$ostreambuf_iterator@DU?$char_traits@D@std@@@std@@@std@@ABA?AV?$ostreambuf_iterator@DU?$char_traits@D@std@@@2@V32@AAVios_base@2@DPBDIIII@Z 7c09a186 f i instances.obj
 0001:0001956a       ?_Iput@?$num_put@DV?$ostreambuf_iterator@DU?$char_traits@D@std@@@std@@@std@@ABA?AV?$ostreambuf_iterator@DU?$char_traits@D@std@@@2@V32@AAVios_base@2@DPADI@Z 7c09a56a f i instances.obj
 0001:00019753       ?_Getifld@?$num_get@_WV?$istreambuf_iterator@_WU?$char_traits@_W@std@@@std@@@std@@ABAHPADAAV?$istreambuf_iterator@_WU?$char_traits@_W@std@@@2@1HABVlocale@2@@Z 7c09a753 f i instances.obj
 0001:00019abd       ?_Getffld@?$num_get@_WV?$istreambuf_iterator@_WU?$char_traits@_W@std@@@std@@@std@@ABAHPADAAV?$istreambuf_iterator@_WU?$char_traits@_W@std@@@2@1ABVlocale@2@@Z 7c09aabd f i instances.obj
 0001:0001a014       ?do_put@?$num_put@_WV?$ostreambuf_iterator@_WU?$char_traits@_W@std@@@std@@@std@@MBE?AV?$ostreambuf_iterator@_WU?$char_traits@_W@std@@@2@V32@AAVios_base@2@_W_N@Z 7c09b014 f i instances.obj
 0001:0001a170       ?_Fput@?$num_put@_WV?$ostreambuf_iterator@_WU?$char_traits@_W@std@@@std@@@std@@ABA?AV?$ostreambuf_iterator@_WU?$char_traits@_W@std@@@2@V32@AAVios_base@2@_WPBDIIII@Z 7c09b170 f i instances.obj
 0001:0001a56e       ?_Iput@?$num_put@_WV?$ostreambuf_iterator@_WU?$char_traits@_W@std@@@std@@@std@@ABA?AV?$ostreambuf_iterator@_WU?$char_traits@_W@std@@@2@V32@AAVios_base@2@_WPADI@Z 7c09b56e f i instances.obj
 0001:0001a755       ?_Getifld@?$num_get@GV?$istreambuf_iterator@GU?$char_traits@G@std@@@std@@@std@@ABAHPADAAV?$istreambuf_iterator@GU?$char_traits@G@std@@@2@1HABVlocale@2@@Z 7c09b755 f i instances.obj
 0001:0001aabf       ?_Getffld@?$num_get@GV?$istreambuf_iterator@GU?$char_traits@G@std@@@std@@@std@@ABAHPADAAV?$istreambuf_iterator@GU?$char_traits@G@std@@@2@1ABVlocale@2@@Z 7c09babf f i instances.obj
 0001:0001b016       ?do_put@?$num_put@GV?$ostreambuf_iterator@GU?$char_traits@G@std@@@std@@@std@@MBE?AV?$ostreambuf_iterator@GU?$char_traits@G@std@@@2@V32@AAVios_base@2@G_N@Z 7c09c016 f i instances.obj
 0001:0001b172       ?_Fput@?$num_put@GV?$ostreambuf_iterator@GU?$char_traits@G@std@@@std@@@std@@ABA?AV?$ostreambuf_iterator@GU?$char_traits@G@std@@@2@V32@AAVios_base@2@GPBDIIII@Z 7c09c172 f i instances.obj
 0001:0001b570       ?_Iput@?$num_put@GV?$ostreambuf_iterator@GU?$char_traits@G@std@@@std@@@std@@ABA?AV?$ostreambuf_iterator@GU?$char_traits@G@std@@@2@V32@AAVios_base@2@GPADI@Z 7c09c570 f i instances.obj
 0001:0001b757       ?get@?$basic_istream@DU?$char_traits@D@std@@@std@@QAEAAV12@PADH@Z 7c09c757 f i instances.obj
 0001:0001b77c       ?get@?$basic_istream@DU?$char_traits@D@std@@@std@@QAEAAV12@AAV?$basic_streambuf@DU?$char_traits@D@std@@@2@@Z 7c09c77c f i instances.obj
 0001:0001b79d       ?getline@?$basic_istream@DU?$char_traits@D@std@@@std@@QAEAAV12@PADH@Z 7c09c79d f i instances.obj
 0001:0001b7c2       ?get@?$basic_istream@_WU?$char_traits@_W@std@@@std@@QAEAAV12@PA_WH@Z 7c09c7c2 f i instances.obj
 0001:0001b7e7       ?get@?$basic_istream@_WU?$char_traits@_W@std@@@std@@QAEAAV12@AAV?$basic_streambuf@_WU?$char_traits@_W@std@@@2@@Z 7c09c7e7 f i instances.obj
 0001:0001b808       ?getline@?$basic_istream@_WU?$char_traits@_W@std@@@std@@QAEAAV12@PA_WH@Z 7c09c808 f i instances.obj
 0001:0001b82d       ?get@?$basic_istream@GU?$char_traits@G@std@@@std@@QAEAAV12@PAGH@Z 7c09c82d f i instances.obj
 0001:0001b852       ?get@?$basic_istream@GU?$char_traits@G@std@@@std@@QAEAAV12@AAV?$basic_streambuf@GU?$char_traits@G@std@@@2@@Z 7c09c852 f i instances.obj
 0001:0001b873       ?getline@?$basic_istream@GU?$char_traits@G@std@@@std@@QAEAAV12@PAGH@Z 7c09c873 f i instances.obj
 0001:0001b898       ?str@?$basic_stringbuf@DU?$char_traits@D@std@@V?$allocator@D@2@@std@@QBE?AV?$basic_string@DU?$char_traits@D@std@@V?$allocator@D@2@@2@XZ 7c09c898 f i instances.obj
 0001:0001b961       ?str@?$basic_stringbuf@_WU?$char_traits@_W@std@@V?$allocator@_W@2@@std@@QBE?AV?$basic_string@_WU?$char_traits@_W@std@@V?$allocator@_W@2@@2@XZ 7c09c961 f i instances.obj
 0001:0001b961       ?str@?$basic_stringbuf@GU?$char_traits@G@std@@V?$allocator@G@2@@std@@QBE?AV?$basic_string@GU?$char_traits@G@std@@V?$allocator@G@2@@2@XZ 7c09c961 f i instances.obj
 0001:0001ba31       ?str@?$basic_istringstream@DU?$char_traits@D@std@@V?$allocator@D@2@@std@@QBE?AV?$basic_string@DU?$char_traits@D@std@@V?$allocator@D@2@@2@XZ 7c09ca31 f i instances.obj
 0001:0001ba4b       ?str@?$basic_istringstream@GU?$char_traits@G@std@@V?$allocator@G@2@@std@@QBE?AV?$basic_string@GU?$char_traits@G@std@@V?$allocator@G@2@@2@XZ 7c09ca4b f i instances.obj
 0001:0001ba4b       ?str@?$basic_istringstream@_WU?$char_traits@_W@std@@V?$allocator@_W@2@@std@@QBE?AV?$basic_string@_WU?$char_traits@_W@std@@V?$allocator@_W@2@@2@XZ 7c09ca4b f i instances.obj
 0001:0001ba65       ?str@?$basic_ostringstream@DU?$char_traits@D@std@@V?$allocator@D@2@@std@@QBE?AV?$basic_string@DU?$char_traits@D@std@@V?$allocator@D@2@@2@XZ 7c09ca65 f i instances.obj
 0001:0001ba7f       ?str@?$basic_ostringstream@_WU?$char_traits@_W@std@@V?$allocator@_W@2@@std@@QBE?AV?$basic_string@_WU?$char_traits@_W@std@@V?$allocator@_W@2@@2@XZ 7c09ca7f f i instances.obj
 0001:0001ba7f       ?str@?$basic_ostringstream@GU?$char_traits@G@std@@V?$allocator@G@2@@std@@QBE?AV?$basic_string@GU?$char_traits@G@std@@V?$allocator@G@2@@2@XZ 7c09ca7f f i instances.obj
 0001:0001ba99       ?str@?$basic_stringstream@DU?$char_traits@D@std@@V?$allocator@D@2@@std@@QBE?AV?$basic_string@DU?$char_traits@D@std@@V?$allocator@D@2@@2@XZ 7c09ca99 f i instances.obj
 0001:0001bab3       ?str@?$basic_stringstream@GU?$char_traits@G@std@@V?$allocator@G@2@@std@@QBE?AV?$basic_string@GU?$char_traits@G@std@@V?$allocator@G@2@@2@XZ 7c09cab3 f i instances.obj
 0001:0001bab3       ?str@?$basic_stringstream@_WU?$char_traits@_W@std@@V?$allocator@_W@2@@std@@QBE?AV?$basic_string@_WU?$char_traits@_W@std@@V?$allocator@_W@2@@2@XZ 7c09cab3 f i instances.obj
 0001:0001bacd       ?_Endwrite@?$basic_filebuf@GU?$char_traits@G@std@@@std@@IAE_NXZ 7c09cacd f i instances.obj
 0001:0001bacd       ?_Endwrite@?$basic_filebuf@_WU?$char_traits@_W@std@@@std@@IAE_NXZ 7c09cacd f i instances.obj
 0001:0001bbc3       ?overflow@?$basic_filebuf@_WU?$char_traits@_W@std@@@std@@MAEGG@Z 7c09cbc3 f i instances.obj
 0001:0001bbc3       ?overflow@?$basic_filebuf@GU?$char_traits@G@std@@@std@@MAEGG@Z 7c09cbc3 f i instances.obj
 0001:0001bd74       ?do_get@?$messages@D@std@@MBE?AV?$basic_string@DU?$char_traits@D@std@@V?$allocator@D@2@@2@HHHABV32@@Z 7c09cd74 f i instances.obj
 0001:0001bd8e       ?do_get@?$messages@_W@std@@MBE?AV?$basic_string@_WU?$char_traits@_W@std@@V?$allocator@_W@2@@2@HHHABV32@@Z 7c09cd8e f i instances.obj
 0001:0001bd8e       ?do_get@?$messages@G@std@@MBE?AV?$basic_string@GU?$char_traits@G@std@@V?$allocator@G@2@@2@HHHABV32@@Z 7c09cd8e f i instances.obj
 0001:0001bda8       ?do_falsename@?$numpunct@D@std@@MBE?AV?$basic_string@DU?$char_traits@D@std@@V?$allocator@D@2@@2@XZ 7c09cda8 f i instances.obj
 0001:0001bda8       ?do_curr_symbol@?$_Mpunct@D@std@@MBE?AV?$basic_string@DU?$char_traits@D@std@@V?$allocator@D@2@@2@XZ 7c09cda8 f i instances.obj
 0001:0001bdc2       ?do_truename@?$numpunct@D@std@@MBE?AV?$basic_string@DU?$char_traits@D@std@@V?$allocator@D@2@@2@XZ 7c09cdc2 f i instances.obj
 0001:0001bdc2       ?do_positive_sign@?$_Mpunct@D@std@@MBE?AV?$basic_string@DU?$char_traits@D@std@@V?$allocator@D@2@@2@XZ 7c09cdc2 f i instances.obj
 0001:0001bddc       ?do_negative_sign@?$_Mpunct@D@std@@MBE?AV?$basic_string@DU?$char_traits@D@std@@V?$allocator@D@2@@2@XZ 7c09cddc f i instances.obj
 0001:0001bdf6       ?do_grouping@?$_Mpunct@G@std@@MBE?AV?$basic_string@DU?$char_traits@D@std@@V?$allocator@D@2@@2@XZ 7c09cdf6 f i instances.obj
 0001:0001bdf6       ?do_grouping@?$_Mpunct@D@std@@MBE?AV?$basic_string@DU?$char_traits@D@std@@V?$allocator@D@2@@2@XZ 7c09cdf6 f i instances.obj
 0001:0001bdf6       ?do_grouping@?$numpunct@_W@std@@MBE?AV?$basic_string@DU?$char_traits@D@std@@V?$allocator@D@2@@2@XZ 7c09cdf6 f i instances.obj
 0001:0001bdf6       ?do_grouping@?$_Mpunct@_W@std@@MBE?AV?$basic_string@DU?$char_traits@D@std@@V?$allocator@D@2@@2@XZ 7c09cdf6 f i instances.obj
 0001:0001bdf6       ?do_grouping@?$numpunct@D@std@@MBE?AV?$basic_string@DU?$char_traits@D@std@@V?$allocator@D@2@@2@XZ 7c09cdf6 f i instances.obj
 0001:0001bdf6       ?do_grouping@?$numpunct@G@std@@MBE?AV?$basic_string@DU?$char_traits@D@std@@V?$allocator@D@2@@2@XZ 7c09cdf6 f i instances.obj
 0001:0001be10       ?do_falsename@?$numpunct@_W@std@@MBE?AV?$basic_string@_WU?$char_traits@_W@std@@V?$allocator@_W@2@@2@XZ 7c09ce10 f i instances.obj
 0001:0001be10       ?do_curr_symbol@?$_Mpunct@_W@std@@MBE?AV?$basic_string@_WU?$char_traits@_W@std@@V?$allocator@_W@2@@2@XZ 7c09ce10 f i instances.obj
 0001:0001be10       ?do_curr_symbol@?$_Mpunct@G@std@@MBE?AV?$basic_string@GU?$char_traits@G@std@@V?$allocator@G@2@@2@XZ 7c09ce10 f i instances.obj
 0001:0001be10       ?do_falsename@?$numpunct@G@std@@MBE?AV?$basic_string@GU?$char_traits@G@std@@V?$allocator@G@2@@2@XZ 7c09ce10 f i instances.obj
 0001:0001be2a       ?do_positive_sign@?$_Mpunct@G@std@@MBE?AV?$basic_string@GU?$char_traits@G@std@@V?$allocator@G@2@@2@XZ 7c09ce2a f i instances.obj
 0001:0001be2a       ?do_truename@?$numpunct@G@std@@MBE?AV?$basic_string@GU?$char_traits@G@std@@V?$allocator@G@2@@2@XZ 7c09ce2a f i instances.obj
 0001:0001be2a       ?do_positive_sign@?$_Mpunct@_W@std@@MBE?AV?$basic_string@_WU?$char_traits@_W@std@@V?$allocator@_W@2@@2@XZ 7c09ce2a f i instances.obj
 0001:0001be2a       ?do_truename@?$numpunct@_W@std@@MBE?AV?$basic_string@_WU?$char_traits@_W@std@@V?$allocator@_W@2@@2@XZ 7c09ce2a f i instances.obj
 0001:0001be44       ?do_negative_sign@?$_Mpunct@G@std@@MBE?AV?$basic_string@GU?$char_traits@G@std@@V?$allocator@G@2@@2@XZ 7c09ce44 f i instances.obj
 0001:0001be44       ?do_negative_sign@?$_Mpunct@_W@std@@MBE?AV?$basic_string@_WU?$char_traits@_W@std@@V?$allocator@_W@2@@2@XZ 7c09ce44 f i instances.obj
 0001:0001be5e       ?do_get_time@?$time_get@DV?$istreambuf_iterator@DU?$char_traits@D@std@@@std@@@std@@MBE?AV?$istreambuf_iterator@DU?$char_traits@D@std@@@2@V32@0AAVios_base@2@AAHPAUtm@@@Z 7c09ce5e f i instances.obj
 0001:0001bf1a       ?do_get_date@?$time_get@DV?$istreambuf_iterator@DU?$char_traits@D@std@@@std@@@std@@MBE?AV?$istreambuf_iterator@DU?$char_traits@D@std@@@2@V32@0AAVios_base@2@AAHPAUtm@@@Z 7c09cf1a f i instances.obj
 0001:0001c2be       ?do_get_year@?$time_get@DV?$istreambuf_iterator@DU?$char_traits@D@std@@@std@@@std@@MBE?AV?$istreambuf_iterator@DU?$char_traits@D@std@@@2@V32@0AAVios_base@2@AAHPAUtm@@@Z 7c09d2be f i instances.obj
 0001:0001c32a       ?do_get_time@?$time_get@_WV?$istreambuf_iterator@_WU?$char_traits@_W@std@@@std@@@std@@MBE?AV?$istreambuf_iterator@_WU?$char_traits@_W@std@@@2@V32@0AAVios_base@2@AAHPAUtm@@@Z 7c09d32a f i instances.obj
 0001:0001c32a       ?do_get_time@?$time_get@GV?$istreambuf_iterator@GU?$char_traits@G@std@@@std@@@std@@MBE?AV?$istreambuf_iterator@GU?$char_traits@G@std@@@2@V32@0AAVios_base@2@AAHPAUtm@@@Z 7c09d32a f i instances.obj
 0001:0001c400       ?do_get_date@?$time_get@_WV?$istreambuf_iterator@_WU?$char_traits@_W@std@@@std@@@std@@MBE?AV?$istreambuf_iterator@_WU?$char_traits@_W@std@@@2@V32@0AAVios_base@2@AAHPAUtm@@@Z 7c09d400 f i instances.obj
 0001:0001c400       ?do_get_date@?$time_get@GV?$istreambuf_iterator@GU?$char_traits@G@std@@@std@@@std@@MBE?AV?$istreambuf_iterator@GU?$char_traits@G@std@@@2@V32@0AAVios_base@2@AAHPAUtm@@@Z 7c09d400 f i instances.obj
 0001:0001c848       ?do_get_year@?$time_get@GV?$istreambuf_iterator@GU?$char_traits@G@std@@@std@@@std@@MBE?AV?$istreambuf_iterator@GU?$char_traits@G@std@@@2@V32@0AAVios_base@2@AAHPAUtm@@@Z 7c09d848 f i instances.obj
 0001:0001c848       ?do_get_year@?$time_get@_WV?$istreambuf_iterator@_WU?$char_traits@_W@std@@@std@@@std@@MBE?AV?$istreambuf_iterator@_WU?$char_traits@_W@std@@@2@V32@0AAVios_base@2@AAHPAUtm@@@Z 7c09d848 f i instances.obj
 0001:0001c8b4       ?do_transform@?$collate@D@std@@MBE?AV?$basic_string@DU?$char_traits@D@std@@V?$allocator@D@2@@2@PBD0@Z 7c09d8b4 f i instances.obj
 0001:0001c94a       ?do_transform@?$collate@_W@std@@MBE?AV?$basic_string@_WU?$char_traits@_W@std@@V?$allocator@_W@2@@2@PB_W0@Z 7c09d94a f i instances.obj
 0001:0001c9e3       ?do_transform@?$collate@G@std@@MBE?AV?$basic_string@GU?$char_traits@G@std@@V?$allocator@G@2@@2@PBG0@Z 7c09d9e3 f i instances.obj
 0001:0001ca7c       ??$?HDU?$char_traits@D@std@@V?$allocator@D@1@@std@@YA?AV?$basic_string@DU?$char_traits@D@std@@V?$allocator@D@2@@0@ABV10@PBD@Z 7c09da7c f i instances.obj
 0001:0001caca       ??$?HDU?$char_traits@D@std@@V?$allocator@D@1@@std@@YA?AV?$basic_string@DU?$char_traits@D@std@@V?$allocator@D@2@@0@ABV10@D@Z 7c09daca f i instances.obj
 0001:0001cb1a       ??$getline@DU?$char_traits@D@std@@V?$allocator@D@2@@std@@YAAAV?$basic_istream@DU?$char_traits@D@std@@@0@AAV10@AAV?$basic_string@DU?$char_traits@D@std@@V?$allocator@D@2@@0@D@Z 7c09db1a f i instances.obj
 0001:0001cc1b       ??$?HGU?$char_traits@G@std@@V?$allocator@G@1@@std@@YA?AV?$basic_string@GU?$char_traits@G@std@@V?$allocator@G@2@@0@ABV10@PBG@Z 7c09dc1b f i instances.obj
 0001:0001cc1b       ??$?H_WU?$char_traits@_W@std@@V?$allocator@_W@1@@std@@YA?AV?$basic_string@_WU?$char_traits@_W@std@@V?$allocator@_W@2@@0@ABV10@PB_W@Z 7c09dc1b f i instances.obj
 0001:0001cc69       ??$getline@_WU?$char_traits@_W@std@@V?$allocator@_W@2@@std@@YAAAV?$basic_istream@_WU?$char_traits@_W@std@@@0@AAV10@AAV?$basic_string@_WU?$char_traits@_W@std@@V?$allocator@_W@2@@0@_W@Z 7c09dc69 f i instances.obj
 0001:0001cd75       ??$?H_WU?$char_traits@_W@std@@V?$allocator@_W@1@@std@@YA?AV?$basic_string@_WU?$char_traits@_W@std@@V?$allocator@_W@2@@0@ABV10@_W@Z 7c09dd75 f i instances.obj
 0001:0001cd75       ??$?HGU?$char_traits@G@std@@V?$allocator@G@1@@std@@YA?AV?$basic_string@GU?$char_traits@G@std@@V?$allocator@G@2@@0@ABV10@G@Z 7c09dd75 f i instances.obj
 0001:0001cdc5       ??$getline@GU?$char_traits@G@std@@V?$allocator@G@2@@std@@YAAAV?$basic_istream@GU?$char_traits@G@std@@@0@AAV10@AAV?$basic_string@GU?$char_traits@G@std@@V?$allocator@G@2@@0@G@Z 7c09ddc5 f i instances.obj
 0001:0001ced1       ??$?6MDU?$char_traits@D@std@@@std@@YAAAV?$basic_ostream@DU?$char_traits@D@std@@@0@AAV10@ABV?$complex@M@0@@Z 7c09ded1 f i instances.obj
 0001:0001d078       ??$?6M_WU?$char_traits@_W@std@@@std@@YAAAV?$basic_ostream@_WU?$char_traits@_W@std@@@0@AAV10@ABV?$complex@M@0@@Z 7c09e078 f i instances.obj
 0001:0001d223       ??$?6MGU?$char_traits@G@std@@@std@@YAAAV?$basic_ostream@GU?$char_traits@G@std@@@0@AAV10@ABV?$complex@M@0@@Z 7c09e223 f i instances.obj
 0001:0001d3c9       ??$?6NDU?$char_traits@D@std@@@std@@YAAAV?$basic_ostream@DU?$char_traits@D@std@@@0@AAV10@ABV?$complex@N@0@@Z 7c09e3c9 f i instances.obj
 0001:0001d578       ??$?6N_WU?$char_traits@_W@std@@@std@@YAAAV?$basic_ostream@_WU?$char_traits@_W@std@@@0@AAV10@ABV?$complex@N@0@@Z 7c09e578 f i instances.obj
 0001:0001d72b       ??$?6NGU?$char_traits@G@std@@@std@@YAAAV?$basic_ostream@GU?$char_traits@G@std@@@0@AAV10@ABV?$complex@N@0@@Z 7c09e72b f i instances.obj
 0001:0001d8d9       ??$?6ODU?$char_traits@D@std@@@std@@YAAAV?$basic_ostream@DU?$char_traits@D@std@@@0@AAV10@ABV?$complex@O@0@@Z 7c09e8d9 f i instances.obj
 0001:0001da88       ??$?6O_WU?$char_traits@_W@std@@@std@@YAAAV?$basic_ostream@_WU?$char_traits@_W@std@@@0@AAV10@ABV?$complex@O@0@@Z 7c09ea88 f i instances.obj
 0001:0001dc3b       ??$?6OGU?$char_traits@G@std@@@std@@YAAAV?$basic_ostream@GU?$char_traits@G@std@@@0@AAV10@ABV?$complex@O@0@@Z 7c09ec3b f i instances.obj
 0001:0001dde9       ??$_Getloctxt@DV?$istreambuf_iterator@DU?$char_traits@D@std@@@std@@@std@@YAHAAV?$istreambuf_iterator@DU?$char_traits@D@std@@@0@0IPBD@Z 7c09ede9 f i instances.obj
 0001:0001df46       ??$_Getloctxt@GV?$istreambuf_iterator@GU?$char_traits@G@std@@@std@@@std@@YAHAAV?$istreambuf_iterator@GU?$char_traits@G@std@@@0@0IPBG@Z 7c09ef46 f i instances.obj
 0001:0001df46       ??$_Getloctxt@_WV?$istreambuf_iterator@_WU?$char_traits@_W@std@@@std@@@std@@YAHAAV?$istreambuf_iterator@_WU?$char_traits@_W@std@@@0@0IPB_W@Z 7c09ef46 f i instances.obj
 0001:0001e0b7       ?swap@?$basic_string@DU?$char_traits@D@std@@V?$allocator@D@2@@std@@QAEXAAV12@@Z 7c09f0b7 f i cerr.obj
 0001:0001e0b7       ?swap@?$basic_string@_WU?$char_traits@_W@std@@V?$allocator@_W@2@@std@@QAEXAAV12@@Z 7c09f0b7 f i instances.obj
 0001:0001e0b7       ?swap@?$basic_string@GU?$char_traits@G@std@@V?$allocator@G@2@@std@@QAEXAAV12@@Z 7c09f0b7 f i instances.obj
 0001:0001e112       ?do_get@?$num_get@DV?$istreambuf_iterator@DU?$char_traits@D@std@@@std@@@std@@MBE?AV?$istreambuf_iterator@DU?$char_traits@D@std@@@2@V32@0AAVios_base@2@AAHAA_N@Z 7c09f112 f i instances.obj
 0001:0001e2be       ?do_get@?$num_get@DV?$istreambuf_iterator@DU?$char_traits@D@std@@@std@@@std@@MBE?AV?$istreambuf_iterator@DU?$char_traits@D@std@@@2@V32@0AAVios_base@2@AAHAAG@Z 7c09f2be f i instances.obj
 0001:0001e3a1       ?do_get@?$num_get@DV?$istreambuf_iterator@DU?$char_traits@D@std@@@std@@@std@@MBE?AV?$istreambuf_iterator@DU?$char_traits@D@std@@@2@V32@0AAVios_base@2@AAHAAI@Z 7c09f3a1 f i instances.obj
 0001:0001e480       ?do_get@?$num_get@DV?$istreambuf_iterator@DU?$char_traits@D@std@@@std@@@std@@MBE?AV?$istreambuf_iterator@DU?$char_traits@D@std@@@2@V32@0AAVios_base@2@AAHAAJ@Z 7c09f480 f i instances.obj
 0001:0001e549       ?do_get@?$num_get@DV?$istreambuf_iterator@DU?$char_traits@D@std@@@std@@@std@@MBE?AV?$istreambuf_iterator@DU?$char_traits@D@std@@@2@V32@0AAVios_base@2@AAHAAK@Z 7c09f549 f i instances.obj
 0001:0001e612       ?do_get@?$num_get@DV?$istreambuf_iterator@DU?$char_traits@D@std@@@std@@@std@@MBE?AV?$istreambuf_iterator@DU?$char_traits@D@std@@@2@V32@0AAVios_base@2@AAHAA_J@Z 7c09f612 f i instances.obj
 0001:0001e6e3       ?do_get@?$num_get@DV?$istreambuf_iterator@DU?$char_traits@D@std@@@std@@@std@@MBE?AV?$istreambuf_iterator@DU?$char_traits@D@std@@@2@V32@0AAVios_base@2@AAHAA_K@Z 7c09f6e3 f i instances.obj
 0001:0001e7b4       ?do_get@?$num_get@DV?$istreambuf_iterator@DU?$char_traits@D@std@@@std@@@std@@MBE?AV?$istreambuf_iterator@DU?$char_traits@D@std@@@2@V32@0AAVios_base@2@AAHAAM@Z 7c09f7b4 f i instances.obj
 0001:0001e873       ?do_get@?$num_get@DV?$istreambuf_iterator@DU?$char_traits@D@std@@@std@@@std@@MBE?AV?$istreambuf_iterator@DU?$char_traits@D@std@@@2@V32@0AAVios_base@2@AAHAAN@Z 7c09f873 f i instances.obj
 0001:0001e932       ?do_get@?$num_get@DV?$istreambuf_iterator@DU?$char_traits@D@std@@@std@@@std@@MBE?AV?$istreambuf_iterator@DU?$char_traits@D@std@@@2@V32@0AAVios_base@2@AAHAAO@Z 7c09f932 f i instances.obj
 0001:0001e9f1       ?do_get@?$num_get@DV?$istreambuf_iterator@DU?$char_traits@D@std@@@std@@@std@@MBE?AV?$istreambuf_iterator@DU?$char_traits@D@std@@@2@V32@0AAVios_base@2@AAHAAPAX@Z 7c09f9f1 f i instances.obj
 0001:0001eabf       ?do_put@?$num_put@DV?$ostreambuf_iterator@DU?$char_traits@D@std@@@std@@@std@@MBE?AV?$ostreambuf_iterator@DU?$char_traits@D@std@@@2@V32@AAVios_base@2@DJ@Z 7c09fabf f i instances.obj
 0001:0001eb24       ?do_put@?$num_put@DV?$ostreambuf_iterator@DU?$char_traits@D@std@@@std@@@std@@MBE?AV?$ostreambuf_iterator@DU?$char_traits@D@std@@@2@V32@AAVios_base@2@DK@Z 7c09fb24 f i instances.obj
 0001:0001eb89       ?do_put@?$num_put@DV?$ostreambuf_iterator@DU?$char_traits@D@std@@@std@@@std@@MBE?AV?$ostreambuf_iterator@DU?$char_traits@D@std@@@2@V32@AAVios_base@2@D_J@Z 7c09fb89 f i instances.obj
 0001:0001ebf1       ?do_put@?$num_put@DV?$ostreambuf_iterator@DU?$char_traits@D@std@@@std@@@std@@MBE?AV?$ostreambuf_iterator@DU?$char_traits@D@std@@@2@V32@AAVios_base@2@D_K@Z 7c09fbf1 f i instances.obj
 0001:0001ec59       ?do_put@?$num_put@DV?$ostreambuf_iterator@DU?$char_traits@D@std@@@std@@@std@@MBE?AV?$ostreambuf_iterator@DU?$char_traits@D@std@@@2@V32@AAVios_base@2@DN@Z 7c09fc59 f i instances.obj
 0001:0001ed99       ?do_put@?$num_put@DV?$ostreambuf_iterator@DU?$char_traits@D@std@@@std@@@std@@MBE?AV?$ostreambuf_iterator@DU?$char_traits@D@std@@@2@V32@AAVios_base@2@DO@Z 7c09fd99 f i instances.obj
 0001:0001eee7       ?do_put@?$num_put@DV?$ostreambuf_iterator@DU?$char_traits@D@std@@@std@@@std@@MBE?AV?$ostreambuf_iterator@DU?$char_traits@D@std@@@2@V32@AAVios_base@2@DPBX@Z 7c09fee7 f i instances.obj
 0001:0001ef37       ?do_get@?$num_get@_WV?$istreambuf_iterator@_WU?$char_traits@_W@std@@@std@@@std@@MBE?AV?$istreambuf_iterator@_WU?$char_traits@_W@std@@@2@V32@0AAVios_base@2@AAHAA_N@Z 7c09ff37 f i instances.obj
 0001:0001f0e3       ?do_get@?$num_get@_WV?$istreambuf_iterator@_WU?$char_traits@_W@std@@@std@@@std@@MBE?AV?$istreambuf_iterator@_WU?$char_traits@_W@std@@@2@V32@0AAVios_base@2@AAHAAG@Z 7c0a00e3 f i instances.obj
 0001:0001f1c6       ?do_get@?$num_get@_WV?$istreambuf_iterator@_WU?$char_traits@_W@std@@@std@@@std@@MBE?AV?$istreambuf_iterator@_WU?$char_traits@_W@std@@@2@V32@0AAVios_base@2@AAHAAI@Z 7c0a01c6 f i instances.obj
 0001:0001f2a5       ?do_get@?$num_get@_WV?$istreambuf_iterator@_WU?$char_traits@_W@std@@@std@@@std@@MBE?AV?$istreambuf_iterator@_WU?$char_traits@_W@std@@@2@V32@0AAVios_base@2@AAHAAJ@Z 7c0a02a5 f i instances.obj
 0001:0001f36e       ?do_get@?$num_get@_WV?$istreambuf_iterator@_WU?$char_traits@_W@std@@@std@@@std@@MBE?AV?$istreambuf_iterator@_WU?$char_traits@_W@std@@@2@V32@0AAVios_base@2@AAHAAK@Z 7c0a036e f i instances.obj
 0001:0001f437       ?do_get@?$num_get@_WV?$istreambuf_iterator@_WU?$char_traits@_W@std@@@std@@@std@@MBE?AV?$istreambuf_iterator@_WU?$char_traits@_W@std@@@2@V32@0AAVios_base@2@AAHAA_J@Z 7c0a0437 f i instances.obj
 0001:0001f508       ?do_get@?$num_get@_WV?$istreambuf_iterator@_WU?$char_traits@_W@std@@@std@@@std@@MBE?AV?$istreambuf_iterator@_WU?$char_traits@_W@std@@@2@V32@0AAVios_base@2@AAHAA_K@Z 7c0a0508 f i instances.obj
 0001:0001f5d9       ?do_get@?$num_get@_WV?$istreambuf_iterator@_WU?$char_traits@_W@std@@@std@@@std@@MBE?AV?$istreambuf_iterator@_WU?$char_traits@_W@std@@@2@V32@0AAVios_base@2@AAHAAM@Z 7c0a05d9 f i instances.obj
 0001:0001f698       ?do_get@?$num_get@_WV?$istreambuf_iterator@_WU?$char_traits@_W@std@@@std@@@std@@MBE?AV?$istreambuf_iterator@_WU?$char_traits@_W@std@@@2@V32@0AAVios_base@2@AAHAAN@Z 7c0a0698 f i instances.obj
 0001:0001f757       ?do_get@?$num_get@_WV?$istreambuf_iterator@_WU?$char_traits@_W@std@@@std@@@std@@MBE?AV?$istreambuf_iterator@_WU?$char_traits@_W@std@@@2@V32@0AAVios_base@2@AAHAAO@Z 7c0a0757 f i instances.obj
 0001:0001f816       ?do_get@?$num_get@_WV?$istreambuf_iterator@_WU?$char_traits@_W@std@@@std@@@std@@MBE?AV?$istreambuf_iterator@_WU?$char_traits@_W@std@@@2@V32@0AAVios_base@2@AAHAAPAX@Z 7c0a0816 f i instances.obj
 0001:0001f8e4       ?do_put@?$num_put@_WV?$ostreambuf_iterator@_WU?$char_traits@_W@std@@@std@@@std@@MBE?AV?$ostreambuf_iterator@_WU?$char_traits@_W@std@@@2@V32@AAVios_base@2@_WJ@Z 7c0a08e4 f i instances.obj
 0001:0001f949       ?do_put@?$num_put@_WV?$ostreambuf_iterator@_WU?$char_traits@_W@std@@@std@@@std@@MBE?AV?$ostreambuf_iterator@_WU?$char_traits@_W@std@@@2@V32@AAVios_base@2@_WK@Z 7c0a0949 f i instances.obj
 0001:0001f9ae       ?do_put@?$num_put@_WV?$ostreambuf_iterator@_WU?$char_traits@_W@std@@@std@@@std@@MBE?AV?$ostreambuf_iterator@_WU?$char_traits@_W@std@@@2@V32@AAVios_base@2@_W_J@Z 7c0a09ae f i instances.obj
 0001:0001fa16       ?do_put@?$num_put@_WV?$ostreambuf_iterator@_WU?$char_traits@_W@std@@@std@@@std@@MBE?AV?$ostreambuf_iterator@_WU?$char_traits@_W@std@@@2@V32@AAVios_base@2@_W_K@Z 7c0a0a16 f i instances.obj
 0001:0001fa7e       ?do_put@?$num_put@_WV?$ostreambuf_iterator@_WU?$char_traits@_W@std@@@std@@@std@@MBE?AV?$ostreambuf_iterator@_WU?$char_traits@_W@std@@@2@V32@AAVios_base@2@_WN@Z 7c0a0a7e f i instances.obj
 0001:0001fbbe       ?do_put@?$num_put@_WV?$ostreambuf_iterator@_WU?$char_traits@_W@std@@@std@@@std@@MBE?AV?$ostreambuf_iterator@_WU?$char_traits@_W@std@@@2@V32@AAVios_base@2@_WO@Z 7c0a0bbe f i instances.obj
 0001:0001fd0c       ?do_put@?$num_put@_WV?$ostreambuf_iterator@_WU?$char_traits@_W@std@@@std@@@std@@MBE?AV?$ostreambuf_iterator@_WU?$char_traits@_W@std@@@2@V32@AAVios_base@2@_WPBX@Z 7c0a0d0c f i instances.obj
 0001:0001fd5c       ?do_get@?$num_get@GV?$istreambuf_iterator@GU?$char_traits@G@std@@@std@@@std@@MBE?AV?$istreambuf_iterator@GU?$char_traits@G@std@@@2@V32@0AAVios_base@2@AAHAA_N@Z 7c0a0d5c f i instances.obj
 0001:0001ff08       ?do_get@?$num_get@GV?$istreambuf_iterator@GU?$char_traits@G@std@@@std@@@std@@MBE?AV?$istreambuf_iterator@GU?$char_traits@G@std@@@2@V32@0AAVios_base@2@AAHAAG@Z 7c0a0f08 f i instances.obj
 0001:0001ffeb       ?do_get@?$num_get@GV?$istreambuf_iterator@GU?$char_traits@G@std@@@std@@@std@@MBE?AV?$istreambuf_iterator@GU?$char_traits@G@std@@@2@V32@0AAVios_base@2@AAHAAI@Z 7c0a0feb f i instances.obj
 0001:000200ca       ?do_get@?$num_get@GV?$istreambuf_iterator@GU?$char_traits@G@std@@@std@@@std@@MBE?AV?$istreambuf_iterator@GU?$char_traits@G@std@@@2@V32@0AAVios_base@2@AAHAAJ@Z 7c0a10ca f i instances.obj
 0001:00020193       ?do_get@?$num_get@GV?$istreambuf_iterator@GU?$char_traits@G@std@@@std@@@std@@MBE?AV?$istreambuf_iterator@GU?$char_traits@G@std@@@2@V32@0AAVios_base@2@AAHAAK@Z 7c0a1193 f i instances.obj
 0001:0002025c       ?do_get@?$num_get@GV?$istreambuf_iterator@GU?$char_traits@G@std@@@std@@@std@@MBE?AV?$istreambuf_iterator@GU?$char_traits@G@std@@@2@V32@0AAVios_base@2@AAHAA_J@Z 7c0a125c f i instances.obj
 0001:0002032d       ?do_get@?$num_get@GV?$istreambuf_iterator@GU?$char_traits@G@std@@@std@@@std@@MBE?AV?$istreambuf_iterator@GU?$char_traits@G@std@@@2@V32@0AAVios_base@2@AAHAA_K@Z 7c0a132d f i instances.obj
 0001:000203fe       ?do_get@?$num_get@GV?$istreambuf_iterator@GU?$char_traits@G@std@@@std@@@std@@MBE?AV?$istreambuf_iterator@GU?$char_traits@G@std@@@2@V32@0AAVios_base@2@AAHAAM@Z 7c0a13fe f i instances.obj
 0001:000204bd       ?do_get@?$num_get@GV?$istreambuf_iterator@GU?$char_traits@G@std@@@std@@@std@@MBE?AV?$istreambuf_iterator@GU?$char_traits@G@std@@@2@V32@0AAVios_base@2@AAHAAN@Z 7c0a14bd f i instances.obj
 0001:0002057c       ?do_get@?$num_get@GV?$istreambuf_iterator@GU?$char_traits@G@std@@@std@@@std@@MBE?AV?$istreambuf_iterator@GU?$char_traits@G@std@@@2@V32@0AAVios_base@2@AAHAAO@Z 7c0a157c f i instances.obj
 0001:0002063b       ?do_get@?$num_get@GV?$istreambuf_iterator@GU?$char_traits@G@std@@@std@@@std@@MBE?AV?$istreambuf_iterator@GU?$char_traits@G@std@@@2@V32@0AAVios_base@2@AAHAAPAX@Z 7c0a163b f i instances.obj
 0001:00020709       ?do_put@?$num_put@GV?$ostreambuf_iterator@GU?$char_traits@G@std@@@std@@@std@@MBE?AV?$ostreambuf_iterator@GU?$char_traits@G@std@@@2@V32@AAVios_base@2@GJ@Z 7c0a1709 f i instances.obj
 0001:0002076e       ?do_put@?$num_put@GV?$ostreambuf_iterator@GU?$char_traits@G@std@@@std@@@std@@MBE?AV?$ostreambuf_iterator@GU?$char_traits@G@std@@@2@V32@AAVios_base@2@GK@Z 7c0a176e f i instances.obj
 0001:000207d3       ?do_put@?$num_put@GV?$ostreambuf_iterator@GU?$char_traits@G@std@@@std@@@std@@MBE?AV?$ostreambuf_iterator@GU?$char_traits@G@std@@@2@V32@AAVios_base@2@G_J@Z 7c0a17d3 f i instances.obj
 0001:0002083b       ?do_put@?$num_put@GV?$ostreambuf_iterator@GU?$char_traits@G@std@@@std@@@std@@MBE?AV?$ostreambuf_iterator@GU?$char_traits@G@std@@@2@V32@AAVios_base@2@G_K@Z 7c0a183b f i instances.obj
 0001:000208a3       ?do_put@?$num_put@GV?$ostreambuf_iterator@GU?$char_traits@G@std@@@std@@@std@@MBE?AV?$ostreambuf_iterator@GU?$char_traits@G@std@@@2@V32@AAVios_base@2@GN@Z 7c0a18a3 f i instances.obj
 0001:000209e3       ?do_put@?$num_put@GV?$ostreambuf_iterator@GU?$char_traits@G@std@@@std@@@std@@MBE?AV?$ostreambuf_iterator@GU?$char_traits@G@std@@@2@V32@AAVios_base@2@GO@Z 7c0a19e3 f i instances.obj
 0001:00020b31       ?do_put@?$num_put@GV?$ostreambuf_iterator@GU?$char_traits@G@std@@@std@@@std@@MBE?AV?$ostreambuf_iterator@GU?$char_traits@G@std@@@2@V32@AAVios_base@2@GPBX@Z 7c0a1b31 f i instances.obj
 0001:00020b81       ?close@?$basic_filebuf@_WU?$char_traits@_W@std@@@std@@QAEPAV12@XZ 7c0a1b81 f i instances.obj
 0001:00020bb3       ?seekoff@?$basic_filebuf@_WU?$char_traits@_W@std@@@std@@MAE?AV?$fpos@H@2@JHH@Z 7c0a1bb3 f i instances.obj
 0001:00020bb3       ?seekoff@?$basic_filebuf@GU?$char_traits@G@std@@@std@@MAE?AV?$fpos@H@2@JHH@Z 7c0a1bb3 f i instances.obj
 0001:00020cb2       ?seekpos@?$basic_filebuf@_WU?$char_traits@_W@std@@@std@@MAE?AV?$fpos@H@2@V32@H@Z 7c0a1cb2 f i instances.obj
 0001:00020cb2       ?seekpos@?$basic_filebuf@GU?$char_traits@G@std@@@std@@MAE?AV?$fpos@H@2@V32@H@Z 7c0a1cb2 f i instances.obj
 0001:00020d85       ?close@?$basic_filebuf@GU?$char_traits@G@std@@@std@@QAEPAV12@XZ 7c0a1d85 f i instances.obj
 0001:00020db7       ?close@?$basic_ifstream@DU?$char_traits@D@std@@@std@@QAEXXZ 7c0a1db7 f i instances.obj
 0001:00020ddd       ?close@?$basic_ifstream@_WU?$char_traits@_W@std@@@std@@QAEXXZ 7c0a1ddd f i instances.obj
 0001:00020e03       ?close@?$basic_ifstream@GU?$char_traits@G@std@@@std@@QAEXXZ 7c0a1e03 f i instances.obj
 0001:00020e29       ?close@?$basic_ofstream@DU?$char_traits@D@std@@@std@@QAEXXZ 7c0a1e29 f i instances.obj
 0001:00020e4f       ?close@?$basic_ofstream@_WU?$char_traits@_W@std@@@std@@QAEXXZ 7c0a1e4f f i instances.obj
 0001:00020e75       ?close@?$basic_ofstream@GU?$char_traits@G@std@@@std@@QAEXXZ 7c0a1e75 f i instances.obj
 0001:00020e9b       ?close@?$basic_fstream@DU?$char_traits@D@std@@@std@@QAEXXZ 7c0a1e9b f i instances.obj
 0001:00020ec1       ?close@?$basic_fstream@_WU?$char_traits@_W@std@@@std@@QAEXXZ 7c0a1ec1 f i instances.obj
 0001:00020ee7       ?close@?$basic_fstream@GU?$char_traits@G@std@@@std@@QAEXXZ 7c0a1ee7 f i instances.obj
 0001:00020f0d       ?_Getmfld@?$money_get@DV?$istreambuf_iterator@DU?$char_traits@D@std@@@std@@@std@@ABE?AV?$basic_string@DU?$char_traits@D@std@@V?$allocator@D@2@@2@AAV?$istreambuf_iterator@DU?$char_traits@D@std@@@2@0_NAAVios_base@2@@Z 7c0a1f0d f i instances.obj
 0001:000215fb       ?_Putmfld@?$money_put@DV?$ostreambuf_iterator@DU?$char_traits@D@std@@@std@@@std@@ABE?AV?$ostreambuf_iterator@DU?$char_traits@D@std@@@2@V32@_NAAVios_base@2@D1V?$basic_string@DU?$char_traits@D@std@@V?$allocator@D@2@@2@@Z 7c0a25fb f i instances.obj
 0001:00021a84       ?_Getmfld@?$money_get@_WV?$istreambuf_iterator@_WU?$char_traits@_W@std@@@std@@@std@@ABE?AV?$basic_string@_WU?$char_traits@_W@std@@V?$allocator@_W@2@@2@AAV?$istreambuf_iterator@_WU?$char_traits@_W@std@@@2@0_NAAVios_base@2@@Z 7c0a2a84 f i instances.obj
 0001:000221cc       ?_Putmfld@?$money_put@_WV?$ostreambuf_iterator@_WU?$char_traits@_W@std@@@std@@@std@@ABE?AV?$ostreambuf_iterator@_WU?$char_traits@_W@std@@@2@V32@_NAAVios_base@2@_W1V?$basic_string@_WU?$char_traits@_W@std@@V?$allocator@_W@2@@2@@Z 7c0a31cc f i instances.obj
 0001:0002267f       ?_Getmfld@?$money_get@GV?$istreambuf_iterator@GU?$char_traits@G@std@@@std@@@std@@ABE?AV?$basic_string@GU?$char_traits@G@std@@V?$allocator@G@2@@2@AAV?$istreambuf_iterator@GU?$char_traits@G@std@@@2@0_NAAVios_base@2@@Z 7c0a367f f i instances.obj
 0001:00022dc7       ?_Putmfld@?$money_put@GV?$ostreambuf_iterator@GU?$char_traits@G@std@@@std@@@std@@ABE?AV?$ostreambuf_iterator@GU?$char_traits@G@std@@@2@V32@_NAAVios_base@2@G1V?$basic_string@GU?$char_traits@G@std@@V?$allocator@G@2@@2@@Z 7c0a3dc7 f i instances.obj
 0001:0002327a       ?_Init@?$time_get@DV?$istreambuf_iterator@DU?$char_traits@D@std@@@std@@@std@@IAEXABV_Locinfo@2@@Z 7c0a427a f i instances.obj
 0001:00023300       ?do_get_weekday@?$time_get@DV?$istreambuf_iterator@DU?$char_traits@D@std@@@std@@@std@@MBE?AV?$istreambuf_iterator@DU?$char_traits@D@std@@@2@V32@0AAVios_base@2@AAHPAUtm@@@Z 7c0a4300 f i instances.obj
 0001:0002333e       ?do_get_monthname@?$time_get@DV?$istreambuf_iterator@DU?$char_traits@D@std@@@std@@@std@@MBE?AV?$istreambuf_iterator@DU?$char_traits@D@std@@@2@V32@0AAVios_base@2@AAHPAUtm@@@Z 7c0a433e f i instances.obj
 0001:0002337c       ?_Init@?$time_get@_WV?$istreambuf_iterator@_WU?$char_traits@_W@std@@@std@@@std@@IAEXABV_Locinfo@2@@Z 7c0a437c f i instances.obj
 0001:0002337c       ?_Init@?$time_get@GV?$istreambuf_iterator@GU?$char_traits@G@std@@@std@@@std@@IAEXABV_Locinfo@2@@Z 7c0a437c f i instances.obj
 0001:00023402       ?do_get_weekday@?$time_get@GV?$istreambuf_iterator@GU?$char_traits@G@std@@@std@@@std@@MBE?AV?$istreambuf_iterator@GU?$char_traits@G@std@@@2@V32@0AAVios_base@2@AAHPAUtm@@@Z 7c0a4402 f i instances.obj
 0001:00023402       ?do_get_weekday@?$time_get@_WV?$istreambuf_iterator@_WU?$char_traits@_W@std@@@std@@@std@@MBE?AV?$istreambuf_iterator@_WU?$char_traits@_W@std@@@2@V32@0AAVios_base@2@AAHPAUtm@@@Z 7c0a4402 f i instances.obj
 0001:00023440       ?do_get_monthname@?$time_get@_WV?$istreambuf_iterator@_WU?$char_traits@_W@std@@@std@@@std@@MBE?AV?$istreambuf_iterator@_WU?$char_traits@_W@std@@@2@V32@0AAVios_base@2@AAHPAUtm@@@Z 7c0a4440 f i instances.obj
 0001:00023440       ?do_get_monthname@?$time_get@GV?$istreambuf_iterator@GU?$char_traits@G@std@@@std@@@std@@MBE?AV?$istreambuf_iterator@GU?$char_traits@G@std@@@2@V32@0AAVios_base@2@AAHPAUtm@@@Z 7c0a4440 f i instances.obj
 0001:0002347e       ??$?HDU?$char_traits@D@std@@V?$allocator@D@1@@std@@YA?AV?$basic_string@DU?$char_traits@D@std@@V?$allocator@D@2@@0@ABV10@0@Z 7c0a447e f i instances.obj
 0001:000234d0       ??$?HDU?$char_traits@D@std@@V?$allocator@D@1@@std@@YA?AV?$basic_string@DU?$char_traits@D@std@@V?$allocator@D@2@@0@PBDABV10@@Z 7c0a44d0 f i instances.obj
 0001:00023522       ??$?HDU?$char_traits@D@std@@V?$allocator@D@1@@std@@YA?AV?$basic_string@DU?$char_traits@D@std@@V?$allocator@D@2@@0@DABV10@@Z 7c0a4522 f i instances.obj
 0001:00023576       ??$getline@DU?$char_traits@D@std@@V?$allocator@D@2@@std@@YAAAV?$basic_istream@DU?$char_traits@D@std@@@0@AAV10@AAV?$basic_string@DU?$char_traits@D@std@@V?$allocator@D@2@@0@@Z 7c0a4576 f i instances.obj
 0001:00023599       ??$?HGU?$char_traits@G@std@@V?$allocator@G@1@@std@@YA?AV?$basic_string@GU?$char_traits@G@std@@V?$allocator@G@2@@0@ABV10@0@Z 7c0a4599 f i instances.obj
 0001:00023599       ??$?H_WU?$char_traits@_W@std@@V?$allocator@_W@1@@std@@YA?AV?$basic_string@_WU?$char_traits@_W@std@@V?$allocator@_W@2@@0@ABV10@0@Z 7c0a4599 f i instances.obj
 0001:000235eb       ??$?HGU?$char_traits@G@std@@V?$allocator@G@1@@std@@YA?AV?$basic_string@GU?$char_traits@G@std@@V?$allocator@G@2@@0@PBGABV10@@Z 7c0a45eb f i instances.obj
 0001:000235eb       ??$?H_WU?$char_traits@_W@std@@V?$allocator@_W@1@@std@@YA?AV?$basic_string@_WU?$char_traits@_W@std@@V?$allocator@_W@2@@0@PB_WABV10@@Z 7c0a45eb f i instances.obj
 0001:0002363d       ??$getline@_WU?$char_traits@_W@std@@V?$allocator@_W@2@@std@@YAAAV?$basic_istream@_WU?$char_traits@_W@std@@@0@AAV10@AAV?$basic_string@_WU?$char_traits@_W@std@@V?$allocator@_W@2@@0@@Z 7c0a463d f i instances.obj
 0001:00023660       ??$?HGU?$char_traits@G@std@@V?$allocator@G@1@@std@@YA?AV?$basic_string@GU?$char_traits@G@std@@V?$allocator@G@2@@0@GABV10@@Z 7c0a4660 f i instances.obj
 0001:00023660       ??$?H_WU?$char_traits@_W@std@@V?$allocator@_W@1@@std@@YA?AV?$basic_string@_WU?$char_traits@_W@std@@V?$allocator@_W@2@@0@_WABV10@@Z 7c0a4660 f i instances.obj
 0001:000236b4       ??$getline@GU?$char_traits@G@std@@V?$allocator@G@2@@std@@YAAAV?$basic_istream@GU?$char_traits@G@std@@@0@AAV10@AAV?$basic_string@GU?$char_traits@G@std@@V?$allocator@G@2@@0@@Z 7c0a46b4 f i instances.obj
 0001:000236d7       ??1?$basic_filebuf@_WU?$char_traits@_W@std@@@std@@UAE@XZ 7c0a46d7 f i instances.obj
 0001:00023723       ??1?$basic_filebuf@GU?$char_traits@G@std@@@std@@UAE@XZ 7c0a4723 f i instances.obj
 0001:0002376f       ??0?$basic_ifstream@DU?$char_traits@D@std@@@std@@QAE@XZ 7c0a476f f i instances.obj
 0001:000237dd       ??0?$basic_ifstream@DU?$char_traits@D@std@@@std@@QAE@PBDHH@Z 7c0a47dd f i instances.obj
 0001:0002387b       ??0?$basic_ifstream@DU?$char_traits@D@std@@@std@@QAE@PAU_iobuf@@@Z 7c0a487b f i instances.obj
 0001:000238e9       ??1?$basic_ifstream@DU?$char_traits@D@std@@@std@@UAE@XZ 7c0a48e9 f i instances.obj
 0001:0002392f       ??0?$basic_ifstream@_WU?$char_traits@_W@std@@@std@@QAE@XZ 7c0a492f f i instances.obj
 0001:0002399d       ??0?$basic_ifstream@_WU?$char_traits@_W@std@@@std@@QAE@PBDHH@Z 7c0a499d f i instances.obj
 0001:00023a3b       ??0?$basic_ifstream@_WU?$char_traits@_W@std@@@std@@QAE@PAU_iobuf@@@Z 7c0a4a3b f i instances.obj
 0001:00023aa9       ??1?$basic_ifstream@_WU?$char_traits@_W@std@@@std@@UAE@XZ 7c0a4aa9 f i instances.obj
 0001:00023aef       ??0?$basic_ifstream@GU?$char_traits@G@std@@@std@@QAE@XZ 7c0a4aef f i instances.obj
 0001:00023b5d       ??0?$basic_ifstream@GU?$char_traits@G@std@@@std@@QAE@PBDHH@Z 7c0a4b5d f i instances.obj
 0001:00023bfb       ??0?$basic_ifstream@GU?$char_traits@G@std@@@std@@QAE@PAU_iobuf@@@Z 7c0a4bfb f i instances.obj
 0001:00023c69       ??1?$basic_ifstream@GU?$char_traits@G@std@@@std@@UAE@XZ 7c0a4c69 f i instances.obj
 0001:00023caf       ??0?$basic_ofstream@DU?$char_traits@D@std@@@std@@QAE@XZ 7c0a4caf f i instances.obj
 0001:00023d1c       ??0?$basic_ofstream@DU?$char_traits@D@std@@@std@@QAE@PBDHH@Z 7c0a4d1c f i instances.obj
 0001:00023db9       ??0?$basic_ofstream@DU?$char_traits@D@std@@@std@@QAE@PAU_iobuf@@@Z 7c0a4db9 f i instances.obj
 0001:00023e26       ??1?$basic_ofstream@DU?$char_traits@D@std@@@std@@UAE@XZ 7c0a4e26 f i instances.obj
 0001:00023e6c       ??0?$basic_ofstream@_WU?$char_traits@_W@std@@@std@@QAE@XZ 7c0a4e6c f i instances.obj
 0001:00023ed9       ??0?$basic_ofstream@_WU?$char_traits@_W@std@@@std@@QAE@PBDHH@Z 7c0a4ed9 f i instances.obj
 0001:00023f76       ??0?$basic_ofstream@_WU?$char_traits@_W@std@@@std@@QAE@PAU_iobuf@@@Z 7c0a4f76 f i instances.obj
 0001:00023fe3       ??1?$basic_ofstream@_WU?$char_traits@_W@std@@@std@@UAE@XZ 7c0a4fe3 f i instances.obj
 0001:00024029       ??0?$basic_ofstream@GU?$char_traits@G@std@@@std@@QAE@XZ 7c0a5029 f i instances.obj
 0001:00024096       ??0?$basic_ofstream@GU?$char_traits@G@std@@@std@@QAE@PBDHH@Z 7c0a5096 f i instances.obj
 0001:00024133       ??0?$basic_ofstream@GU?$char_traits@G@std@@@std@@QAE@PAU_iobuf@@@Z 7c0a5133 f i instances.obj
 0001:000241a0       ??1?$basic_ofstream@GU?$char_traits@G@std@@@std@@UAE@XZ 7c0a51a0 f i instances.obj
 0001:000241e6       ??0?$basic_fstream@DU?$char_traits@D@std@@@std@@QAE@XZ 7c0a51e6 f i instances.obj
 0001:00024259       ??0?$basic_fstream@DU?$char_traits@D@std@@@std@@QAE@PBDHH@Z 7c0a5259 f i instances.obj
 0001:000242f8       ??0?$basic_fstream@DU?$char_traits@D@std@@@std@@QAE@PAU_iobuf@@@Z 7c0a52f8 f i instances.obj
 0001:0002436b       ??1?$basic_fstream@DU?$char_traits@D@std@@@std@@UAE@XZ 7c0a536b f i instances.obj
 0001:000243aa       ??0?$basic_fstream@_WU?$char_traits@_W@std@@@std@@QAE@XZ 7c0a53aa f i instances.obj
 0001:0002441d       ??0?$basic_fstream@_WU?$char_traits@_W@std@@@std@@QAE@PBDHH@Z 7c0a541d f i instances.obj
 0001:000244bc       ??0?$basic_fstream@_WU?$char_traits@_W@std@@@std@@QAE@PAU_iobuf@@@Z 7c0a54bc f i instances.obj
 0001:0002452f       ??1?$basic_fstream@_WU?$char_traits@_W@std@@@std@@UAE@XZ 7c0a552f f i instances.obj
 0001:0002456e       ??0?$basic_fstream@GU?$char_traits@G@std@@@std@@QAE@XZ 7c0a556e f i instances.obj
 0001:000245e1       ??0?$basic_fstream@GU?$char_traits@G@std@@@std@@QAE@PBDHH@Z 7c0a55e1 f i instances.obj
 0001:00024680       ??0?$basic_fstream@GU?$char_traits@G@std@@@std@@QAE@PAU_iobuf@@@Z 7c0a5680 f i instances.obj
 0001:000246f3       ??1?$basic_fstream@GU?$char_traits@G@std@@@std@@UAE@XZ 7c0a56f3 f i instances.obj
 0001:00024732       ?do_get@?$money_get@DV?$istreambuf_iterator@DU?$char_traits@D@std@@@std@@@std@@MBE?AV?$istreambuf_iterator@DU?$char_traits@D@std@@@2@V32@0_NAAVios_base@2@AAHAAO@Z 7c0a5732 f i instances.obj
 0001:0002487d       ?do_get@?$money_get@DV?$istreambuf_iterator@DU?$char_traits@D@std@@@std@@@std@@MBE?AV?$istreambuf_iterator@DU?$char_traits@D@std@@@2@V32@0_NAAVios_base@2@AAHAAV?$basic_string@DU?$char_traits@D@std@@V?$allocator@D@2@@2@@Z 7c0a587d f i instances.obj
 0001:00024912       ?do_put@?$money_put@DV?$ostreambuf_iterator@DU?$char_traits@D@std@@@std@@@std@@MBE?AV?$ostreambuf_iterator@DU?$char_traits@D@std@@@2@V32@_NAAVios_base@2@DO@Z 7c0a5912 f i instances.obj
 0001:00024a34       ?do_put@?$money_put@DV?$ostreambuf_iterator@DU?$char_traits@D@std@@@std@@@std@@MBE?AV?$ostreambuf_iterator@DU?$char_traits@D@std@@@2@V32@_NAAVios_base@2@DABV?$basic_string@DU?$char_traits@D@std@@V?$allocator@D@2@@2@@Z 7c0a5a34 f i instances.obj
 0001:00024af2       ?do_get@?$money_get@_WV?$istreambuf_iterator@_WU?$char_traits@_W@std@@@std@@@std@@MBE?AV?$istreambuf_iterator@_WU?$char_traits@_W@std@@@2@V32@0_NAAVios_base@2@AAHAAO@Z 7c0a5af2 f i instances.obj
 0001:00024c5b       ?do_get@?$money_get@_WV?$istreambuf_iterator@_WU?$char_traits@_W@std@@@std@@@std@@MBE?AV?$istreambuf_iterator@_WU?$char_traits@_W@std@@@2@V32@0_NAAVios_base@2@AAHAAV?$basic_string@_WU?$char_traits@_W@std@@V?$allocator@_W@2@@2@@Z 7c0a5c5b f i instances.obj
 0001:00024cf0       ?do_put@?$money_put@_WV?$ostreambuf_iterator@_WU?$char_traits@_W@std@@@std@@@std@@MBE?AV?$ostreambuf_iterator@_WU?$char_traits@_W@std@@@2@V32@_NAAVios_base@2@_WO@Z 7c0a5cf0 f i instances.obj
 0001:00024e2e       ?do_put@?$money_put@_WV?$ostreambuf_iterator@_WU?$char_traits@_W@std@@@std@@@std@@MBE?AV?$ostreambuf_iterator@_WU?$char_traits@_W@std@@@2@V32@_NAAVios_base@2@_WABV?$basic_string@_WU?$char_traits@_W@std@@V?$allocator@_W@2@@2@@Z 7c0a5e2e f i instances.obj
 0001:00024f1f       ?do_get@?$money_get@GV?$istreambuf_iterator@GU?$char_traits@G@std@@@std@@@std@@MBE?AV?$istreambuf_iterator@GU?$char_traits@G@std@@@2@V32@0_NAAVios_base@2@AAHAAO@Z 7c0a5f1f f i instances.obj
 0001:00025088       ?do_get@?$money_get@GV?$istreambuf_iterator@GU?$char_traits@G@std@@@std@@@std@@MBE?AV?$istreambuf_iterator@GU?$char_traits@G@std@@@2@V32@0_NAAVios_base@2@AAHAAV?$basic_string@GU?$char_traits@G@std@@V?$allocator@G@2@@2@@Z 7c0a6088 f i instances.obj
 0001:0002511d       ?do_put@?$money_put@GV?$ostreambuf_iterator@GU?$char_traits@G@std@@@std@@@std@@MBE?AV?$ostreambuf_iterator@GU?$char_traits@G@std@@@2@V32@_NAAVios_base@2@GO@Z 7c0a611d f i instances.obj
 0001:0002525b       ?do_put@?$money_put@GV?$ostreambuf_iterator@GU?$char_traits@G@std@@@std@@@std@@MBE?AV?$ostreambuf_iterator@GU?$char_traits@G@std@@@2@V32@_NAAVios_base@2@GABV?$basic_string@GU?$char_traits@G@std@@V?$allocator@G@2@@2@@Z 7c0a625b f i instances.obj
 0001:0002534c       ??0?$time_get@DV?$istreambuf_iterator@DU?$char_traits@D@std@@@std@@@std@@QAE@I@Z 7c0a634c f i instances.obj
 0001:000253ab       ??0?$time_get@DV?$istreambuf_iterator@DU?$char_traits@D@std@@@std@@@std@@QAE@ABV_Locinfo@1@I@Z 7c0a63ab f i instances.obj
 0001:000253e5       ?_Getcat@?$time_get@DV?$istreambuf_iterator@DU?$char_traits@D@std@@@std@@@std@@SAIPAPBVfacet@locale@2@@Z 7c0a63e5 f i instances.obj
 0001:0002542e       ??0?$time_get@_WV?$istreambuf_iterator@_WU?$char_traits@_W@std@@@std@@@std@@QAE@I@Z 7c0a642e f i instances.obj
 0001:0002548d       ??0?$time_get@_WV?$istreambuf_iterator@_WU?$char_traits@_W@std@@@std@@@std@@QAE@ABV_Locinfo@1@I@Z 7c0a648d f i instances.obj
 0001:000254c7       ?_Getcat@?$time_get@_WV?$istreambuf_iterator@_WU?$char_traits@_W@std@@@std@@@std@@SAIPAPBVfacet@locale@2@@Z 7c0a64c7 f i instances.obj
 0001:00025510       ??0?$time_get@GV?$istreambuf_iterator@GU?$char_traits@G@std@@@std@@@std@@QAE@I@Z 7c0a6510 f i instances.obj
 0001:0002556f       ??0?$time_get@GV?$istreambuf_iterator@GU?$char_traits@G@std@@@std@@@std@@QAE@ABV_Locinfo@1@I@Z 7c0a656f f i instances.obj
 0001:000255a9       ?_Getcat@?$time_get@GV?$istreambuf_iterator@GU?$char_traits@G@std@@@std@@@std@@SAIPAPBVfacet@locale@2@@Z 7c0a65a9 f i instances.obj
 0001:000255f2       ??_E?$basic_filebuf@DU?$char_traits@D@std@@@std@@UAEPAXI@Z 7c0a65f2 f i instances.obj
 0001:0002563b       ??_E?$basic_filebuf@_WU?$char_traits@_W@std@@@std@@UAEPAXI@Z 7c0a663b f i instances.obj
 0001:00025684       ??_E?$basic_filebuf@GU?$char_traits@G@std@@@std@@UAEPAXI@Z 7c0a6684 f i instances.obj
 0001:000256cd       ??_D?$basic_ifstream@DU?$char_traits@D@std@@@std@@QAEXXZ 7c0a66cd f i instances.obj
 0001:000256e6       ??_D?$basic_ifstream@_WU?$char_traits@_W@std@@@std@@QAEXXZ 7c0a66e6 f i instances.obj
 0001:000256ff       ??_D?$basic_ifstream@GU?$char_traits@G@std@@@std@@QAEXXZ 7c0a66ff f i instances.obj
 0001:00025718       ??_D?$basic_ofstream@DU?$char_traits@D@std@@@std@@QAEXXZ 7c0a6718 f i instances.obj
 0001:00025731       ??_D?$basic_ofstream@_WU?$char_traits@_W@std@@@std@@QAEXXZ 7c0a6731 f i instances.obj
 0001:0002574a       ??_D?$basic_ofstream@GU?$char_traits@G@std@@@std@@QAEXXZ 7c0a674a f i instances.obj
 0001:00025763       ??_D?$basic_fstream@DU?$char_traits@D@std@@@std@@QAEXXZ 7c0a6763 f i instances.obj
 0001:0002577c       ??_D?$basic_fstream@_WU?$char_traits@_W@std@@@std@@QAEXXZ 7c0a677c f i instances.obj
 0001:00025795       ??_D?$basic_fstream@GU?$char_traits@G@std@@@std@@QAEXXZ 7c0a6795 f i instances.obj
 0001:000257ae       ??_F?$time_get@DV?$istreambuf_iterator@DU?$char_traits@D@std@@@std@@@std@@QAEXXZ 7c0a67ae f i instances.obj
 0001:000257b6       ??_F?$time_get@_WV?$istreambuf_iterator@_WU?$char_traits@_W@std@@@std@@@std@@QAEXXZ 7c0a67b6 f i instances.obj
 0001:000257be       ??_F?$time_get@GV?$istreambuf_iterator@GU?$char_traits@G@std@@@std@@@std@@QAEXXZ 7c0a67be f i instances.obj
 0001:000257c6       ??_E?$basic_ifstream@DU?$char_traits@D@std@@@std@@UAEPAXI@Z 7c0a67c6 f i instances.obj
 0001:00025813       ??_E?$basic_ifstream@_WU?$char_traits@_W@std@@@std@@UAEPAXI@Z 7c0a6813 f i instances.obj
 0001:00025860       ??_E?$basic_ifstream@GU?$char_traits@G@std@@@std@@UAEPAXI@Z 7c0a6860 f i instances.obj
 0001:000258ad       ??_E?$basic_ofstream@DU?$char_traits@D@std@@@std@@UAEPAXI@Z 7c0a68ad f i instances.obj
 0001:000258fa       ??_E?$basic_ofstream@_WU?$char_traits@_W@std@@@std@@UAEPAXI@Z 7c0a68fa f i instances.obj
 0001:00025947       ??_E?$basic_ofstream@GU?$char_traits@G@std@@@std@@UAEPAXI@Z 7c0a6947 f i instances.obj
 0001:00025994       ??_E?$basic_fstream@DU?$char_traits@D@std@@@std@@UAEPAXI@Z 7c0a6994 f i instances.obj
 0001:000259e1       ??_E?$basic_fstream@_WU?$char_traits@_W@std@@@std@@UAEPAXI@Z 7c0a69e1 f i instances.obj
 0001:00025a2e       ??_E?$basic_fstream@GU?$char_traits@G@std@@@std@@UAEPAXI@Z 7c0a6a2e f i instances.obj
 0001:00025afa       ?resetiosflags@std@@YA?AU?$_Smanip@H@1@H@Z 7c0a6afa f   iomanip.obj
 0001:00025b0c       ?setiosflags@std@@YA?AU?$_Smanip@H@1@H@Z 7c0a6b0c f   iomanip.obj
 0001:00025b1e       ?setbase@std@@YA?AU?$_Smanip@H@1@H@Z 7c0a6b1e f   iomanip.obj
 0001:00025b30       ?setprecision@std@@YA?AU?$_Smanip@H@1@H@Z 7c0a6b30 f   iomanip.obj
 0001:00025b42       ?setw@std@@YA?AU?$_Smanip@H@1@H@Z 7c0a6b42 f   iomanip.obj
 0001:00025b54       __Atexit                   7c0a6b54 f   iosptrs.obj
 0001:00025b75       ??1_Init_atexit@@QAE@XZ    7c0a6b75 f i iosptrs.obj
 0001:00025b95       ??0Init@ios_base@std@@QAE@XZ 7c0a6b95 f   iostream.obj
 0001:00025bb2       ??1Init@ios_base@std@@QAE@XZ 7c0a6bb2 f   iostream.obj
 0001:00025be8       ?_Addfac@_Locimp@locale@std@@AAEXPAVfacet@23@I@Z 7c0a6be8 f   locale.obj
 0001:00025c9d       ?global@locale@std@@SA?AV12@ABV12@@Z 7c0a6c9d f   locale.obj
 0001:00025d6c       ??0runtime_error@std@@QAE@ABV?$basic_string@DU?$char_traits@D@std@@V?$allocator@D@2@@1@@Z 7c0a6d6c f i locale.obj
 0001:00025da9       ?what@runtime_error@std@@UBEPBDXZ 7c0a6da9 f i locale.obj
 0001:00025da9       ?what@logic_error@std@@UBEPBDXZ 7c0a6da9 f i string.obj
 0001:00025db7       ??1runtime_error@std@@UAE@XZ 7c0a6db7 f i locale.obj
 0001:00025dd5       ??_Eruntime_error@std@@UAEPAXI@Z 7c0a6dd5 f i locale.obj
 0001:00025dd5       ??_Gruntime_error@std@@UAEPAXI@Z 7c0a6dd5 f i locale.obj
 0001:00025df1       ?_Addcats@_Locinfo@std@@QAEAAV12@HPBD@Z 7c0a6df1 f   locale.obj
 0001:00025e8a       ?_Makeloc@_Locimp@locale@std@@CAPAV123@ABV_Locinfo@3@HPAV123@PBV23@@Z 7c0a6e8a f   locale.obj
 0001:000260b8       ??0_Locimp@locale@std@@AAE@ABV012@@Z 7c0a70b8 f   locale.obj
 0001:000261ab       ??_E_Locimp@locale@std@@MAEPAXI@Z 7c0a71ab f i locale.obj
 0001:000261ab       ??_G_Locimp@locale@std@@MAEPAXI@Z 7c0a71ab f i locale.obj
 0001:000261c7       ??0_Locinfo@std@@QAE@HPBD@Z 7c0a71c7 f   locale.obj
 0001:00026239       ??0locale@std@@QAE@ABV01@0H@Z 7c0a7239 f   locale.obj
 0001:00026333       ??0locale@std@@QAE@PBDH@Z  7c0a7333 f   locale.obj
 0001:00026470       ??0runtime_error@std@@QAE@ABV01@@Z 7c0a7470 f i locale.obj
 0001:000264b4       ??0locale@std@@QAE@ABV01@PBDH@Z 7c0a74b4 f   locale.obj
 0001:00026670       ?_Addfac@locale@std@@QAEAAV12@PAVfacet@12@II@Z 7c0a7670 f   locale.obj
 0001:000266e4       ??0bad_alloc@std@@QAE@XZ   7c0a76e4 f i nomemory.obj
 0001:000266fe       ??1bad_alloc@std@@UAE@XZ   7c0a76fe f i nomemory.obj
 0001:0002670a       ??_Gbad_alloc@std@@UAEPAXI@Z 7c0a770a f i nomemory.obj
 0001:0002670a       ??_Ebad_alloc@std@@UAEPAXI@Z 7c0a770a f i nomemory.obj
 0001:0002672d       ??0bad_alloc@std@@QAE@ABV01@@Z 7c0a772d f i nomemory.obj
 0001:00026746       ?_Nomemory@std@@YAXXZ      7c0a7746 f   nomemory.obj
 0001:00026795       ?_New_handler_interface@std@@YAHI@Z 7c0a7795 f   stdhndlr.obj
 0001:0002679f       ?set_new_handler@std@@YAP6AXXZP6AXXZ@Z 7c0a779f f   stdhndlr.obj
 0001:000267d9       ??0logic_error@std@@QAE@ABV?$basic_string@DU?$char_traits@D@std@@V?$allocator@D@2@@1@@Z 7c0a77d9 f i string.obj
 0001:00026816       ??1logic_error@std@@UAE@XZ 7c0a7816 f i string.obj
 0001:00026834       ??_Glogic_error@std@@UAEPAXI@Z 7c0a7834 f i string.obj
 0001:00026834       ??_Elogic_error@std@@UAEPAXI@Z 7c0a7834 f i string.obj
 0001:00026850       ??1length_error@std@@UAE@XZ 7c0a7850 f i string.obj
 0001:0002685b       ??_Glength_error@std@@UAEPAXI@Z 7c0a785b f i string.obj
 0001:0002685b       ??_Elength_error@std@@UAEPAXI@Z 7c0a785b f i string.obj
 0001:0002687d       ??1out_of_range@std@@UAE@XZ 7c0a787d f i string.obj
 0001:00026888       ??_Gout_of_range@std@@UAEPAXI@Z 7c0a7888 f i string.obj
 0001:00026888       ??_Eout_of_range@std@@UAEPAXI@Z 7c0a7888 f i string.obj
 0001:000268aa       ?_Xran@_String_base@std@@QBEXXZ 7c0a78aa f   string.obj
 0001:000268ea       ??0logic_error@std@@QAE@ABV01@@Z 7c0a78ea f i string.obj
 0001:0002692e       ??0out_of_range@std@@QAE@ABV01@@Z 7c0a792e f i string.obj
 0001:00026946       ?_Xlen@_String_base@std@@QBEXXZ 7c0a7946 f   string.obj
 0001:00026986       ??0length_error@std@@QAE@ABV01@@Z 7c0a7986 f i string.obj
 0001:0002699e       ?freeze@strstreambuf@std@@QAEX_N@Z 7c0a799e f   strstrea.obj
 0001:000269ef       ?overflow@strstreambuf@std@@MAEHH@Z 7c0a79ef f   strstrea.obj
 0001:00026b8c       ?pbackfail@strstreambuf@std@@MAEHH@Z 7c0a7b8c f   strstrea.obj
 0001:00026bd5       ?underflow@strstreambuf@std@@MAEHXZ 7c0a7bd5 f   strstrea.obj
 0001:00026c2c       ?seekoff@strstreambuf@std@@MAE?AV?$fpos@H@2@JHH@Z 7c0a7c2c f   strstrea.obj
 0001:00026d65       ?seekpos@strstreambuf@std@@MAE?AV?$fpos@H@2@V32@H@Z 7c0a7d65 f   strstrea.obj
 0001:00026e2b       ?_Init@strstreambuf@std@@IAEXHPAD0H@Z 7c0a7e2b f   strstrea.obj
 0001:00026ed9       ?_Tidy@strstreambuf@std@@IAEXXZ 7c0a7ed9 f   strstrea.obj
 0001:00026f0a       ??0strstreambuf@std@@QAE@PADH0@Z 7c0a7f0a f i strstrea.obj
 0001:00026f33       ??1strstreambuf@std@@UAE@XZ 7c0a7f33 f   strstrea.obj
 0001:00026f6b       ??_Estrstreambuf@std@@UAEPAXI@Z 7c0a7f6b f i strstrea.obj
 0001:00026fb4       ??1istrstream@std@@UAE@XZ  7c0a7fb4 f   strstrea.obj
 0001:00026ffa       ??1ostrstream@std@@UAE@XZ  7c0a7ffa f   strstrea.obj
 0001:00027040       ??1strstream@std@@UAE@XZ   7c0a8040 f   strstrea.obj
 0001:0002707f       ??_Distrstream@std@@QAEXXZ 7c0a807f f i strstrea.obj
 0001:00027098       ??_Dostrstream@std@@QAEXXZ 7c0a8098 f i strstrea.obj
 0001:000270b1       ??_Dstrstream@std@@QAEXXZ  7c0a80b1 f i strstrea.obj
 0001:000270ca       ??_Eistrstream@std@@UAEPAXI@Z 7c0a80ca f i strstrea.obj
 0001:00027117       ??_Eostrstream@std@@UAEPAXI@Z 7c0a8117 f i strstrea.obj
 0001:00027164       ??_Estrstream@std@@UAEPAXI@Z 7c0a8164 f i strstrea.obj
 0001:000271b1       ??0ostrstream@std@@QAE@PADHH@Z 7c0a81b1 f   strstrea.obj
 0001:0002723b       ??0strstream@std@@QAE@PADHH@Z 7c0a823b f   strstrea.obj
 0001:000272cc       ??0_Init_ushcerr@std@@QAE@XZ 7c0a82cc f i ushcerr.obj
 0001:00027300       ??0_Init_ushcout@std@@QAE@XZ 7c0a8300 f i ushcout.obj
 0001:00027355       ??0_Init_ushcin@std@@QAE@XZ 7c0a8355 f i ushcin.obj
 0001:00027377       ??0_Init_ushclog@std@@QAE@XZ 7c0a8377 f i ushclog.obj
 0001:00027399       ??0_UShinit@std@@QAE@XZ    7c0a8399 f   ushiostr.obj
 0001:000273b6       ??1_UShinit@std@@QAE@XZ    7c0a83b6 f   ushiostr.obj
 0001:000273ec       ?uncaught_exception@std@@YA_NXZ 7c0a83ec f   uncaught.obj
 0001:000273f2       ??0_Init_wcerr@std@@QAE@XZ 7c0a83f2 f i wcerr.obj
 0001:00027426       ??0_Init_wcin@std@@QAE@XZ  7c0a8426 f i wcin.obj
 0001:00027448       ??0_Init_wclog@std@@QAE@XZ 7c0a8448 f i wclog.obj
 0001:0002746a       ??0_Init_wcout@std@@QAE@XZ 7c0a846a f i wcout.obj
 0001:000274bf       _towctrans                 7c0a84bf f   wctrans.obj
 0001:000274de       _wctrans                   7c0a84de f   wctrans.obj
 0001:0002751d       _wctype                    7c0a851d f   wctype.obj
 0001:0002755c       ??0_Winit@std@@QAE@XZ      7c0a855c f   wiostrea.obj
 0001:00027579       ??1_Winit@std@@QAE@XZ      7c0a8579 f   wiostrea.obj
 0001:000276e2       _mbrlen                    7c0a86e2 f   xmbtowc.obj
 0001:00027778       _mbrtowc                   7c0a8778 f   xmbtowc.obj
 0001:00027829       _mbsrtowcs                 7c0a8829 f   xmbtowc.obj
 0001:0002793d       __Mbrtowc                  7c0a893d f   xmbtowc.obj
 0001:000279cd       _btowc                     7c0a89cd f   xmbtowc.obj
 0001:00027a0e       __Strcoll                  7c0a8a0e f   xstrcoll.obj
 0001:00027b2d       __Getcoll                  7c0a8b2d f   xstrcoll.obj
 0001:00027bbc       __Strxfrm                  7c0a8bbc f   xstrxfrm.obj
 0001:00027cdd       ___Wcrtomb_lk              7c0a8cdd f   xwctomb.obj
 0001:00027d59       __Getcvt                   7c0a8d59 f   xwctomb.obj
 0001:00027de8       _wcsrtombs                 7c0a8de8 f   xwctomb.obj
 0001:00027f57       __Wcrtomb                  7c0a8f57 f   xwctomb.obj
 0001:00027fe4       _wcrtomb                   7c0a8fe4 f   xwctomb.obj
 0001:00028001       _wctob                     7c0a9001 f   xwctomb.obj
 0001:00028042       __Tolower_lk               7c0a9042 f   stdcpp:_tolower.obj
 0001:0002812a       __Getctype                 7c0a912a f   stdcpp:_tolower.obj
 0001:000281f7       __Tolower                  7c0a91f7 f   stdcpp:_tolower.obj
 0001:000282a4       __Getdateorder             7c0a92a4 f   stdcpp:xdateord.obj
 0001:000282ee       ??1_Fac_node@std@@QAE@XZ   7c0a92ee f i stdcpp:locale0.obj
 0001:00028303       __Deletegloballocale       7c0a9303 f   stdcpp:locale0.obj
 0001:00028342       __Getgloballocale          7c0a9342 f   stdcpp:locale0.obj
 0001:00028348       __Setgloballocale          7c0a9348 f   stdcpp:locale0.obj
 0001:0002836d       ?_Getfacet@locale@std@@QBEPBVfacet@12@I@Z 7c0a936d f   stdcpp:locale0.obj
 0001:000283a2       __Fac_tidy                 7c0a93a2 f   stdcpp:locale0.obj
 0001:000283e5       ?_Register@facet@locale@std@@QAEXXZ 7c0a93e5 f   stdcpp:locale0.obj
 0001:0002841e       ??1_Locimp@locale@std@@MAE@XZ 7c0a941e f   stdcpp:locale0.obj
 0001:000284a7       ??1_Locinfo@std@@QAE@XZ    7c0a94a7 f   stdcpp:locale0.obj
 0001:000284ff       ??8locale@std@@QBE_NABV01@@Z 7c0a94ff f   stdcpp:locale0.obj
 0001:000285d1       ??0_Locimp@locale@std@@AAE@_N@Z 7c0a95d1 f   stdcpp:locale0.obj
 0001:00028621       ??0_Locinfo@std@@QAE@PBD@Z 7c0a9621 f   stdcpp:locale0.obj
 0001:000286aa       ?_Init@locale@std@@CAPAV_Locimp@12@XZ 7c0a96aa f   stdcpp:locale0.obj
 0001:0002874d       ??0locale@std@@QAE@XZ      7c0a974d f   stdcpp:locale0.obj
 0001:00028766       ?classic@locale@std@@SAABV12@XZ 7c0a9766 f   stdcpp:locale0.obj
 0001:00028771       ?empty@locale@std@@SA?AV12@XZ 7c0a9771 f   stdcpp:locale0.obj
 0001:000287b8       ??0_Init_locks@std@@QAE@XZ 7c0a97b8 f   stdcpp:xlock.obj
 0001:000287e7       ??1_Init_locks@std@@QAE@XZ 7c0a97e7 f   stdcpp:xlock.obj
 0001:00028810       ??0_Lockit@std@@QAE@XZ     7c0a9810 f   stdcpp:xlock.obj
 0001:00028825       ??0_Lockit@std@@QAE@H@Z    7c0a9825 f   stdcpp:xlock.obj
 0001:00028846       ??1_Lockit@std@@QAE@XZ     7c0a9846 f   stdcpp:xlock.obj
 0001:00028858       __Toupper_lk               7c0a9858 f   stdcpp:_toupper.obj
 0001:00028937       __Toupper                  7c0a9937 f   stdcpp:_toupper.obj
 0001:000289e4       __Getwctype                7c0a99e4 f   stdcpp:xgetwctype.obj
 0001:00028a0f       __Getwctypes               7c0a9a0f f   stdcpp:xgetwctype.obj
 0001:00028a38       __Towlower                 7c0a9a38 f   stdcpp:xtowlower.obj
 0001:00028a9a       __Towupper                 7c0a9a9a f   stdcpp:xtowupper.obj
 0001:00028afb       ?register_callback@ios_base@std@@QAEXP6AXW4event@12@AAV12@H@ZH@Z 7c0a9afb f   stdcpp:ios.obj
 0001:00028b28       ?_Callfns@ios_base@std@@AAEXW4event@12@@Z 7c0a9b28 f   stdcpp:ios.obj
 0001:00028b4a       ?_Addstd@ios_base@std@@QAEXXZ 7c0a9b4a f   stdcpp:ios.obj
 0001:00028b9b       ?_Tidy@ios_base@std@@AAEXXZ 7c0a9b9b f   stdcpp:ios.obj
 0001:00028bdd       ?imbue@ios_base@std@@QAE?AVlocale@2@ABV32@@Z 7c0a9bdd f   stdcpp:ios.obj
 0001:00028c2b       ??1ios_base@std@@UAE@XZ    7c0a9c2b f   stdcpp:ios.obj
 0001:00028c69       ??1failure@ios_base@std@@UAE@XZ 7c0a9c69 f i stdcpp:ios.obj
 0001:00028c74       ??_Gfailure@ios_base@std@@UAEPAXI@Z 7c0a9c74 f i stdcpp:ios.obj
 0001:00028c74       ??_Efailure@ios_base@std@@UAEPAXI@Z 7c0a9c74 f i stdcpp:ios.obj
 0001:00028c96       ?clear@ios_base@std@@QAEXH_N@Z 7c0a9c96 f   stdcpp:ios.obj
 0001:00028d57       ??0failure@ios_base@std@@QAE@ABV012@@Z 7c0a9d57 f i stdcpp:ios.obj
 0001:00028d6f       ?_Findarr@ios_base@std@@AAEAAU_Iosarray@12@H@Z 7c0a9d6f f   stdcpp:ios.obj
 0001:00028e10       ?_Init@ios_base@std@@IAEXXZ 7c0a9e10 f   stdcpp:ios.obj
 0001:00028e56       ?copyfmt@ios_base@std@@QAEAAV12@ABV12@@Z 7c0a9e56 f   stdcpp:ios.obj
 0001:00028ef5       ??0_Mutex@std@@QAE@XZ      7c0a9ef5 f   stdcpp:xmutex.obj
 0001:00028f0d       ??1_Mutex@std@@QAE@XZ      7c0a9f0d f   stdcpp:xmutex.obj
 0001:00028f22       ?_Lock@_Mutex@std@@QAEXXZ  7c0a9f22 f   stdcpp:xmutex.obj
 0001:00028f2b       ?_Unlock@_Mutex@std@@QAEXXZ 7c0a9f2b f   stdcpp:xmutex.obj
 0001:00028f34       ??2@YAPAXI@Z               7c0a9f34 f   stdcpp:newop.obj
 0001:00028f5d       __Wcscoll                  7c0a9f5d f   stdcpp:xwcscoll.obj
 0001:00029094       __Wcsxfrm                  7c0aa094 f   stdcpp:xwcsxfrm.obj
 0001:000291e5       ??_U@YAPAXI@Z              7c0aa1e5 f   stdcpp:newaop.obj
 0001:000291ea       __LCosh                    7c0aa1ea f   stdcpp:xlcosh.obj
 0001:0002928f       __LExp                     7c0aa28f f   stdcpp:xlexp.obj
 0001:000293aa       __LDtest                   7c0aa3aa f   stdcpp:xldtest.obj
 0001:000293af       __LSinh                    7c0aa3af f   stdcpp:xlsinh.obj
 0001:000294f5       __Cosh                     7c0aa4f5 f   stdcpp:xcosh.obj
 0001:0002959a       __Exp                      7c0aa59a f   stdcpp:xexp.obj
 0001:000296ad       __Dtest                    7c0aa6ad f   stdcpp:xdtest.obj
 0001:0002970a       __Sinh                     7c0aa70a f   stdcpp:xsinh.obj
 0001:00029850       __FCosh                    7c0aa850 f   stdcpp:xfcosh.obj
 0001:0002990c       __FExp                     7c0aa90c f   stdcpp:xfexp.obj
 0001:00029a45       __FDtest                   7c0aaa45 f   stdcpp:xfdtest.obj
 0001:00029a86       __FSinh                    7c0aaa86 f   stdcpp:xfsinh.obj
 0001:00029c14       __Stod                     7c0aac14 f   stdcpp:xstod.obj
 0001:00029c49       __Stof                     7c0aac49 f   stdcpp:xstod.obj
 0001:00029c66       __Stold                    7c0aac66 f   stdcpp:xstod.obj
 0001:00029c6b       ??$use_facet@V?$collate@_W@std@@@std@@YAABV?$collate@_W@0@ABVlocale@0@@Z 7c0aac6b f i stdcpp:wlocale.obj
 0001:00029d10       ??$use_facet@V?$messages@_W@std@@@std@@YAABV?$messages@_W@0@ABVlocale@0@@Z 7c0aad10 f i stdcpp:wlocale.obj
 0001:00029db5       ??$use_facet@V?$money_get@_WV?$istreambuf_iterator@_WU?$char_traits@_W@std@@@std@@@std@@@std@@YAABV?$money_get@_WV?$istreambuf_iterator@_WU?$char_traits@_W@std@@@std@@@0@ABVlocale@0@@Z 7c0aadb5 f i stdcpp:wlocale.obj
 0001:00029e5a       ??$use_facet@V?$money_put@_WV?$ostreambuf_iterator@_WU?$char_traits@_W@std@@@std@@@std@@@std@@YAABV?$money_put@_WV?$ostreambuf_iterator@_WU?$char_traits@_W@std@@@std@@@0@ABVlocale@0@@Z 7c0aae5a f i stdcpp:wlocale.obj
 0001:00029eff       ??$use_facet@V?$time_put@_WV?$ostreambuf_iterator@_WU?$char_traits@_W@std@@@std@@@std@@@std@@YAABV?$time_put@_WV?$ostreambuf_iterator@_WU?$char_traits@_W@std@@@std@@@0@ABVlocale@0@@Z 7c0aaeff f i stdcpp:wlocale.obj
 0001:00029fa4       ??$use_facet@V?$collate@G@std@@@std@@YAABV?$collate@G@0@ABVlocale@0@@Z 7c0aafa4 f i stdcpp:wlocale.obj
 0001:0002a049       ??$use_facet@V?$messages@G@std@@@std@@YAABV?$messages@G@0@ABVlocale@0@@Z 7c0ab049 f i stdcpp:wlocale.obj
 0001:0002a0ee       ??$use_facet@V?$money_get@GV?$istreambuf_iterator@GU?$char_traits@G@std@@@std@@@std@@@std@@YAABV?$money_get@GV?$istreambuf_iterator@GU?$char_traits@G@std@@@std@@@0@ABVlocale@0@@Z 7c0ab0ee f i stdcpp:wlocale.obj
 0001:0002a193       ??$use_facet@V?$money_put@GV?$ostreambuf_iterator@GU?$char_traits@G@std@@@std@@@std@@@std@@YAABV?$money_put@GV?$ostreambuf_iterator@GU?$char_traits@G@std@@@std@@@0@ABVlocale@0@@Z 7c0ab193 f i stdcpp:wlocale.obj
 0001:0002a238       ??$use_facet@V?$time_put@GV?$ostreambuf_iterator@GU?$char_traits@G@std@@@std@@@std@@@std@@YAABV?$time_put@GV?$ostreambuf_iterator@GU?$char_traits@G@std@@@std@@@0@ABVlocale@0@@Z 7c0ab238 f i stdcpp:wlocale.obj
 0001:0002a2dd       ??$use_facet@V?$time_get@_WV?$istreambuf_iterator@_WU?$char_traits@_W@std@@@std@@@std@@@std@@YAABV?$time_get@_WV?$istreambuf_iterator@_WU?$char_traits@_W@std@@@std@@@0@ABVlocale@0@@Z 7c0ab2dd f i stdcpp:wlocale.obj
 0001:0002a382       ??$use_facet@V?$time_get@GV?$istreambuf_iterator@GU?$char_traits@G@std@@@std@@@std@@@std@@YAABV?$time_get@GV?$istreambuf_iterator@GU?$char_traits@G@std@@@std@@@0@ABVlocale@0@@Z 7c0ab382 f i stdcpp:wlocale.obj
 0001:0002a427       ?_Makewloc@_Locimp@locale@std@@CAXABV_Locinfo@3@HPAV123@PBV23@@Z 7c0ab427 f   stdcpp:wlocale.obj
 0001:0002a8b3       ?_Makeushloc@_Locimp@locale@std@@CAXABV_Locinfo@3@HPAV123@PBV23@@Z 7c0ab8b3 f   stdcpp:wlocale.obj
 0001:0002ad3f       ??$use_facet@V?$collate@D@std@@@std@@YAABV?$collate@D@0@ABVlocale@0@@Z 7c0abd3f f i stdcpp:xlocale.obj
 0001:0002ade4       ??$use_facet@V?$messages@D@std@@@std@@YAABV?$messages@D@0@ABVlocale@0@@Z 7c0abde4 f i stdcpp:xlocale.obj
 0001:0002ae89       ??$use_facet@V?$money_get@DV?$istreambuf_iterator@DU?$char_traits@D@std@@@std@@@std@@@std@@YAABV?$money_get@DV?$istreambuf_iterator@DU?$char_traits@D@std@@@std@@@0@ABVlocale@0@@Z 7c0abe89 f i stdcpp:xlocale.obj
 0001:0002af2e       ??$use_facet@V?$money_put@DV?$ostreambuf_iterator@DU?$char_traits@D@std@@@std@@@std@@@std@@YAABV?$money_put@DV?$ostreambuf_iterator@DU?$char_traits@D@std@@@std@@@0@ABVlocale@0@@Z 7c0abf2e f i stdcpp:xlocale.obj
 0001:0002afd3       ??$use_facet@V?$time_put@DV?$ostreambuf_iterator@DU?$char_traits@D@std@@@std@@@std@@@std@@YAABV?$time_put@DV?$ostreambuf_iterator@DU?$char_traits@D@std@@@std@@@0@ABVlocale@0@@Z 7c0abfd3 f i stdcpp:xlocale.obj
 0001:0002b078       ??$use_facet@V?$time_get@DV?$istreambuf_iterator@DU?$char_traits@D@std@@@std@@@std@@@std@@YAABV?$time_get@DV?$istreambuf_iterator@DU?$char_traits@D@std@@@std@@@0@ABVlocale@0@@Z 7c0ac078 f i stdcpp:xlocale.obj
 0001:0002b11d       ?_Makexloc@_Locimp@locale@std@@CAXABV_Locinfo@3@HPAV123@PBV23@@Z 7c0ac11d f   stdcpp:xlocale.obj
 0001:0002b3f5       __Mtxinit                  7c0ac3f5 f   stdcpp:xmtx.obj
 0001:0002b400       __Mtxdst                   7c0ac400 f   stdcpp:xmtx.obj
 0001:0002b40b       __Mtxlock                  7c0ac40b f   stdcpp:xmtx.obj
 0001:0002b416       __Mtxunlock                7c0ac416 f   stdcpp:xmtx.obj
 0001:0002b421       __Feraise                  7c0ac421 f   stdcpp:xferaise.obj
 0001:0002b449       __LDscale                  7c0ac449 f   stdcpp:xldscale.obj
 0001:0002b44e       __Dscale                   7c0ac44e f   stdcpp:xdscale.obj
 0001:0002b5fb       __Poly                     7c0ac5fb f   stdcpp:xpoly.obj
 0001:0002b5fb       __LPoly                    7c0ac5fb f   stdcpp:xlpoly.obj
 0001:0002b616       __FDscale                  7c0ac616 f   stdcpp:xfdscale.obj
 0001:0002b737       __Dnorm                    7c0ac737 f   stdcpp:xdnorm.obj
 0001:0002b842       __FDnorm                   7c0ac842 f   stdcpp:xfdnorm.obj
 0001:0002b8e0       _memcpy                    7c0ac8e0 f   msvcrt:MSVCR80.dll
 0001:0002b8e6       _memcmp                    7c0ac8e6 f   msvcrt:MSVCR80.dll
 0001:0002b8ec       _strlen                    7c0ac8ec f   msvcrt:MSVCR80.dll
 0001:0002b8f2       _memset                    7c0ac8f2 f   msvcrt:MSVCR80.dll
 0001:0002b8f8       _free                      7c0ac8f8 f   msvcrt:MSVCR80.dll
 0001:0002b8fe       __Gettnames                7c0ac8fe f   msvcrt:MSVCR80.dll
 0001:0002b904       ??_Etype_info@@UAEPAXI@Z   7c0ac904 f i msvcrt:ti_inst.obj
 0001:0002b94e       ??3@YAXPAX@Z               7c0ac94e f   msvcrt:MSVCR80.dll
 0001:0002b954       ??_V@YAXPAX@Z              7c0ac954 f   msvcrt:MSVCR80.dll
 0001:0002b95a       ?__ArrayUnwind@@YGXPAXIHP6EX0@Z@Z 7c0ac95a f   msvcrt:ehvecdtr.obj
 0001:0002b9b8       ??_M@YGXPAXIHP6EX0@Z@Z     7c0ac9b8 f   msvcrt:ehvecdtr.obj
 0001:0002ba49       @__security_check_cookie@4 7c0aca49 f   msvcrt:secchk.obj
 0001:0002ba58       ___CxxFrameHandler2        7c0aca58 f   msvcrt:MSVCR80.dll
 0001:0002ba60       __EH_prolog                7c0aca60 f   msvcrt:ehprolog.obj
 0001:0002ba80       ??0exception@std@@QAE@ABV01@@Z 7c0aca80 f   msvcrt:MSVCR80.dll
 0001:0002ba86       ??0bad_cast@std@@QAE@ABV01@@Z 7c0aca86 f   msvcrt:MSVCR80.dll
 0001:0002ba8c       ??1bad_cast@std@@UAE@XZ    7c0aca8c f   msvcrt:MSVCR80.dll
 0001:0002ba92       __CxxThrowException@8      7c0aca92 f   msvcrt:MSVCR80.dll
 0001:0002ba98       __Getdays                  7c0aca98 f   msvcrt:MSVCR80.dll
 0001:0002ba9e       __Getmonths                7c0aca9e f   msvcrt:MSVCR80.dll
 0001:0002baa4       __onexit                   7c0acaa4 f   msvcrt:atonexit.obj
 0001:0002baca       _atexit                    7c0acaca f   msvcrt:atonexit.obj
 0001:0002badc       _atan2                     7c0acadc f   msvcrt:MSVCR80.dll
 0001:0002bae2       _cos                       7c0acae2 f   msvcrt:MSVCR80.dll
 0001:0002bae8       _exp                       7c0acae8 f   msvcrt:MSVCR80.dll
 0001:0002baee       _log                       7c0acaee f   msvcrt:MSVCR80.dll
 0001:0002baf4       _pow                       7c0acaf4 f   msvcrt:MSVCR80.dll
 0001:0002bafa       _sin                       7c0acafa f   msvcrt:MSVCR80.dll
 0001:0002bb00       _sqrt                      7c0acb00 f   msvcrt:MSVCR80.dll
 0001:0002bb06       _tan                       7c0acb06 f   msvcrt:MSVCR80.dll
 0001:0002bb0c       __Strftime                 7c0acb0c f   msvcrt:MSVCR80.dll
 0001:0002bb12       ?what@exception@std@@UBEPBDXZ 7c0acb12 f   msvcrt:MSVCR80.dll
 0001:0002bb18       ?_set_new_handler@@YAP6AHI@ZP6AHI@Z@Z 7c0acb18 f   msvcrt:MSVCR80.dll
 0001:0002bb1e       _strcmp                    7c0acb1e f   msvcrt:MSVCR80.dll
 0001:0002bb24       __unlock                   7c0acb24 f   msvcrt:MSVCR80.dll
 0001:0002bb2a       __lock                     7c0acb2a f   msvcrt:MSVCR80.dll
 0001:0002bb30       __SEH_prolog               7c0acb30 f   msvcrt:sehprolg.obj
 0001:0002bb6b       __SEH_epilog               7c0acb6b f   msvcrt:sehprolg.obj
 0001:0002bb7c       __except_handler3          7c0acb7c f   msvcrt:MSVCR80.dll
 0001:0002bb82       __local_unwind2            7c0acb82 f   msvcrt:MSVCR80.dll
 0001:0002bb88       ___crtCompareStringA       7c0acb88 f   msvcrt:MSVCR80.dll
 0001:0002bb8e       ___crtLCMapStringA         7c0acb8e f   msvcrt:MSVCR80.dll
 0001:0002bb94       __CRT_INIT@12              7c0acb94 f   msvcrt:crtdll.obj
 0001:0002bc5d       __DllMainCRTStartup@12     7c0acc5d f   msvcrt:crtdll.obj
 0001:0002bd60       ___crtGetStringTypeW       7c0acd60 f   msvcrt:MSVCR80.dll
 0001:0002bd66       ___crtLCMapStringW         7c0acd66 f   msvcrt:MSVCR80.dll
 0001:0002bd6c       __callnewh                 7c0acd6c f   msvcrt:MSVCR80.dll
 0001:0002bd72       ___crtCompareStringW       7c0acd72 f   msvcrt:MSVCR80.dll
 0001:0002bd80       __ftol2                    7c0acd80 f   msvcrt:ftol2.obj
 0001:0002bdf6       ??1type_info@@UAE@XZ       7c0acdf6 f   msvcrt:MSVCR80.dll
 0001:0002bdfc       ?terminate@@YAXXZ          7c0acdfc f   msvcrt:MSVCR80.dll
 0001:0002be02       ___security_init_cookie    7c0ace02 f   msvcrt:seccinit.obj
 0001:0002be68       ___security_error_handler  7c0ace68 f   msvcrt:MSVCR80.dll
 0001:0002be6e       ___dllonexit               7c0ace6e f   msvcrt:MSVCR80.dll
 0001:0002be74       __initterm                 7c0ace74 f   msvcrt:MSVCR80.dll
 0001:0002be7a       ___clean_type_info_names   7c0ace7a f   msvcrt:tncleanup.obj
 0001:0002bed4       __RTC_Initialize           7c0aced4 f   msvcrt:initsect.obj
 0001:0002bf18       __RTC_Terminate            7c0acf18 f   msvcrt:initsect.obj
 0001:0002bf5c       ___CppXcptFilter           7c0acf5c f   msvcrt:MSVCR80.dll
 0001:0002bf62       _DllMain@12                7c0acf62 f   msvcrt:dllmain.obj
 0002:00000000       __imp__GetSystemTimeAsFileTime@4 7c0b0000     kernel32:KERNEL32.dll
 0002:00000004       __imp__GetCurrentProcessId@0 7c0b0004     kernel32:KERNEL32.dll
 0002:00000008       __imp__GetCurrentThreadId@0 7c0b0008     kernel32:KERNEL32.dll
 0002:0000000c       __imp__GetTickCount@0      7c0b000c     kernel32:KERNEL32.dll
 0002:00000010       __imp__QueryPerformanceCounter@4 7c0b0010     kernel32:KERNEL32.dll
 0002:00000014       __imp__ExitProcess@4       7c0b0014     kernel32:KERNEL32.dll
 0002:00000018       __imp__LeaveCriticalSection@4 7c0b0018     kernel32:KERNEL32.dll
 0002:0000001c       __imp__EnterCriticalSection@4 7c0b001c     kernel32:KERNEL32.dll
 0002:00000020       __imp__DeleteCriticalSection@4 7c0b0020     kernel32:KERNEL32.dll
 0002:00000024       __imp__InitializeCriticalSection@4 7c0b0024     kernel32:KERNEL32.dll
 0002:00000028       __imp__GetLocaleInfoA@16   7c0b0028     kernel32:KERNEL32.dll
 0002:0000002c       __imp__WideCharToMultiByte@32 7c0b002c     kernel32:KERNEL32.dll
 0002:00000030       __imp__InterlockedIncrement@4 7c0b0030     kernel32:KERNEL32.dll
 0002:00000034       __imp__InterlockedDecrement@4 7c0b0034     kernel32:KERNEL32.dll
 0002:00000038       __imp__MultiByteToWideChar@24 7c0b0038     kernel32:KERNEL32.dll
 0002:0000003c       __imp__DisableThreadLibraryCalls@4 7c0b003c     kernel32:KERNEL32.dll
 0002:00000040       \177KERNEL32_NULL_THUNK_DATA 7c0b0040     kernel32:KERNEL32.dll
 0002:00000044       __imp__fgetc               7c0b0044     msvcrt:MSVCR80.dll
 0002:00000048       __imp__fputc               7c0b0048     msvcrt:MSVCR80.dll
 0002:0000004c       __imp__ungetc              7c0b004c     msvcrt:MSVCR80.dll
 0002:00000050       __imp__setvbuf             7c0b0050     msvcrt:MSVCR80.dll
 0002:00000054       __imp__fflush              7c0b0054     msvcrt:MSVCR80.dll
 0002:00000058       __imp__fwrite              7c0b0058     msvcrt:MSVCR80.dll
 0002:0000005c       __imp___Getdays            7c0b005c     msvcrt:MSVCR80.dll
 0002:00000060       __imp___Getmonths          7c0b0060     msvcrt:MSVCR80.dll
 0002:00000064       __imp__fgetpos             7c0b0064     msvcrt:MSVCR80.dll
 0002:00000068       __imp__fseek               7c0b0068     msvcrt:MSVCR80.dll
 0002:0000006c       __imp__fsetpos             7c0b006c     msvcrt:MSVCR80.dll
 0002:00000070       __imp__fclose              7c0b0070     msvcrt:MSVCR80.dll
 0002:00000074       __imp____iob_func          7c0b0074     msvcrt:MSVCR80.dll
 0002:00000078       __imp__fopen               7c0b0078     msvcrt:MSVCR80.dll
 0002:0000007c       __imp__atan2               7c0b007c     msvcrt:MSVCR80.dll
 0002:00000080       __imp__cos                 7c0b0080     msvcrt:MSVCR80.dll
 0002:00000084       __imp__exp                 7c0b0084     msvcrt:MSVCR80.dll
 0002:00000088       __imp__ldexp               7c0b0088     msvcrt:MSVCR80.dll
 0002:0000008c       __imp__log                 7c0b008c     msvcrt:MSVCR80.dll
 0002:00000090       __imp__pow                 7c0b0090     msvcrt:MSVCR80.dll
 0002:00000094       __imp__sin                 7c0b0094     msvcrt:MSVCR80.dll
 0002:00000098       __imp__sqrt                7c0b0098     msvcrt:MSVCR80.dll
 0002:0000009c       __imp__tan                 7c0b009c     msvcrt:MSVCR80.dll
 0002:000000a0       __imp__fgetwc              7c0b00a0     msvcrt:MSVCR80.dll
 0002:000000a4       __imp__fputwc              7c0b00a4     msvcrt:MSVCR80.dll
 0002:000000a8       __imp__ungetwc             7c0b00a8     msvcrt:MSVCR80.dll
 0002:000000ac       __imp__strtol              7c0b00ac     msvcrt:MSVCR80.dll
 0002:000000b0       __imp___errno              7c0b00b0     msvcrt:MSVCR80.dll
 0002:000000b4       __imp___Strftime           7c0b00b4     msvcrt:MSVCR80.dll
 0002:000000b8       __imp__strcspn             7c0b00b8     msvcrt:MSVCR80.dll
 0002:000000bc       __imp__strtoul             7c0b00bc     msvcrt:MSVCR80.dll
 0002:000000c0       __imp___strtoi64           7c0b00c0     msvcrt:MSVCR80.dll
 0002:000000c4       __imp___strtoui64          7c0b00c4     msvcrt:MSVCR80.dll
 0002:000000c8       __imp__sprintf             7c0b00c8     msvcrt:MSVCR80.dll
 0002:000000cc       __imp__abort               7c0b00cc     msvcrt:MSVCR80.dll
 0002:000000d0       __imp_@_realloc_crt@8      7c0b00d0     msvcrt:MSVCR80.dll
 0002:000000d4       __imp__setlocale           7c0b00d4     msvcrt:MSVCR80.dll
 0002:000000d8       __imp___CxxThrowException@8 7c0b00d8     msvcrt:MSVCR80.dll
 0002:000000dc       __imp_??0exception@std@@QAE@XZ 7c0b00dc     msvcrt:MSVCR80.dll
 0002:000000e0       __imp_@_malloc_crt@4       7c0b00e0     msvcrt:MSVCR80.dll
 0002:000000e4       __imp_?what@exception@std@@UBEPBDXZ 7c0b00e4     msvcrt:MSVCR80.dll
 0002:000000e8       __imp_??0exception@std@@QAE@ABQBDH@Z 7c0b00e8     msvcrt:MSVCR80.dll
 0002:000000ec       __imp_?_set_new_handler@@YAP6AHI@ZP6AHI@Z@Z 7c0b00ec     msvcrt:MSVCR80.dll
 0002:000000f0       __imp_?__uncaught_exception@@YA_NXZ 7c0b00f0     msvcrt:MSVCR80.dll
 0002:000000f4       __imp__towlower            7c0b00f4     msvcrt:MSVCR80.dll
 0002:000000f8       __imp__towupper            7c0b00f8     msvcrt:MSVCR80.dll
 0002:000000fc       __imp__strcmp              7c0b00fc     msvcrt:MSVCR80.dll
 0002:00000100       __imp____pctype_func       7c0b0100     msvcrt:MSVCR80.dll
 0002:00000104       __imp_____lc_codepage_func 7c0b0104     msvcrt:MSVCR80.dll
 0002:00000108       __imp_____lc_handle_func   7c0b0108     msvcrt:MSVCR80.dll
 0002:0000010c       __imp___unlock             7c0b010c     msvcrt:MSVCR80.dll
 0002:00000110       __imp___lock               7c0b0110     msvcrt:MSVCR80.dll
 0002:00000114       __imp_____setlc_active_func 7c0b0114     msvcrt:MSVCR80.dll
 0002:00000118       __imp_____unguarded_readlc_active_add_func 7c0b0118     msvcrt:MSVCR80.dll
 0002:0000011c       __imp___except_handler3    7c0b011c     msvcrt:MSVCR80.dll
 0002:00000120       __imp___local_unwind2      7c0b0120     msvcrt:MSVCR80.dll
 0002:00000124       __imp____crtCompareStringA 7c0b0124     msvcrt:MSVCR80.dll
 0002:00000128       __imp_____lc_collate_cp_func 7c0b0128     msvcrt:MSVCR80.dll
 0002:0000012c       __imp____crtLCMapStringA   7c0b012c     msvcrt:MSVCR80.dll
 0002:00000130       __imp__isupper             7c0b0130     msvcrt:MSVCR80.dll
 0002:00000134       __imp__islower             7c0b0134     msvcrt:MSVCR80.dll
 0002:00000138       __imp____crtGetStringTypeW 7c0b0138     msvcrt:MSVCR80.dll
 0002:0000013c       __imp____crtLCMapStringW   7c0b013c     msvcrt:MSVCR80.dll
 0002:00000140       __imp___callnewh           7c0b0140     msvcrt:MSVCR80.dll
 0002:00000144       __imp__malloc              7c0b0144     msvcrt:MSVCR80.dll
 0002:00000148       __imp____crtCompareStringW 7c0b0148     msvcrt:MSVCR80.dll
 0002:0000014c       __imp__strtod              7c0b014c     msvcrt:MSVCR80.dll
 0002:00000150       __imp_??1type_info@@UAE@XZ 7c0b0150     msvcrt:MSVCR80.dll
 0002:00000154       __imp_?terminate@@YAXXZ    7c0b0154     msvcrt:MSVCR80.dll
 0002:00000158       __imp____security_error_handler 7c0b0158     msvcrt:MSVCR80.dll
 0002:0000015c       __imp____dllonexit         7c0b015c     msvcrt:MSVCR80.dll
 0002:00000160       __imp___onexit             7c0b0160     msvcrt:MSVCR80.dll
 0002:00000164       __imp___initterm           7c0b0164     msvcrt:MSVCR80.dll
 0002:00000168       __imp___adjust_fdiv        7c0b0168     msvcrt:MSVCR80.dll
 0002:0000016c       __imp____CppXcptFilter     7c0b016c     msvcrt:MSVCR80.dll
 0002:00000170       __imp_??0bad_cast@std@@QAE@PBD@Z 7c0b0170     msvcrt:MSVCR80.dll
 0002:00000174       __imp_??1bad_cast@std@@UAE@XZ 7c0b0174     msvcrt:MSVCR80.dll
 0002:00000178       __imp_??0bad_cast@std@@QAE@ABV01@@Z 7c0b0178     msvcrt:MSVCR80.dll
 0002:0000017c       __imp_??0exception@std@@QAE@ABV01@@Z 7c0b017c     msvcrt:MSVCR80.dll
 0002:00000180       __imp____CxxFrameHandler2  7c0b0180     msvcrt:MSVCR80.dll
 0002:00000184       __imp_____mb_cur_max_func  7c0b0184     msvcrt:MSVCR80.dll
 0002:00000188       __imp_??_V@YAXPAX@Z        7c0b0188     msvcrt:MSVCR80.dll
 0002:0000018c       __imp_??3@YAXPAX@Z         7c0b018c     msvcrt:MSVCR80.dll
 0002:00000190       __imp___Gettnames          7c0b0190     msvcrt:MSVCR80.dll
 0002:00000194       __imp__localeconv          7c0b0194     msvcrt:MSVCR80.dll
 0002:00000198       __imp__free                7c0b0198     msvcrt:MSVCR80.dll
 0002:0000019c       __imp__memset              7c0b019c     msvcrt:MSVCR80.dll
 0002:000001a0       __imp__memchr              7c0b01a0     msvcrt:MSVCR80.dll
 0002:000001a4       __imp__strlen              7c0b01a4     msvcrt:MSVCR80.dll
 0002:000001a8       __imp__memcmp              7c0b01a8     msvcrt:MSVCR80.dll
 0002:000001ac       __imp__wcslen              7c0b01ac     msvcrt:MSVCR80.dll
 0002:000001b0       __imp__memmove             7c0b01b0     msvcrt:MSVCR80.dll
 0002:000001b4       __imp_??1exception@std@@UAE@XZ 7c0b01b4     msvcrt:MSVCR80.dll
 0002:000001b8       __imp__memcpy              7c0b01b8     msvcrt:MSVCR80.dll
 0002:000001bc       \177MSVCR80_NULL_THUNK_DATA 7c0b01bc     msvcrt:MSVCR80.dll
 0002:000001dc       ??_C@_0P@GHFPNOJB@bad?5allocation?$AA@ 7c0b01dc     cerr.obj
 0002:000001ec       ??_C@_05LAPONLG@false?$AA@ 7c0b01ec     cerr.obj
 0002:000001f4       ??_C@_04LOAJBDKD@true?$AA@ 7c0b01f4     cerr.obj
 0002:000001fc       ??_C@_01GFHCPBMG@C?$AA@    7c0b01fc     cerr.obj
 0002:00000204       ??_7facet@locale@std@@6B@  7c0b0204     cerr.obj
 0002:0000020c       ??_7codecvt_base@std@@6B@  7c0b020c     cerr.obj
 0002:00000220       ??_7ctype_base@std@@6B@    7c0b0220     cerr.obj
 0002:00000228       ??_7?$ctype@_W@std@@6B@    7c0b0228     cerr.obj
 0002:00000260       ??_7?$ctype@G@std@@6B@     7c0b0260     cerr.obj
 0002:00000298       ??_7ios_base@std@@6B@      7c0b0298     cerr.obj
 0002:000002a0       ??_7?$basic_ostream@DU?$char_traits@D@std@@@std@@6B@ 7c0b02a0     cerr.obj
 0002:000002a8       ??_7?$basic_ios@DU?$char_traits@D@std@@@std@@6B@ 7c0b02a8     cerr.obj
 0002:000002b0       ??_7?$codecvt@_WDH@std@@6B@ 7c0b02b0     cerr.obj
 0002:000002d4       ??_7?$codecvt@GDH@std@@6B@ 7c0b02d4     cerr.obj
 0002:000002f8       ??_7?$ctype@D@std@@6B@     7c0b02f8     cerr.obj
 0002:00000320       ??_7?$basic_streambuf@DU?$char_traits@D@std@@@std@@6B@ 7c0b0320     cerr.obj
 0002:00000354       ??_C@_08EPJLHIJG@bad?5cast?$AA@ 7c0b0354     cerr.obj
 0002:00000364       ??_7?$basic_filebuf@DU?$char_traits@D@std@@@std@@6B@ 7c0b0364     cerr.obj
 0002:0000039c       ??_7?$codecvt@DDH@std@@6B@ 7c0b039c     cerr.obj
 0002:000003c0       ??_C@_0FG@EOHGAEB@?3Sun?3Sunday?3Mon?3Monday?3Tue?3Tuesd@ 7c0b03c0     cerr.obj
 0002:00000418       ??_C@_0IH@HPGJLCCK@?3Jan?3January?3Feb?3February?3Mar?3Ma@ 7c0b0418     cerr.obj
 0002:000004a4       ??_7?$basic_istream@DU?$char_traits@D@std@@@std@@6B@ 7c0b04a4     cin.obj
 0002:000004a8       ??_C@_03DOPCBAKB@a?$CLb?$AA@ 7c0b04a8     fiopen.obj
 0002:000004ac       ??_C@_03ELIABIOC@w?$CLb?$AA@ 7c0b04ac     fiopen.obj
 0002:000004b0       ??_C@_03HMFOOINA@r?$CLb?$AA@ 7c0b04b0     fiopen.obj
 0002:000004b4       ??_C@_02DPNLHKJD@a?$CL?$AA@ 7c0b04b4     fiopen.obj
 0002:000004b8       ??_C@_02CHHAKFFB@w?$CL?$AA@ 7c0b04b8     fiopen.obj
 0002:000004bc       ??_C@_02CBLLGHLK@r?$CL?$AA@ 7c0b04bc     fiopen.obj
 0002:000004c0       ??_C@_02BOGAIONP@ab?$AA@   7c0b04c0     fiopen.obj
 0002:000004c4       ??_C@_02GMLFBBN@wb?$AA@    7c0b04c4     fiopen.obj
 0002:000004c8       ??_C@_02JDPG@rb?$AA@       7c0b04c8     fiopen.obj
 0002:000004cc       ??_C@_01MCMALHOG@a?$AA@    7c0b04cc     fiopen.obj
 0002:000004d0       ??_C@_01NOFIACDB@w?$AA@    7c0b04d0     fiopen.obj
 0002:000004d4       ??_C@_01KDCPPGHE@r?$AA@    7c0b04d4     fiopen.obj
 0002:00000514       ?intl@?$moneypunct@D$0A@@std@@2_NB 7c0b0514     instances.obj
 0002:00000514       ?intl@?$moneypunct@_W$0A@@std@@2_NB 7c0b0514     instances.obj
 0002:00000514       ?intl@?$moneypunct@G$0A@@std@@2_NB 7c0b0514     instances.obj
 0002:00000515       ?intl@?$moneypunct@D$00@std@@2_NB 7c0b0515     instances.obj
 0002:00000515       ?intl@?$moneypunct@_W$00@std@@2_NB 7c0b0515     instances.obj
 0002:00000515       ?intl@?$moneypunct@G$00@std@@2_NB 7c0b0515     instances.obj
 0002:00000518       ?npos@?$basic_string@DU?$char_traits@D@std@@V?$allocator@D@2@@std@@2IB 7c0b0518     cerr.obj
 0002:00000518       ?npos@?$basic_string@_WU?$char_traits@_W@std@@V?$allocator@_W@2@@std@@2IB 7c0b0518     instances.obj
 0002:00000518       ?npos@?$basic_string@GU?$char_traits@G@std@@V?$allocator@G@2@@std@@2IB 7c0b0518     instances.obj
 0002:0000051c       ?min_exponent10@?$numeric_limits@N@std@@2HB 7c0b051c     instances.obj
 0002:0000051c       ?min_exponent10@?$numeric_limits@O@std@@2HB 7c0b051c     instances.obj
 0002:00000520       ?max_exponent10@?$numeric_limits@N@std@@2HB 7c0b0520     instances.obj
 0002:00000520       ?max_exponent10@?$numeric_limits@O@std@@2HB 7c0b0520     instances.obj
 0002:00000524       ?max_exponent@?$numeric_limits@N@std@@2HB 7c0b0524     instances.obj
 0002:00000524       ?max_exponent@?$numeric_limits@O@std@@2HB 7c0b0524     instances.obj
 0002:00000528       ?digits10@?$numeric_limits@N@std@@2HB 7c0b0528     instances.obj
 0002:00000528       ?digits@?$numeric_limits@F@std@@2HB 7c0b0528     instances.obj
 0002:00000528       ?digits10@?$numeric_limits@O@std@@2HB 7c0b0528     instances.obj
 0002:0000052c       ?digits@?$numeric_limits@N@std@@2HB 7c0b052c     instances.obj
 0002:0000052c       ?digits@?$numeric_limits@O@std@@2HB 7c0b052c     instances.obj
 0002:00000530       ?min_exponent@?$numeric_limits@N@std@@2HB 7c0b0530     instances.obj
 0002:00000530       ?min_exponent@?$numeric_limits@O@std@@2HB 7c0b0530     instances.obj
 0002:00000534       ?min_exponent10@?$numeric_limits@M@std@@2HB 7c0b0534     instances.obj
 0002:00000538       ?min_exponent@?$numeric_limits@M@std@@2HB 7c0b0538     instances.obj
 0002:0000053c       ?max_exponent10@?$numeric_limits@M@std@@2HB 7c0b053c     instances.obj
 0002:00000540       ?max_exponent@?$numeric_limits@M@std@@2HB 7c0b0540     instances.obj
 0002:00000544       ?digits10@?$numeric_limits@M@std@@2HB 7c0b0544     instances.obj
 0002:00000548       ?digits@?$numeric_limits@M@std@@2HB 7c0b0548     instances.obj
 0002:0000054c       ?digits10@?$numeric_limits@_K@std@@2HB 7c0b054c     instances.obj
 0002:00000550       ?digits@?$numeric_limits@_K@std@@2HB 7c0b0550     instances.obj
 0002:00000554       ?digits10@?$numeric_limits@_J@std@@2HB 7c0b0554     instances.obj
 0002:00000558       ?digits@?$numeric_limits@_J@std@@2HB 7c0b0558     instances.obj
 0002:0000055c       ?digits10@?$numeric_limits@I@std@@2HB 7c0b055c     instances.obj
 0002:0000055c       ?digits10@?$numeric_limits@K@std@@2HB 7c0b055c     instances.obj
 0002:0000055c       ?digits10@?$numeric_limits@J@std@@2HB 7c0b055c     instances.obj
 0002:0000055c       ?digits10@?$numeric_limits@H@std@@2HB 7c0b055c     instances.obj
 0002:00000560       ?digits@?$numeric_limits@K@std@@2HB 7c0b0560     instances.obj
 0002:00000560       ?digits@?$numeric_limits@I@std@@2HB 7c0b0560     instances.obj
 0002:00000564       ?digits@?$numeric_limits@H@std@@2HB 7c0b0564     instances.obj
 0002:00000564       ?digits@?$numeric_limits@J@std@@2HB 7c0b0564     instances.obj
 0002:00000568       ?digits10@?$numeric_limits@F@std@@2HB 7c0b0568     instances.obj
 0002:00000568       ?digits10@?$numeric_limits@G@std@@2HB 7c0b0568     instances.obj
 0002:00000568       ?digits10@?$numeric_limits@_W@std@@2HB 7c0b0568     instances.obj
 0002:0000056c       ?digits@?$numeric_limits@G@std@@2HB 7c0b056c     instances.obj
 0002:0000056c       ?digits@?$numeric_limits@_W@std@@2HB 7c0b056c     instances.obj
 0002:00000570       ?radix@_Num_float_base@std@@2HB 7c0b0570     instances.obj
 0002:00000570       ?radix@_Num_int_base@std@@2HB 7c0b0570     instances.obj
 0002:00000570       ?digits10@?$numeric_limits@E@std@@2HB 7c0b0570     instances.obj
 0002:00000570       ?digits10@?$numeric_limits@C@std@@2HB 7c0b0570     instances.obj
 0002:00000570       ?digits10@?$numeric_limits@D@std@@2HB 7c0b0570     instances.obj
 0002:00000574       ?digits@?$numeric_limits@E@std@@2HB 7c0b0574     instances.obj
 0002:00000578       ?digits@?$numeric_limits@C@std@@2HB 7c0b0578     instances.obj
 0002:00000578       ?digits@?$numeric_limits@D@std@@2HB 7c0b0578     instances.obj
 0002:0000057c       ?round_style@_Num_float_base@std@@2W4float_round_style@2@B 7c0b057c     instances.obj
 0002:0000057c       ?has_denorm@_Num_float_base@std@@2W4float_denorm_style@2@B 7c0b057c     instances.obj
 0002:0000057c       ?digits@?$numeric_limits@_N@std@@2HB 7c0b057c     instances.obj
 0002:00000580       ?is_bounded@_Num_float_base@std@@2_NB 7c0b0580     instances.obj
 0002:00000580       ?tinyness_before@_Num_float_base@std@@2_NB 7c0b0580     instances.obj
 0002:00000580       ?is_modulo@_Num_int_base@std@@2_NB 7c0b0580     instances.obj
 0002:00000580       ?is_signed@?$numeric_limits@_J@std@@2_NB 7c0b0580     instances.obj
 0002:00000580       ?has_signaling_NaN@_Num_float_base@std@@2_NB 7c0b0580     instances.obj
 0002:00000580       ?is_exact@_Num_int_base@std@@2_NB 7c0b0580     instances.obj
 0002:00000580       ?has_infinity@_Num_float_base@std@@2_NB 7c0b0580     instances.obj
 0002:00000580       ?is_specialized@_Num_int_base@std@@2_NB 7c0b0580     instances.obj
 0002:00000580       ?is_integer@_Num_int_base@std@@2_NB 7c0b0580     instances.obj
 0002:00000580       ?is_specialized@_Num_float_base@std@@2_NB 7c0b0580     instances.obj
 0002:00000580       ?has_denorm_loss@_Num_float_base@std@@2_NB 7c0b0580     instances.obj
 0002:00000580       ?is_iec559@_Num_float_base@std@@2_NB 7c0b0580     instances.obj
 0002:00000580       ?has_quiet_NaN@_Num_float_base@std@@2_NB 7c0b0580     instances.obj
 0002:00000580       ?traps@_Num_float_base@std@@2_NB 7c0b0580     instances.obj
 0002:00000580       ?is_bounded@_Num_int_base@std@@2_NB 7c0b0580     instances.obj
 0002:00000580       ?is_signed@?$numeric_limits@J@std@@2_NB 7c0b0580     instances.obj
 0002:00000580       ?is_signed@_Num_float_base@std@@2_NB 7c0b0580     instances.obj
 0002:00000580       ?is_signed@?$numeric_limits@D@std@@2_NB 7c0b0580     instances.obj
 0002:00000580       ?is_signed@?$numeric_limits@C@std@@2_NB 7c0b0580     instances.obj
 0002:00000580       ?is_signed@?$numeric_limits@H@std@@2_NB 7c0b0580     instances.obj
 0002:00000580       ?is_signed@?$numeric_limits@F@std@@2_NB 7c0b0580     instances.obj
 0002:00000581       ?is_specialized@_Num_base@std@@2_NB 7c0b0581     instances.obj
 0002:00000581       ?is_signed@?$numeric_limits@E@std@@2_NB 7c0b0581     instances.obj
 0002:00000581       ?is_exact@_Num_float_base@std@@2_NB 7c0b0581     instances.obj
 0002:00000581       ?has_quiet_NaN@_Num_base@std@@2_NB 7c0b0581     instances.obj
 0002:00000581       ?has_denorm_loss@_Num_base@std@@2_NB 7c0b0581     instances.obj
 0002:00000581       ?is_signed@?$numeric_limits@_W@std@@2_NB 7c0b0581     instances.obj
 0002:00000581       ?is_signed@?$numeric_limits@G@std@@2_NB 7c0b0581     instances.obj
 0002:00000581       ?is_exact@_Num_base@std@@2_NB 7c0b0581     instances.obj
 0002:00000581       ?is_bounded@_Num_base@std@@2_NB 7c0b0581     instances.obj
 0002:00000581       ?is_modulo@_Num_base@std@@2_NB 7c0b0581     instances.obj
 0002:00000581       ?traps@_Num_base@std@@2_NB 7c0b0581     instances.obj
 0002:00000581       ?is_signed@?$numeric_limits@_N@std@@2_NB 7c0b0581     instances.obj
 0002:00000581       ?has_infinity@_Num_base@std@@2_NB 7c0b0581     instances.obj
 0002:00000581       ?is_signed@?$numeric_limits@_K@std@@2_NB 7c0b0581     instances.obj
 0002:00000581       ?is_modulo@_Num_float_base@std@@2_NB 7c0b0581     instances.obj
 0002:00000581       ?has_signaling_NaN@_Num_base@std@@2_NB 7c0b0581     instances.obj
 0002:00000581       ?is_integer@_Num_base@std@@2_NB 7c0b0581     instances.obj
 0002:00000581       ?is_modulo@?$numeric_limits@_N@std@@2_NB 7c0b0581     instances.obj
 0002:00000581       ??_C@_00CNPNBAHC@?$AA@     7c0b0581     instances.obj
 0002:00000581       ?is_signed@_Num_base@std@@2_NB 7c0b0581     instances.obj
 0002:00000581       ?is_signed@?$numeric_limits@K@std@@2_NB 7c0b0581     instances.obj
 0002:00000581       ?is_iec559@_Num_base@std@@2_NB 7c0b0581     instances.obj
 0002:00000581       ?tinyness_before@_Num_base@std@@2_NB 7c0b0581     instances.obj
 0002:00000581       ?is_integer@_Num_float_base@std@@2_NB 7c0b0581     instances.obj
 0002:00000581       ?is_signed@?$numeric_limits@I@std@@2_NB 7c0b0581     instances.obj
 0002:00000584       ?radix@_Num_base@std@@2HB  7c0b0584     instances.obj
 0002:00000584       ?digits@_Num_base@std@@2HB 7c0b0584     instances.obj
 0002:00000584       ?digits10@_Num_base@std@@2HB 7c0b0584     instances.obj
 0002:00000584       ?min_exponent10@_Num_base@std@@2HB 7c0b0584     instances.obj
 0002:00000584       ?max_exponent@_Num_base@std@@2HB 7c0b0584     instances.obj
 0002:00000584       ?digits10@?$numeric_limits@_N@std@@2HB 7c0b0584     instances.obj
 0002:00000584       ?has_denorm@_Num_base@std@@2W4float_denorm_style@2@B 7c0b0584     instances.obj
 0002:00000584       ?max_exponent10@_Num_base@std@@2HB 7c0b0584     instances.obj
 0002:00000584       ?round_style@_Num_base@std@@2W4float_round_style@2@B 7c0b0584     instances.obj
 0002:00000584       ?min_exponent@_Num_base@std@@2HB 7c0b0584     instances.obj
 0002:00000588       __real@0000000000000000    7c0b0588     instances.obj
 0002:00000590       __real@00800000            7c0b0590     instances.obj
 0002:00000594       __real@7f7fffff            7c0b0594     instances.obj
 0002:00000598       __real@34000000            7c0b0598     instances.obj
 0002:0000059c       __real@3f000000            7c0b059c     instances.obj
 0002:000005a0       __real@0010000000000000    7c0b05a0     instances.obj
 0002:000005a8       __real@7fefffffffffffff    7c0b05a8     instances.obj
 0002:000005b0       __real@3cb0000000000000    7c0b05b0     instances.obj
 0002:000005b8       __real@3fe0000000000000    7c0b05b8     instances.obj
 0002:000005c4       ??_7messages_base@std@@6B@ 7c0b05c4     instances.obj
 0002:000005cc       ??_7money_base@std@@6B@    7c0b05cc     instances.obj
 0002:000005d4       ??_7time_base@std@@6B@     7c0b05d4     instances.obj
 0002:000005dc       ??_7?$basic_streambuf@_WU?$char_traits@_W@std@@@std@@6B@ 7c0b05dc     instances.obj
 0002:00000614       ??_7?$basic_streambuf@GU?$char_traits@G@std@@@std@@6B@ 7c0b0614     instances.obj
 0002:0000064c       ??_7?$num_get@DV?$istreambuf_iterator@DU?$char_traits@D@std@@@std@@@std@@6B@ 7c0b064c     instances.obj
 0002:00000680       ??_7?$num_put@DV?$ostreambuf_iterator@DU?$char_traits@D@std@@@std@@@std@@6B@ 7c0b0680     instances.obj
 0002:000006a8       ??_7?$num_get@_WV?$istreambuf_iterator@_WU?$char_traits@_W@std@@@std@@@std@@6B@ 7c0b06a8     instances.obj
 0002:000006dc       ??_7?$num_put@_WV?$ostreambuf_iterator@_WU?$char_traits@_W@std@@@std@@@std@@6B@ 7c0b06dc     instances.obj
 0002:00000704       ??_7?$num_get@GV?$istreambuf_iterator@GU?$char_traits@G@std@@@std@@@std@@6B@ 7c0b0704     instances.obj
 0002:00000738       ??_7?$num_put@GV?$ostreambuf_iterator@GU?$char_traits@G@std@@@std@@@std@@6B@ 7c0b0738     instances.obj
 0002:00000760       ??_7?$basic_ios@_WU?$char_traits@_W@std@@@std@@6B@ 7c0b0760     instances.obj
 0002:00000768       ??_7?$basic_ios@GU?$char_traits@G@std@@@std@@6B@ 7c0b0768     instances.obj
 0002:00000770       ??_7?$basic_ostream@_WU?$char_traits@_W@std@@@std@@6B@ 7c0b0770     instances.obj
 0002:00000774       ??_8?$basic_iostream@GU?$char_traits@G@std@@@std@@7B?$basic_ostream@GU?$char_traits@G@std@@@1@@ 7c0b0774     instances.obj
 0002:00000774       ??_8?$basic_iostream@DU?$char_traits@D@std@@@std@@7B?$basic_ostream@DU?$char_traits@D@std@@@1@@ 7c0b0774     instances.obj
 0002:00000774       ??_8?$basic_ostream@GU?$char_traits@G@std@@@std@@7B@ 7c0b0774     instances.obj
 0002:00000774       ??_8?$basic_ostream@DU?$char_traits@D@std@@@std@@7B@ 7c0b0774     cerr.obj
 0002:00000774       ??_8?$basic_iostream@_WU?$char_traits@_W@std@@@std@@7B?$basic_ostream@_WU?$char_traits@_W@std@@@1@@ 7c0b0774     instances.obj
 0002:00000774       ??_8?$basic_ostream@_WU?$char_traits@_W@std@@@std@@7B@ 7c0b0774     instances.obj
 0002:00000780       ??_7?$basic_ostream@GU?$char_traits@G@std@@@std@@6B@ 7c0b0780     instances.obj
 0002:00000788       ??_7?$basic_istream@_WU?$char_traits@_W@std@@@std@@6B@ 7c0b0788     instances.obj
 0002:0000078c       ??_8?$basic_istream@DU?$char_traits@D@std@@@std@@7B@ 7c0b078c     cin.obj
 0002:0000078c       ??_8?$basic_istream@GU?$char_traits@G@std@@@std@@7B@ 7c0b078c     instances.obj
 0002:0000078c       ??_8?$basic_istream@_WU?$char_traits@_W@std@@@std@@7B@ 7c0b078c     instances.obj
 0002:00000798       ??_7?$basic_istream@GU?$char_traits@G@std@@@std@@6B@ 7c0b0798     instances.obj
 0002:000007a0       ??_7?$basic_iostream@DU?$char_traits@D@std@@@std@@6B@ 7c0b07a0     instances.obj
 0002:000007a8       ??_7?$basic_iostream@_WU?$char_traits@_W@std@@@std@@6B@ 7c0b07a8     instances.obj
 0002:000007b0       ??_7?$basic_iostream@GU?$char_traits@G@std@@@std@@6B@ 7c0b07b0     instances.obj
 0002:000007b4       ??_C@_04MNDFEOAF@$?$CLvx?$AA@ 7c0b07b4     instances.obj
 0002:000007c0       ??_C@_0FB@MEIMBOBC@?$CLv$x?$CLv$xv$?$CLxv?$CL$xv$?$CLx?$CL$vx?$CL$vx$v?$CLx@ 7c0b07c0     instances.obj
 0002:00000818       ??_7?$time_put@DV?$ostreambuf_iterator@DU?$char_traits@D@std@@@std@@@std@@6B@ 7c0b0818     instances.obj
 0002:00000824       ??_7?$time_put@_WV?$ostreambuf_iterator@_WU?$char_traits@_W@std@@@std@@@std@@6B@ 7c0b0824     instances.obj
 0002:00000830       ??_7?$time_put@GV?$ostreambuf_iterator@GU?$char_traits@G@std@@@std@@@std@@6B@ 7c0b0830     instances.obj
 0002:00000838       __real@4003504f20000000    7c0b0838     instances.obj
 0002:00000840       __real@3e833f9de0000000    7c0b0840     instances.obj
 0002:00000848       __real@3ff6a09e60000000    7c0b0848     instances.obj
 0002:00000850       __real@4000000000000000    7c0b0850     instances.obj
 0002:00000858       __real@4010000000000000    7c0b0858     instances.obj
 0002:00000860       __real@3fd0000000000000    7c0b0860     instances.obj
 0002:00000868       __real@3ff0000000000000    7c0b0868     instances.obj
 0002:00000870       ?_Oneplusroot2low@?CA@???$_Fabs@N@std@@YANABV?$complex@N@1@PAH@Z@4NB 7c0b0870     instances.obj
 0002:00000878       ?_Root2@?CA@???$_Fabs@N@std@@YANABV?$complex@N@1@PAH@Z@4NB 7c0b0878     instances.obj
 0002:00000884       ??_7?$numpunct@D@std@@6B@  7c0b0884     instances.obj
 0002:000008a0       ??_7?$numpunct@_W@std@@6B@ 7c0b08a0     instances.obj
 0002:000008bc       ??_7?$numpunct@G@std@@6B@  7c0b08bc     instances.obj
 0002:000008d8       ??_7?$basic_filebuf@_WU?$char_traits@_W@std@@@std@@6B@ 7c0b08d8     instances.obj
 0002:00000910       ??_7?$basic_filebuf@GU?$char_traits@G@std@@@std@@6B@ 7c0b0910     instances.obj
 0002:00000948       ??_7?$messages@D@std@@6B@  7c0b0948     instances.obj
 0002:0000095c       ??_7?$messages@_W@std@@6B@ 7c0b095c     instances.obj
 0002:00000970       ??_7?$messages@G@std@@6B@  7c0b0970     instances.obj
 0002:00000984       ??_7?$_Mpunct@D@std@@6B@   7c0b0984     instances.obj
 0002:000009ac       ??_C@_01JOAMLHOP@?9?$AA@   7c0b09ac     instances.obj
 0002:000009b4       ??_7?$money_get@DV?$istreambuf_iterator@DU?$char_traits@D@std@@@std@@@std@@6B@ 7c0b09b4     instances.obj
 0002:000009c4       ??_7?$money_put@DV?$ostreambuf_iterator@DU?$char_traits@D@std@@@std@@@std@@6B@ 7c0b09c4     instances.obj
 0002:000009d4       ??_7?$_Mpunct@_W@std@@6B@  7c0b09d4     instances.obj
 0002:00000a00       ??_7?$money_get@_WV?$istreambuf_iterator@_WU?$char_traits@_W@std@@@std@@@std@@6B@ 7c0b0a00     instances.obj
 0002:00000a10       ??_7?$money_put@_WV?$ostreambuf_iterator@_WU?$char_traits@_W@std@@@std@@@std@@6B@ 7c0b0a10     instances.obj
 0002:00000a20       ??_7?$_Mpunct@G@std@@6B@   7c0b0a20     instances.obj
 0002:00000a4c       ??_7?$money_get@GV?$istreambuf_iterator@GU?$char_traits@G@std@@@std@@@std@@6B@ 7c0b0a4c     instances.obj
 0002:00000a5c       ??_7?$money_put@GV?$ostreambuf_iterator@GU?$char_traits@G@std@@@std@@@std@@6B@ 7c0b0a5c     instances.obj
 0002:00000a6c       ??_7?$time_get@DV?$istreambuf_iterator@DU?$char_traits@D@std@@@std@@@std@@6B@ 7c0b0a6c     instances.obj
 0002:00000a8c       ??_7?$time_get@_WV?$istreambuf_iterator@_WU?$char_traits@_W@std@@@std@@@std@@6B@ 7c0b0a8c     instances.obj
 0002:00000aac       ??_7?$time_get@GV?$istreambuf_iterator@GU?$char_traits@G@std@@@std@@@std@@6B@ 7c0b0aac     instances.obj
 0002:00000acc       ??_7?$collate@D@std@@6B@   7c0b0acc     instances.obj
 0002:00000ae0       ??_7?$collate@_W@std@@6B@  7c0b0ae0     instances.obj
 0002:00000af4       ??_7?$collate@G@std@@6B@   7c0b0af4     instances.obj
 0002:00000b08       __real@3fe62e4000000000    7c0b0b08     instances.obj
 0002:00000b10       __real@3eb7f7d1c0000000    7c0b0b10     instances.obj
 0002:00000b18       ?_Cl@?5???$log@N@std@@YA?AV?$complex@N@1@ABV21@@Z@4NB 7c0b0b18     instances.obj
 0002:00000b20       __real@3fdbcb7b1526e50e    7c0b0b20     instances.obj
 0002:00000b28       ??_8?$basic_iostream@GU?$char_traits@G@std@@@std@@7B?$basic_istream@GU?$char_traits@G@std@@@1@@ 7c0b0b28     instances.obj
 0002:00000b28       ??_8?$basic_iostream@_WU?$char_traits@_W@std@@@std@@7B?$basic_istream@_WU?$char_traits@_W@std@@@1@@ 7c0b0b28     instances.obj
 0002:00000b28       ??_8?$basic_iostream@DU?$char_traits@D@std@@@std@@7B?$basic_istream@DU?$char_traits@D@std@@@1@@ 7c0b0b28     instances.obj
 0002:00000b34       ??_7?$basic_stringbuf@DU?$char_traits@D@std@@V?$allocator@D@2@@std@@6B@ 7c0b0b34     instances.obj
 0002:00000b6c       ??_7?$basic_stringbuf@_WU?$char_traits@_W@std@@V?$allocator@_W@2@@std@@6B@ 7c0b0b6c     instances.obj
 0002:00000ba4       ??_7?$basic_stringbuf@GU?$char_traits@G@std@@V?$allocator@G@2@@std@@6B@ 7c0b0ba4     instances.obj
 0002:00000bdc       ??_7?$basic_istringstream@DU?$char_traits@D@std@@V?$allocator@D@2@@std@@6B@ 7c0b0bdc     instances.obj
 0002:00000be4       ??_7?$basic_istringstream@_WU?$char_traits@_W@std@@V?$allocator@_W@2@@std@@6B@ 7c0b0be4     instances.obj
 0002:00000bec       ??_7?$basic_istringstream@GU?$char_traits@G@std@@V?$allocator@G@2@@std@@6B@ 7c0b0bec     instances.obj
 0002:00000bf4       ??_7?$basic_ostringstream@DU?$char_traits@D@std@@V?$allocator@D@2@@std@@6B@ 7c0b0bf4     instances.obj
 0002:00000bfc       ??_7?$basic_ostringstream@_WU?$char_traits@_W@std@@V?$allocator@_W@2@@std@@6B@ 7c0b0bfc     instances.obj
 0002:00000c04       ??_7?$basic_ostringstream@GU?$char_traits@G@std@@V?$allocator@G@2@@std@@6B@ 7c0b0c04     instances.obj
 0002:00000c0c       ??_7?$basic_stringstream@DU?$char_traits@D@std@@V?$allocator@D@2@@std@@6B@ 7c0b0c0c     instances.obj
 0002:00000c14       ??_7?$basic_stringstream@_WU?$char_traits@_W@std@@V?$allocator@_W@2@@std@@6B@ 7c0b0c14     instances.obj
 0002:00000c1c       ??_7?$basic_stringstream@GU?$char_traits@G@std@@V?$allocator@G@2@@std@@6B@ 7c0b0c1c     instances.obj
 0002:00000c24       ??_7?$moneypunct@D$0A@@std@@6B@ 7c0b0c24     instances.obj
 0002:00000c50       ??_7?$moneypunct@_W$0A@@std@@6B@ 7c0b0c50     instances.obj
 0002:00000c7c       ??_7?$moneypunct@G$0A@@std@@6B@ 7c0b0c7c     instances.obj
 0002:00000ca4       ??_8?$basic_istringstream@DU?$char_traits@D@std@@V?$allocator@D@2@@std@@7B@ 7c0b0ca4     instances.obj
 0002:00000ca4       ??_8?$basic_istringstream@_WU?$char_traits@_W@std@@V?$allocator@_W@2@@std@@7B@ 7c0b0ca4     instances.obj
 0002:00000ca4       ??_8?$basic_istringstream@GU?$char_traits@G@std@@V?$allocator@G@2@@std@@7B@ 7c0b0ca4     instances.obj
 0002:00000cac       ??_8?$basic_stringstream@_WU?$char_traits@_W@std@@V?$allocator@_W@2@@std@@7B?$basic_ostream@_WU?$char_traits@_W@std@@@1@@ 7c0b0cac     instances.obj
 0002:00000cac       ??_8?$basic_ostringstream@GU?$char_traits@G@std@@V?$allocator@G@2@@std@@7B@ 7c0b0cac     instances.obj
 0002:00000cac       ??_8?$basic_ostringstream@_WU?$char_traits@_W@std@@V?$allocator@_W@2@@std@@7B@ 7c0b0cac     instances.obj
 0002:00000cac       ??_8?$basic_stringstream@DU?$char_traits@D@std@@V?$allocator@D@2@@std@@7B?$basic_ostream@DU?$char_traits@D@std@@@1@@ 7c0b0cac     instances.obj
 0002:00000cac       ??_8?$basic_ostringstream@DU?$char_traits@D@std@@V?$allocator@D@2@@std@@7B@ 7c0b0cac     instances.obj
 0002:00000cac       ??_8?$basic_stringstream@GU?$char_traits@G@std@@V?$allocator@G@2@@std@@7B?$basic_ostream@GU?$char_traits@G@std@@@1@@ 7c0b0cac     instances.obj
 0002:00000cb4       ??_8?$basic_stringstream@_WU?$char_traits@_W@std@@V?$allocator@_W@2@@std@@7B?$basic_istream@_WU?$char_traits@_W@std@@@1@@ 7c0b0cb4     instances.obj
 0002:00000cb4       ??_8?$basic_stringstream@GU?$char_traits@G@std@@V?$allocator@G@2@@std@@7B?$basic_istream@GU?$char_traits@G@std@@@1@@ 7c0b0cb4     instances.obj
 0002:00000cb4       ??_8?$basic_stringstream@DU?$char_traits@D@std@@V?$allocator@D@2@@std@@7B?$basic_istream@DU?$char_traits@D@std@@@1@@ 7c0b0cb4     instances.obj
 0002:00000cc0       ??_7?$moneypunct@D$00@std@@6B@ 7c0b0cc0     instances.obj
 0002:00000cec       ??_7?$moneypunct@_W$00@std@@6B@ 7c0b0cec     instances.obj
 0002:00000d18       ??_7?$moneypunct@G$00@std@@6B@ 7c0b0d18     instances.obj
 0002:00000d40       ??_C@_04IHCGILC@?$CB?$CFx?$AA?$AA@ 7c0b0d40     instances.obj
 0002:00000d48       ??_C@_0BH@HHDGIIFB@0123456789abcdefABCDEF?$AA@ 7c0b0d48     instances.obj
 0002:00000d60       ??_C@_01KGKMHCOC@e?$AA@    7c0b0d60     instances.obj
 0002:00000d64       ??_C@_01DDCIFGEA@E?$AA@    7c0b0d64     instances.obj
 0002:00000d68       ??_C@_02EAOCLKAK@ld?$AA@   7c0b0d68     instances.obj
 0002:00000d6c       ??_C@_02BDDLJJBK@lu?$AA@   7c0b0d6c     instances.obj
 0002:00000d70       ??_C@_02HIKPPMOK@Ld?$AA@   7c0b0d70     instances.obj
 0002:00000d74       ??_C@_02CLHGNPPK@Lu?$AA@   7c0b0d74     instances.obj
 0002:00000d78       __real@38aa95a5b7f87a0f    7c0b0d78     instances.obj
 0002:00000d80       __real@4202a05f20000000    7c0b0d80     instances.obj
 0002:00000d88       __real@4733426172c74d82    7c0b0d88     instances.obj
 0002:00000d90       ??_C@_02BBAHNLBA@?$CFp?$AA@ 7c0b0d90     instances.obj
 0002:00000d98       ??_7?$basic_ifstream@DU?$char_traits@D@std@@@std@@6B@ 7c0b0d98     instances.obj
 0002:00000d9c       ??_8?$basic_ifstream@_WU?$char_traits@_W@std@@@std@@7B@ 7c0b0d9c     instances.obj
 0002:00000d9c       ??_8?$basic_ifstream@GU?$char_traits@G@std@@@std@@7B@ 7c0b0d9c     instances.obj
 0002:00000d9c       ??_8?$basic_ifstream@DU?$char_traits@D@std@@@std@@7B@ 7c0b0d9c     instances.obj
 0002:00000da8       ??_7?$basic_ifstream@_WU?$char_traits@_W@std@@@std@@6B@ 7c0b0da8     instances.obj
 0002:00000db0       ??_7?$basic_ifstream@GU?$char_traits@G@std@@@std@@6B@ 7c0b0db0     instances.obj
 0002:00000db8       ??_7?$basic_ofstream@DU?$char_traits@D@std@@@std@@6B@ 7c0b0db8     instances.obj
 0002:00000dc0       ??_7?$basic_ofstream@_WU?$char_traits@_W@std@@@std@@6B@ 7c0b0dc0     instances.obj
 0002:00000dc8       ??_7?$basic_ofstream@GU?$char_traits@G@std@@@std@@6B@ 7c0b0dc8     instances.obj
 0002:00000dcc       ??_8?$basic_fstream@_WU?$char_traits@_W@std@@@std@@7B?$basic_ostream@_WU?$char_traits@_W@std@@@1@@ 7c0b0dcc     instances.obj
 0002:00000dcc       ??_8?$basic_ofstream@GU?$char_traits@G@std@@@std@@7B@ 7c0b0dcc     instances.obj
 0002:00000dcc       ??_8?$basic_ofstream@DU?$char_traits@D@std@@@std@@7B@ 7c0b0dcc     instances.obj
 0002:00000dcc       ??_8?$basic_fstream@GU?$char_traits@G@std@@@std@@7B?$basic_ostream@GU?$char_traits@G@std@@@1@@ 7c0b0dcc     instances.obj
 0002:00000dcc       ??_8strstream@std@@7B?$basic_istream@DU?$char_traits@D@std@@@1@@ 7c0b0dcc     strstrea.obj
 0002:00000dcc       ??_8?$basic_fstream@DU?$char_traits@D@std@@@std@@7B?$basic_ostream@DU?$char_traits@D@std@@@1@@ 7c0b0dcc     instances.obj
 0002:00000dcc       ??_8?$basic_ofstream@_WU?$char_traits@_W@std@@@std@@7B@ 7c0b0dcc     instances.obj
 0002:00000dd8       ??_7?$basic_fstream@DU?$char_traits@D@std@@@std@@6B@ 7c0b0dd8     instances.obj
 0002:00000ddc       ??_8?$basic_fstream@GU?$char_traits@G@std@@@std@@7B?$basic_istream@GU?$char_traits@G@std@@@1@@ 7c0b0ddc     instances.obj
 0002:00000ddc       ??_8?$basic_fstream@_WU?$char_traits@_W@std@@@std@@7B?$basic_istream@_WU?$char_traits@_W@std@@@1@@ 7c0b0ddc     instances.obj
 0002:00000ddc       ??_8?$basic_fstream@DU?$char_traits@D@std@@@std@@7B?$basic_istream@DU?$char_traits@D@std@@@1@@ 7c0b0ddc     instances.obj
 0002:00000de8       ??_7?$basic_fstream@_WU?$char_traits@_W@std@@@std@@6B@ 7c0b0de8     instances.obj
 0002:00000df0       ??_7?$basic_fstream@GU?$char_traits@G@std@@@std@@6B@ 7c0b0df0     instances.obj
 0002:00000df4       ??_C@_05NNKBBLJI@?$CF?40Lf?$AA@ 7c0b0df4     instances.obj
 0002:00000e00       ??_7runtime_error@std@@6B@ 7c0b0e00     locale.obj
 0002:00000e08       ??_C@_01NBENCBCI@?$CK?$AA@ 7c0b0e08     locale.obj
 0002:00000e10       ??_7_Locimp@locale@std@@6B@ 7c0b0e10     locale.obj
 0002:00000e14       ??_C@_0BA@ELKIONDK@bad?5locale?5name?$AA@ 7c0b0e14     locale.obj
 0002:00000e28       ??_7bad_alloc@std@@6B@     7c0b0e28     nomemory.obj
 0002:00000e34       ??_7logic_error@std@@6B@   7c0b0e34     string.obj
 0002:00000e40       ??_7length_error@std@@6B@  7c0b0e40     string.obj
 0002:00000e4c       ??_7out_of_range@std@@6B@  7c0b0e4c     string.obj
 0002:00000e54       ??_C@_0BI@CFPLBAOH@invalid?5string?5position?$AA@ 7c0b0e54     string.obj
 0002:00000e6c       ??_C@_0BA@JFNIOLAK@string?5too?5long?$AA@ 7c0b0e6c     string.obj
 0002:00000e80       ??_7strstreambuf@std@@6B@  7c0b0e80     strstrea.obj
 0002:00000eb8       ??_7istrstream@std@@6B@    7c0b0eb8     strstrea.obj
 0002:00000ec0       ??_7ostrstream@std@@6B@    7c0b0ec0     strstrea.obj
 0002:00000ec8       ??_7strstream@std@@6B@     7c0b0ec8     strstrea.obj
 0002:00000ecc       ??_8strstream@std@@7B?$basic_ostream@DU?$char_traits@D@std@@@1@@ 7c0b0ecc     strstrea.obj
 0002:00000ecc       ??_8ostrstream@std@@7B@    7c0b0ecc     strstrea.obj
 0002:00000eec       ??_C@_07FFCOENGO@toupper?$AA@ 7c0b0eec     wctrans.obj
 0002:00000ef4       ??_C@_07OJACGNH@tolower?$AA@ 7c0b0ef4     wctrans.obj
 0002:00000f60       ??_C@_06BAPHGFFK@xdigit?$AA@ 7c0b0f60     wctype.obj
 0002:00000f68       ??_C@_05NECKJAMC@upper?$AA@ 7c0b0f68     wctype.obj
 0002:00000f70       ??_C@_05OLNILLAB@space?$AA@ 7c0b0f70     wctype.obj
 0002:00000f78       ??_C@_05KOBGHFJJ@punct?$AA@ 7c0b0f78     wctype.obj
 0002:00000f80       ??_C@_05IJDJACGD@print?$AA@ 7c0b0f80     wctype.obj
 0002:00000f88       ??_C@_05IPJEPLHL@lower?$AA@ 7c0b0f88     wctype.obj
 0002:00000f90       ??_C@_05KCJBMLII@graph?$AA@ 7c0b0f90     wctype.obj
 0002:00000f98       ??_C@_05ODNOIFML@digit?$AA@ 7c0b0f98     wctype.obj
 0002:00000fa0       ??_C@_05JMDPEFNK@cntrl?$AA@ 7c0b0fa0     wctype.obj
 0002:00000fa8       ??_C@_05IAEKHIAN@alpha?$AA@ 7c0b0fa8     wctype.obj
 0002:00000fb0       ??_C@_05IIMHCHIO@alnum?$AA@ 7c0b0fb0     wctype.obj
 0002:00000fb8       ?table_size@?$ctype@D@std@@2IB 7c0b0fb8     stdcpp:locale0.obj
 0002:00000fbc       ?_BADOFF@std@@3JB          7c0b0fbc     stdcpp:ios.obj
 0002:00000fc4       ??_7failure@ios_base@std@@6B@ 7c0b0fc4     stdcpp:ios.obj
 0002:00000fcc       ??_C@_0BF@OOHOMBOF@ios_base?3?3eofbit?5set?$AA@ 7c0b0fcc     stdcpp:ios.obj
 0002:00000fe4       ??_C@_0BG@FMKFHCIL@ios_base?3?3failbit?5set?$AA@ 7c0b0fe4     stdcpp:ios.obj
 0002:00000ffc       ??_C@_0BF@PHHKMMFD@ios_base?3?3badbit?5set?$AA@ 7c0b0ffc     stdcpp:ios.obj
 0002:00001070       __real@bfe0000000000000    7c0b1070     stdcpp:xlexp.obj
 0002:00001078       __real@c0dccc8000000000    7c0b1078     stdcpp:xlexp.obj
 0002:00001080       __LDenorm                  7c0b1080     stdcpp:xlvalues.obj
 0002:00001090       __LEps                     7c0b1090     stdcpp:xlvalues.obj
 0002:000010a0       __LInf                     7c0b10a0     stdcpp:xlvalues.obj
 0002:000010b0       __LNan                     7c0b10b0     stdcpp:xlvalues.obj
 0002:000010c0       __LSnan                    7c0b10c0     stdcpp:xlvalues.obj
 0002:000010d0       __LRteps                   7c0b10d0     stdcpp:xlvalues.obj
 0002:000010e0       __LXbig                    7c0b10e0     stdcpp:xlvalues.obj
 0002:000010e8       __LZero                    7c0b10e8     stdcpp:xlvalues.obj
 0002:00001188       __real@c09cc80000000000    7c0b1188     stdcpp:xexp.obj
 0002:00001190       __Denorm                   7c0b1190     stdcpp:xvalues.obj
 0002:000011a0       __Eps                      7c0b11a0     stdcpp:xvalues.obj
 0002:000011b0       __Hugeval                  7c0b11b0     stdcpp:xvalues.obj
 0002:000011c0       __Inf                      7c0b11c0     stdcpp:xvalues.obj
 0002:000011d0       __Nan                      7c0b11d0     stdcpp:xvalues.obj
 0002:000011e0       __Snan                     7c0b11e0     stdcpp:xvalues.obj
 0002:000011f0       __Rteps                    7c0b11f0     stdcpp:xvalues.obj
 0002:00001200       __Xbig                     7c0b1200     stdcpp:xvalues.obj
 0002:00001208       __Zero                     7c0b1208     stdcpp:xvalues.obj
 0002:00001268       __real@404e0baaa0000000    7c0b1268     stdcpp:xfexp.obj
 0002:00001270       __real@405e0baaa0000000    7c0b1270     stdcpp:xfexp.obj
 0002:00001278       __real@402807c500000000    7c0b1278     stdcpp:xfexp.obj
 0002:00001280       __real@bf000000            7c0b1280     stdcpp:xfexp.obj
 0002:00001288       __real@3ff7154760000000    7c0b1288     stdcpp:xfexp.obj
 0002:00001290       __real@406ca00000000000    7c0b1290     stdcpp:xfexp.obj
 0002:00001298       __real@c06ca00000000000    7c0b1298     stdcpp:xfexp.obj
 0002:000012a0       __FDenorm                  7c0b12a0     stdcpp:xfvalues.obj
 0002:000012b0       __FEps                     7c0b12b0     stdcpp:xfvalues.obj
 0002:000012c0       __FInf                     7c0b12c0     stdcpp:xfvalues.obj
 0002:000012d0       __FNan                     7c0b12d0     stdcpp:xfvalues.obj
 0002:000012e0       __FSnan                    7c0b12e0     stdcpp:xfvalues.obj
 0002:000012f0       __FRteps                   7c0b12f0     stdcpp:xfvalues.obj
 0002:00001300       __FXbig                    7c0b1300     stdcpp:xfvalues.obj
 0002:00001304       __FZero                    7c0b1304     stdcpp:xfvalues.obj
 0002:00001318       __real@3fc5555b40000000    7c0b1318     stdcpp:xfsinh.obj
 0002:00001320       __real@3f810f3ae0000000    7c0b1320     stdcpp:xfsinh.obj
 0002:00001328       __real@3f2abd1aa0000000    7c0b1328     stdcpp:xfsinh.obj
 0002:00001330       __real@4024000000000000    7c0b1330     stdcpp:xstod.obj
 0002:0000133c       ??_7type_info@@6B@         7c0b133c     msvcrt:ti_inst.obj
 0002:00001340       __load_config_used         7c0b1340     msvcrt:loadcfg.obj
 0002:000013ac       ??_R1A@?0A@A@facet@locale@std@@8 7c0b13ac     cerr.obj
 0002:000013c4       ??_R2facet@locale@std@@8   7c0b13c4     cerr.obj
 0002:000013cc       ??_R3facet@locale@std@@8   7c0b13cc     cerr.obj
 0002:000013dc       ??_R4facet@locale@std@@6B@ 7c0b13dc     cerr.obj
 0002:000013f0       ??_R1A@?0A@A@codecvt_base@std@@8 7c0b13f0     cerr.obj
 0002:00001408       ??_R2codecvt_base@std@@8   7c0b1408     cerr.obj
 0002:00001414       ??_R3codecvt_base@std@@8   7c0b1414     cerr.obj
 0002:00001424       ??_R4codecvt_base@std@@6B@ 7c0b1424     cerr.obj
 0002:00001438       ??_R1A@?0A@A@ctype_base@std@@8 7c0b1438     cerr.obj
 0002:00001450       ??_R2ctype_base@std@@8     7c0b1450     cerr.obj
 0002:0000145c       ??_R3ctype_base@std@@8     7c0b145c     cerr.obj
 0002:0000146c       ??_R4ctype_base@std@@6B@   7c0b146c     cerr.obj
 0002:00001480       ??_R1A@?0A@A@?$ctype@_W@std@@8 7c0b1480     cerr.obj
 0002:00001498       ??_R2?$ctype@_W@std@@8     7c0b1498     cerr.obj
 0002:000014a8       ??_R3?$ctype@_W@std@@8     7c0b14a8     cerr.obj
 0002:000014b8       ??_R4?$ctype@_W@std@@6B@   7c0b14b8     cerr.obj
 0002:000014cc       ??_R1A@?0A@A@?$ctype@G@std@@8 7c0b14cc     cerr.obj
 0002:000014e4       ??_R2?$ctype@G@std@@8      7c0b14e4     cerr.obj
 0002:000014f4       ??_R3?$ctype@G@std@@8      7c0b14f4     cerr.obj
 0002:00001504       ??_R4?$ctype@G@std@@6B@    7c0b1504     cerr.obj
 0002:00001518       ??_R13?0A@A@?$_Iosb@H@std@@8 7c0b1518     cerr.obj
 0002:00001530       ??_R1A@?0A@A@ios_base@std@@8 7c0b1530     cerr.obj
 0002:00001548       ??_R2ios_base@std@@8       7c0b1548     cerr.obj
 0002:00001554       ??_R3ios_base@std@@8       7c0b1554     cerr.obj
 0002:00001564       ??_R4ios_base@std@@6B@     7c0b1564     cerr.obj
 0002:00001578       ??_R13A@3A@?$_Iosb@H@std@@8 7c0b1578     cerr.obj
 0002:00001590       ??_R1A@A@3A@ios_base@std@@8 7c0b1590     cerr.obj
 0002:000015a8       ??_R1A@A@3BA@?$basic_ios@DU?$char_traits@D@std@@@std@@8 7c0b15a8     cerr.obj
 0002:000015c0       ??_R1A@?0A@A@?$basic_ostream@DU?$char_traits@D@std@@@std@@8 7c0b15c0     cerr.obj
 0002:000015d8       ??_R2?$basic_ostream@DU?$char_traits@D@std@@@std@@8 7c0b15d8     cerr.obj
 0002:000015ec       ??_R3?$basic_ostream@DU?$char_traits@D@std@@@std@@8 7c0b15ec     cerr.obj
 0002:000015fc       ??_R4?$basic_ostream@DU?$char_traits@D@std@@@std@@6B@ 7c0b15fc     cerr.obj
 0002:00001610       ??_R1A@?0A@A@?$basic_ios@DU?$char_traits@D@std@@@std@@8 7c0b1610     cerr.obj
 0002:00001628       ??_R2?$basic_ios@DU?$char_traits@D@std@@@std@@8 7c0b1628     cerr.obj
 0002:00001638       ??_R3?$basic_ios@DU?$char_traits@D@std@@@std@@8 7c0b1638     cerr.obj
 0002:00001648       ??_R4?$basic_ios@DU?$char_traits@D@std@@@std@@6B@ 7c0b1648     cerr.obj
 0002:0000165c       ??_R1A@?0A@A@?$codecvt@_WDH@std@@8 7c0b165c     cerr.obj
 0002:00001674       ??_R2?$codecvt@_WDH@std@@8 7c0b1674     cerr.obj
 0002:00001684       ??_R3?$codecvt@_WDH@std@@8 7c0b1684     cerr.obj
 0002:00001694       ??_R4?$codecvt@_WDH@std@@6B@ 7c0b1694     cerr.obj
 0002:000016a8       ??_R1A@?0A@A@?$codecvt@GDH@std@@8 7c0b16a8     cerr.obj
 0002:000016c0       ??_R2?$codecvt@GDH@std@@8  7c0b16c0     cerr.obj
 0002:000016d0       ??_R3?$codecvt@GDH@std@@8  7c0b16d0     cerr.obj
 0002:000016e0       ??_R4?$codecvt@GDH@std@@6B@ 7c0b16e0     cerr.obj
 0002:000016f4       ??_R1A@?0A@A@?$ctype@D@std@@8 7c0b16f4     cerr.obj
 0002:0000170c       ??_R2?$ctype@D@std@@8      7c0b170c     cerr.obj
 0002:0000171c       ??_R3?$ctype@D@std@@8      7c0b171c     cerr.obj
 0002:0000172c       ??_R4?$ctype@D@std@@6B@    7c0b172c     cerr.obj
 0002:00001740       ??_R1A@?0A@A@?$basic_streambuf@DU?$char_traits@D@std@@@std@@8 7c0b1740     cerr.obj
 0002:00001758       ??_R2?$basic_streambuf@DU?$char_traits@D@std@@@std@@8 7c0b1758     cerr.obj
 0002:00001760       ??_R3?$basic_streambuf@DU?$char_traits@D@std@@@std@@8 7c0b1760     cerr.obj
 0002:00001770       ??_R4?$basic_streambuf@DU?$char_traits@D@std@@@std@@6B@ 7c0b1770     cerr.obj
 0002:00001784       ??_R1A@?0A@A@?$basic_filebuf@DU?$char_traits@D@std@@@std@@8 7c0b1784     cerr.obj
 0002:0000179c       ??_R2?$basic_filebuf@DU?$char_traits@D@std@@@std@@8 7c0b179c     cerr.obj
 0002:000017a8       ??_R3?$basic_filebuf@DU?$char_traits@D@std@@@std@@8 7c0b17a8     cerr.obj
 0002:000017b8       ??_R4?$basic_filebuf@DU?$char_traits@D@std@@@std@@6B@ 7c0b17b8     cerr.obj
 0002:000017cc       ??_R1A@?0A@A@?$codecvt@DDH@std@@8 7c0b17cc     cerr.obj
 0002:000017e4       ??_R2?$codecvt@DDH@std@@8  7c0b17e4     cerr.obj
 0002:000017f4       ??_R3?$codecvt@DDH@std@@8  7c0b17f4     cerr.obj
 0002:00001804       ??_R4?$codecvt@DDH@std@@6B@ 7c0b1804     cerr.obj
 0002:00001818       ??_R1A@?0A@A@?$basic_istream@DU?$char_traits@D@std@@@std@@8 7c0b1818     cin.obj
 0002:00001830       ??_R2?$basic_istream@DU?$char_traits@D@std@@@std@@8 7c0b1830     cin.obj
 0002:00001844       ??_R3?$basic_istream@DU?$char_traits@D@std@@@std@@8 7c0b1844     cin.obj
 0002:00001854       ??_R4?$basic_istream@DU?$char_traits@D@std@@@std@@6B@ 7c0b1854     cin.obj
 0002:00001868       ??_R1A@?0A@A@messages_base@std@@8 7c0b1868     instances.obj
 0002:00001880       ??_R2messages_base@std@@8  7c0b1880     instances.obj
 0002:0000188c       ??_R3messages_base@std@@8  7c0b188c     instances.obj
 0002:0000189c       ??_R4messages_base@std@@6B@ 7c0b189c     instances.obj
 0002:000018b0       ??_R1A@?0A@A@money_base@std@@8 7c0b18b0     instances.obj
 0002:000018c8       ??_R2money_base@std@@8     7c0b18c8     instances.obj
 0002:000018d4       ??_R3money_base@std@@8     7c0b18d4     instances.obj
 0002:000018e4       ??_R4money_base@std@@6B@   7c0b18e4     instances.obj
 0002:000018f8       ??_R1A@?0A@A@time_base@std@@8 7c0b18f8     instances.obj
 0002:00001910       ??_R2time_base@std@@8      7c0b1910     instances.obj
 0002:0000191c       ??_R3time_base@std@@8      7c0b191c     instances.obj
 0002:0000192c       ??_R4time_base@std@@6B@    7c0b192c     instances.obj
 0002:00001940       ??_R1A@?0A@A@?$basic_streambuf@_WU?$char_traits@_W@std@@@std@@8 7c0b1940     instances.obj
 0002:00001958       ??_R2?$basic_streambuf@_WU?$char_traits@_W@std@@@std@@8 7c0b1958     instances.obj
 0002:00001960       ??_R3?$basic_streambuf@_WU?$char_traits@_W@std@@@std@@8 7c0b1960     instances.obj
 0002:00001970       ??_R4?$basic_streambuf@_WU?$char_traits@_W@std@@@std@@6B@ 7c0b1970     instances.obj
 0002:00001984       ??_R1A@?0A@A@?$basic_streambuf@GU?$char_traits@G@std@@@std@@8 7c0b1984     instances.obj
 0002:0000199c       ??_R2?$basic_streambuf@GU?$char_traits@G@std@@@std@@8 7c0b199c     instances.obj
 0002:000019a4       ??_R3?$basic_streambuf@GU?$char_traits@G@std@@@std@@8 7c0b19a4     instances.obj
 0002:000019b4       ??_R4?$basic_streambuf@GU?$char_traits@G@std@@@std@@6B@ 7c0b19b4     instances.obj
 0002:000019c8       ??_R1A@?0A@A@?$num_get@DV?$istreambuf_iterator@DU?$char_traits@D@std@@@std@@@std@@8 7c0b19c8     instances.obj
 0002:000019e0       ??_R2?$num_get@DV?$istreambuf_iterator@DU?$char_traits@D@std@@@std@@@std@@8 7c0b19e0     instances.obj
 0002:000019ec       ??_R3?$num_get@DV?$istreambuf_iterator@DU?$char_traits@D@std@@@std@@@std@@8 7c0b19ec     instances.obj
 0002:000019fc       ??_R4?$num_get@DV?$istreambuf_iterator@DU?$char_traits@D@std@@@std@@@std@@6B@ 7c0b19fc     instances.obj
 0002:00001a10       ??_R1A@?0A@A@?$num_put@DV?$ostreambuf_iterator@DU?$char_traits@D@std@@@std@@@std@@8 7c0b1a10     instances.obj
 0002:00001a28       ??_R2?$num_put@DV?$ostreambuf_iterator@DU?$char_traits@D@std@@@std@@@std@@8 7c0b1a28     instances.obj
 0002:00001a34       ??_R3?$num_put@DV?$ostreambuf_iterator@DU?$char_traits@D@std@@@std@@@std@@8 7c0b1a34     instances.obj
 0002:00001a44       ??_R4?$num_put@DV?$ostreambuf_iterator@DU?$char_traits@D@std@@@std@@@std@@6B@ 7c0b1a44     instances.obj
 0002:00001a58       ??_R1A@?0A@A@?$num_get@_WV?$istreambuf_iterator@_WU?$char_traits@_W@std@@@std@@@std@@8 7c0b1a58     instances.obj
 0002:00001a70       ??_R2?$num_get@_WV?$istreambuf_iterator@_WU?$char_traits@_W@std@@@std@@@std@@8 7c0b1a70     instances.obj
 0002:00001a7c       ??_R3?$num_get@_WV?$istreambuf_iterator@_WU?$char_traits@_W@std@@@std@@@std@@8 7c0b1a7c     instances.obj
 0002:00001a8c       ??_R4?$num_get@_WV?$istreambuf_iterator@_WU?$char_traits@_W@std@@@std@@@std@@6B@ 7c0b1a8c     instances.obj
 0002:00001aa0       ??_R1A@?0A@A@?$num_put@_WV?$ostreambuf_iterator@_WU?$char_traits@_W@std@@@std@@@std@@8 7c0b1aa0     instances.obj
 0002:00001ab8       ??_R2?$num_put@_WV?$ostreambuf_iterator@_WU?$char_traits@_W@std@@@std@@@std@@8 7c0b1ab8     instances.obj
 0002:00001ac4       ??_R3?$num_put@_WV?$ostreambuf_iterator@_WU?$char_traits@_W@std@@@std@@@std@@8 7c0b1ac4     instances.obj
 0002:00001ad4       ??_R4?$num_put@_WV?$ostreambuf_iterator@_WU?$char_traits@_W@std@@@std@@@std@@6B@ 7c0b1ad4     instances.obj
 0002:00001ae8       ??_R1A@?0A@A@?$num_get@GV?$istreambuf_iterator@GU?$char_traits@G@std@@@std@@@std@@8 7c0b1ae8     instances.obj
 0002:00001b00       ??_R2?$num_get@GV?$istreambuf_iterator@GU?$char_traits@G@std@@@std@@@std@@8 7c0b1b00     instances.obj
 0002:00001b0c       ??_R3?$num_get@GV?$istreambuf_iterator@GU?$char_traits@G@std@@@std@@@std@@8 7c0b1b0c     instances.obj
 0002:00001b1c       ??_R4?$num_get@GV?$istreambuf_iterator@GU?$char_traits@G@std@@@std@@@std@@6B@ 7c0b1b1c     instances.obj
 0002:00001b30       ??_R1A@?0A@A@?$num_put@GV?$ostreambuf_iterator@GU?$char_traits@G@std@@@std@@@std@@8 7c0b1b30     instances.obj
 0002:00001b48       ??_R2?$num_put@GV?$ostreambuf_iterator@GU?$char_traits@G@std@@@std@@@std@@8 7c0b1b48     instances.obj
 0002:00001b54       ??_R3?$num_put@GV?$ostreambuf_iterator@GU?$char_traits@G@std@@@std@@@std@@8 7c0b1b54     instances.obj
 0002:00001b64       ??_R4?$num_put@GV?$ostreambuf_iterator@GU?$char_traits@G@std@@@std@@@std@@6B@ 7c0b1b64     instances.obj
 0002:00001b78       ??_R1A@?0A@A@?$basic_ios@_WU?$char_traits@_W@std@@@std@@8 7c0b1b78     instances.obj
 0002:00001b90       ??_R2?$basic_ios@_WU?$char_traits@_W@std@@@std@@8 7c0b1b90     instances.obj
 0002:00001ba0       ??_R3?$basic_ios@_WU?$char_traits@_W@std@@@std@@8 7c0b1ba0     instances.obj
 0002:00001bb0       ??_R4?$basic_ios@_WU?$char_traits@_W@std@@@std@@6B@ 7c0b1bb0     instances.obj
 0002:00001bc4       ??_R1A@?0A@A@?$basic_ios@GU?$char_traits@G@std@@@std@@8 7c0b1bc4     instances.obj
 0002:00001bdc       ??_R2?$basic_ios@GU?$char_traits@G@std@@@std@@8 7c0b1bdc     instances.obj
 0002:00001bec       ??_R3?$basic_ios@GU?$char_traits@G@std@@@std@@8 7c0b1bec     instances.obj
 0002:00001bfc       ??_R4?$basic_ios@GU?$char_traits@G@std@@@std@@6B@ 7c0b1bfc     instances.obj
 0002:00001c10       ??_R1A@A@3BA@?$basic_ios@_WU?$char_traits@_W@std@@@std@@8 7c0b1c10     instances.obj
 0002:00001c28       ??_R1A@?0A@A@?$basic_ostream@_WU?$char_traits@_W@std@@@std@@8 7c0b1c28     instances.obj
 0002:00001c40       ??_R2?$basic_ostream@_WU?$char_traits@_W@std@@@std@@8 7c0b1c40     instances.obj
 0002:00001c54       ??_R3?$basic_ostream@_WU?$char_traits@_W@std@@@std@@8 7c0b1c54     instances.obj
 0002:00001c64       ??_R4?$basic_ostream@_WU?$char_traits@_W@std@@@std@@6B@ 7c0b1c64     instances.obj
 0002:00001c78       ??_R1A@A@3BA@?$basic_ios@GU?$char_traits@G@std@@@std@@8 7c0b1c78     instances.obj
 0002:00001c90       ??_R1A@?0A@A@?$basic_ostream@GU?$char_traits@G@std@@@std@@8 7c0b1c90     instances.obj
 0002:00001ca8       ??_R2?$basic_ostream@GU?$char_traits@G@std@@@std@@8 7c0b1ca8     instances.obj
 0002:00001cbc       ??_R3?$basic_ostream@GU?$char_traits@G@std@@@std@@8 7c0b1cbc     instances.obj
 0002:00001ccc       ??_R4?$basic_ostream@GU?$char_traits@G@std@@@std@@6B@ 7c0b1ccc     instances.obj
 0002:00001ce0       ??_R1A@?0A@A@?$basic_istream@_WU?$char_traits@_W@std@@@std@@8 7c0b1ce0     instances.obj
 0002:00001cf8       ??_R2?$basic_istream@_WU?$char_traits@_W@std@@@std@@8 7c0b1cf8     instances.obj
 0002:00001d0c       ??_R3?$basic_istream@_WU?$char_traits@_W@std@@@std@@8 7c0b1d0c     instances.obj
 0002:00001d1c       ??_R4?$basic_istream@_WU?$char_traits@_W@std@@@std@@6B@ 7c0b1d1c     instances.obj
 0002:00001d30       ??_R1A@?0A@A@?$basic_istream@GU?$char_traits@G@std@@@std@@8 7c0b1d30     instances.obj
 0002:00001d48       ??_R2?$basic_istream@GU?$char_traits@G@std@@@std@@8 7c0b1d48     instances.obj
 0002:00001d5c       ??_R3?$basic_istream@GU?$char_traits@G@std@@@std@@8 7c0b1d5c     instances.obj
 0002:00001d6c       ??_R4?$basic_istream@GU?$char_traits@G@std@@@std@@6B@ 7c0b1d6c     instances.obj
 0002:00001d80       ??_R17?0A@A@?$basic_ostream@DU?$char_traits@D@std@@@std@@8 7c0b1d80     instances.obj
 0002:00001d98       ??_R1A@?0A@A@?$basic_iostream@DU?$char_traits@D@std@@@std@@8 7c0b1d98     instances.obj
 0002:00001db0       ??_R2?$basic_iostream@DU?$char_traits@D@std@@@std@@8 7c0b1db0     instances.obj
 0002:00001dd8       ??_R3?$basic_iostream@DU?$char_traits@D@std@@@std@@8 7c0b1dd8     instances.obj
 0002:00001de8       ??_R4?$basic_iostream@DU?$char_traits@D@std@@@std@@6B@ 7c0b1de8     instances.obj
 0002:00001dfc       ??_R17?0A@A@?$basic_ostream@_WU?$char_traits@_W@std@@@std@@8 7c0b1dfc     instances.obj
 0002:00001e14       ??_R1A@?0A@A@?$basic_iostream@_WU?$char_traits@_W@std@@@std@@8 7c0b1e14     instances.obj
 0002:00001e2c       ??_R2?$basic_iostream@_WU?$char_traits@_W@std@@@std@@8 7c0b1e2c     instances.obj
 0002:00001e54       ??_R3?$basic_iostream@_WU?$char_traits@_W@std@@@std@@8 7c0b1e54     instances.obj
 0002:00001e64       ??_R4?$basic_iostream@_WU?$char_traits@_W@std@@@std@@6B@ 7c0b1e64     instances.obj
 0002:00001e78       ??_R17?0A@A@?$basic_ostream@GU?$char_traits@G@std@@@std@@8 7c0b1e78     instances.obj
 0002:00001e90       ??_R1A@?0A@A@?$basic_iostream@GU?$char_traits@G@std@@@std@@8 7c0b1e90     instances.obj
 0002:00001ea8       ??_R2?$basic_iostream@GU?$char_traits@G@std@@@std@@8 7c0b1ea8     instances.obj
 0002:00001ed0       ??_R3?$basic_iostream@GU?$char_traits@G@std@@@std@@8 7c0b1ed0     instances.obj
 0002:00001ee0       ??_R4?$basic_iostream@GU?$char_traits@G@std@@@std@@6B@ 7c0b1ee0     instances.obj
 0002:00001ef4       ??_R1A@?0A@A@?$time_put@DV?$ostreambuf_iterator@DU?$char_traits@D@std@@@std@@@std@@8 7c0b1ef4     instances.obj
 0002:00001f0c       ??_R2?$time_put@DV?$ostreambuf_iterator@DU?$char_traits@D@std@@@std@@@std@@8 7c0b1f0c     instances.obj
 0002:00001f18       ??_R3?$time_put@DV?$ostreambuf_iterator@DU?$char_traits@D@std@@@std@@@std@@8 7c0b1f18     instances.obj
 0002:00001f28       ??_R4?$time_put@DV?$ostreambuf_iterator@DU?$char_traits@D@std@@@std@@@std@@6B@ 7c0b1f28     instances.obj
 0002:00001f3c       ??_R1A@?0A@A@?$time_put@_WV?$ostreambuf_iterator@_WU?$char_traits@_W@std@@@std@@@std@@8 7c0b1f3c     instances.obj
 0002:00001f54       ??_R2?$time_put@_WV?$ostreambuf_iterator@_WU?$char_traits@_W@std@@@std@@@std@@8 7c0b1f54     instances.obj
 0002:00001f60       ??_R3?$time_put@_WV?$ostreambuf_iterator@_WU?$char_traits@_W@std@@@std@@@std@@8 7c0b1f60     instances.obj
 0002:00001f70       ??_R4?$time_put@_WV?$ostreambuf_iterator@_WU?$char_traits@_W@std@@@std@@@std@@6B@ 7c0b1f70     instances.obj
 0002:00001f84       ??_R1A@?0A@A@?$time_put@GV?$ostreambuf_iterator@GU?$char_traits@G@std@@@std@@@std@@8 7c0b1f84     instances.obj
 0002:00001f9c       ??_R2?$time_put@GV?$ostreambuf_iterator@GU?$char_traits@G@std@@@std@@@std@@8 7c0b1f9c     instances.obj
 0002:00001fa8       ??_R3?$time_put@GV?$ostreambuf_iterator@GU?$char_traits@G@std@@@std@@@std@@8 7c0b1fa8     instances.obj
 0002:00001fb8       ??_R4?$time_put@GV?$ostreambuf_iterator@GU?$char_traits@G@std@@@std@@@std@@6B@ 7c0b1fb8     instances.obj
 0002:00001fcc       ??_R1A@?0A@A@?$numpunct@D@std@@8 7c0b1fcc     instances.obj
 0002:00001fe4       ??_R2?$numpunct@D@std@@8   7c0b1fe4     instances.obj
 0002:00001ff0       ??_R3?$numpunct@D@std@@8   7c0b1ff0     instances.obj
 0002:00002000       ??_R4?$numpunct@D@std@@6B@ 7c0b2000     instances.obj
 0002:00002014       ??_R1A@?0A@A@?$numpunct@_W@std@@8 7c0b2014     instances.obj
 0002:0000202c       ??_R2?$numpunct@_W@std@@8  7c0b202c     instances.obj
 0002:00002038       ??_R3?$numpunct@_W@std@@8  7c0b2038     instances.obj
 0002:00002048       ??_R4?$numpunct@_W@std@@6B@ 7c0b2048     instances.obj
 0002:0000205c       ??_R1A@?0A@A@?$numpunct@G@std@@8 7c0b205c     instances.obj
 0002:00002074       ??_R2?$numpunct@G@std@@8   7c0b2074     instances.obj
 0002:00002080       ??_R3?$numpunct@G@std@@8   7c0b2080     instances.obj
 0002:00002090       ??_R4?$numpunct@G@std@@6B@ 7c0b2090     instances.obj
 0002:000020a4       ??_R1A@?0A@A@?$basic_filebuf@_WU?$char_traits@_W@std@@@std@@8 7c0b20a4     instances.obj
 0002:000020bc       ??_R2?$basic_filebuf@_WU?$char_traits@_W@std@@@std@@8 7c0b20bc     instances.obj
 0002:000020c8       ??_R3?$basic_filebuf@_WU?$char_traits@_W@std@@@std@@8 7c0b20c8     instances.obj
 0002:000020d8       ??_R4?$basic_filebuf@_WU?$char_traits@_W@std@@@std@@6B@ 7c0b20d8     instances.obj
 0002:000020ec       ??_R1A@?0A@A@?$basic_filebuf@GU?$char_traits@G@std@@@std@@8 7c0b20ec     instances.obj
 0002:00002104       ??_R2?$basic_filebuf@GU?$char_traits@G@std@@@std@@8 7c0b2104     instances.obj
 0002:00002110       ??_R3?$basic_filebuf@GU?$char_traits@G@std@@@std@@8 7c0b2110     instances.obj
 0002:00002120       ??_R4?$basic_filebuf@GU?$char_traits@G@std@@@std@@6B@ 7c0b2120     instances.obj
 0002:00002134       ??_R1A@?0A@A@?$messages@D@std@@8 7c0b2134     instances.obj
 0002:0000214c       ??_R2?$messages@D@std@@8   7c0b214c     instances.obj
 0002:0000215c       ??_R3?$messages@D@std@@8   7c0b215c     instances.obj
 0002:0000216c       ??_R4?$messages@D@std@@6B@ 7c0b216c     instances.obj
 0002:00002180       ??_R1A@?0A@A@?$messages@_W@std@@8 7c0b2180     instances.obj
 0002:00002198       ??_R2?$messages@_W@std@@8  7c0b2198     instances.obj
 0002:000021a8       ??_R3?$messages@_W@std@@8  7c0b21a8     instances.obj
 0002:000021b8       ??_R4?$messages@_W@std@@6B@ 7c0b21b8     instances.obj
 0002:000021cc       ??_R1A@?0A@A@?$messages@G@std@@8 7c0b21cc     instances.obj
 0002:000021e4       ??_R2?$messages@G@std@@8   7c0b21e4     instances.obj
 0002:000021f4       ??_R3?$messages@G@std@@8   7c0b21f4     instances.obj
 0002:00002204       ??_R4?$messages@G@std@@6B@ 7c0b2204     instances.obj
 0002:00002218       ??_R1A@?0A@A@?$_Mpunct@D@std@@8 7c0b2218     instances.obj
 0002:00002230       ??_R2?$_Mpunct@D@std@@8    7c0b2230     instances.obj
 0002:00002240       ??_R3?$_Mpunct@D@std@@8    7c0b2240     instances.obj
 0002:00002250       ??_R4?$_Mpunct@D@std@@6B@  7c0b2250     instances.obj
 0002:00002264       ??_R1A@?0A@A@?$money_get@DV?$istreambuf_iterator@DU?$char_traits@D@std@@@std@@@std@@8 7c0b2264     instances.obj
 0002:0000227c       ??_R2?$money_get@DV?$istreambuf_iterator@DU?$char_traits@D@std@@@std@@@std@@8 7c0b227c     instances.obj
 0002:00002288       ??_R3?$money_get@DV?$istreambuf_iterator@DU?$char_traits@D@std@@@std@@@std@@8 7c0b2288     instances.obj
 0002:00002298       ??_R4?$money_get@DV?$istreambuf_iterator@DU?$char_traits@D@std@@@std@@@std@@6B@ 7c0b2298     instances.obj
 0002:000022ac       ??_R1A@?0A@A@?$money_put@DV?$ostreambuf_iterator@DU?$char_traits@D@std@@@std@@@std@@8 7c0b22ac     instances.obj
 0002:000022c4       ??_R2?$money_put@DV?$ostreambuf_iterator@DU?$char_traits@D@std@@@std@@@std@@8 7c0b22c4     instances.obj
 0002:000022d0       ??_R3?$money_put@DV?$ostreambuf_iterator@DU?$char_traits@D@std@@@std@@@std@@8 7c0b22d0     instances.obj
 0002:000022e0       ??_R4?$money_put@DV?$ostreambuf_iterator@DU?$char_traits@D@std@@@std@@@std@@6B@ 7c0b22e0     instances.obj
 0002:000022f4       ??_R1A@?0A@A@?$_Mpunct@_W@std@@8 7c0b22f4     instances.obj
 0002:0000230c       ??_R2?$_Mpunct@_W@std@@8   7c0b230c     instances.obj
 0002:0000231c       ??_R3?$_Mpunct@_W@std@@8   7c0b231c     instances.obj
 0002:0000232c       ??_R4?$_Mpunct@_W@std@@6B@ 7c0b232c     instances.obj
 0002:00002340       ??_R1A@?0A@A@?$money_get@_WV?$istreambuf_iterator@_WU?$char_traits@_W@std@@@std@@@std@@8 7c0b2340     instances.obj
 0002:00002358       ??_R2?$money_get@_WV?$istreambuf_iterator@_WU?$char_traits@_W@std@@@std@@@std@@8 7c0b2358     instances.obj
 0002:00002364       ??_R3?$money_get@_WV?$istreambuf_iterator@_WU?$char_traits@_W@std@@@std@@@std@@8 7c0b2364     instances.obj
 0002:00002374       ??_R4?$money_get@_WV?$istreambuf_iterator@_WU?$char_traits@_W@std@@@std@@@std@@6B@ 7c0b2374     instances.obj
 0002:00002388       ??_R1A@?0A@A@?$money_put@_WV?$ostreambuf_iterator@_WU?$char_traits@_W@std@@@std@@@std@@8 7c0b2388     instances.obj
 0002:000023a0       ??_R2?$money_put@_WV?$ostreambuf_iterator@_WU?$char_traits@_W@std@@@std@@@std@@8 7c0b23a0     instances.obj
 0002:000023ac       ??_R3?$money_put@_WV?$ostreambuf_iterator@_WU?$char_traits@_W@std@@@std@@@std@@8 7c0b23ac     instances.obj
 0002:000023bc       ??_R4?$money_put@_WV?$ostreambuf_iterator@_WU?$char_traits@_W@std@@@std@@@std@@6B@ 7c0b23bc     instances.obj
 0002:000023d0       ??_R1A@?0A@A@?$_Mpunct@G@std@@8 7c0b23d0     instances.obj
 0002:000023e8       ??_R2?$_Mpunct@G@std@@8    7c0b23e8     instances.obj
 0002:000023f8       ??_R3?$_Mpunct@G@std@@8    7c0b23f8     instances.obj
 0002:00002408       ??_R4?$_Mpunct@G@std@@6B@  7c0b2408     instances.obj
 0002:0000241c       ??_R1A@?0A@A@?$money_get@GV?$istreambuf_iterator@GU?$char_traits@G@std@@@std@@@std@@8 7c0b241c     instances.obj
 0002:00002434       ??_R2?$money_get@GV?$istreambuf_iterator@GU?$char_traits@G@std@@@std@@@std@@8 7c0b2434     instances.obj
 0002:00002440       ??_R3?$money_get@GV?$istreambuf_iterator@GU?$char_traits@G@std@@@std@@@std@@8 7c0b2440     instances.obj
 0002:00002450       ??_R4?$money_get@GV?$istreambuf_iterator@GU?$char_traits@G@std@@@std@@@std@@6B@ 7c0b2450     instances.obj
 0002:00002464       ??_R1A@?0A@A@?$money_put@GV?$ostreambuf_iterator@GU?$char_traits@G@std@@@std@@@std@@8 7c0b2464     instances.obj
 0002:0000247c       ??_R2?$money_put@GV?$ostreambuf_iterator@GU?$char_traits@G@std@@@std@@@std@@8 7c0b247c     instances.obj
 0002:00002488       ??_R3?$money_put@GV?$ostreambuf_iterator@GU?$char_traits@G@std@@@std@@@std@@8 7c0b2488     instances.obj
 0002:00002498       ??_R4?$money_put@GV?$ostreambuf_iterator@GU?$char_traits@G@std@@@std@@@std@@6B@ 7c0b2498     instances.obj
 0002:000024ac       ??_R1A@?0A@A@?$time_get@DV?$istreambuf_iterator@DU?$char_traits@D@std@@@std@@@std@@8 7c0b24ac     instances.obj
 0002:000024c4       ??_R2?$time_get@DV?$istreambuf_iterator@DU?$char_traits@D@std@@@std@@@std@@8 7c0b24c4     instances.obj
 0002:000024d4       ??_R3?$time_get@DV?$istreambuf_iterator@DU?$char_traits@D@std@@@std@@@std@@8 7c0b24d4     instances.obj
 0002:000024e4       ??_R4?$time_get@DV?$istreambuf_iterator@DU?$char_traits@D@std@@@std@@@std@@6B@ 7c0b24e4     instances.obj
 0002:000024f8       ??_R1A@?0A@A@?$time_get@_WV?$istreambuf_iterator@_WU?$char_traits@_W@std@@@std@@@std@@8 7c0b24f8     instances.obj
 0002:00002510       ??_R2?$time_get@_WV?$istreambuf_iterator@_WU?$char_traits@_W@std@@@std@@@std@@8 7c0b2510     instances.obj
 0002:00002520       ??_R3?$time_get@_WV?$istreambuf_iterator@_WU?$char_traits@_W@std@@@std@@@std@@8 7c0b2520     instances.obj
 0002:00002530       ??_R4?$time_get@_WV?$istreambuf_iterator@_WU?$char_traits@_W@std@@@std@@@std@@6B@ 7c0b2530     instances.obj
 0002:00002544       ??_R1A@?0A@A@?$time_get@GV?$istreambuf_iterator@GU?$char_traits@G@std@@@std@@@std@@8 7c0b2544     instances.obj
 0002:0000255c       ??_R2?$time_get@GV?$istreambuf_iterator@GU?$char_traits@G@std@@@std@@@std@@8 7c0b255c     instances.obj
 0002:0000256c       ??_R3?$time_get@GV?$istreambuf_iterator@GU?$char_traits@G@std@@@std@@@std@@8 7c0b256c     instances.obj
 0002:0000257c       ??_R4?$time_get@GV?$istreambuf_iterator@GU?$char_traits@G@std@@@std@@@std@@6B@ 7c0b257c     instances.obj
 0002:00002590       ??_R1A@?0A@A@?$collate@D@std@@8 7c0b2590     instances.obj
 0002:000025a8       ??_R2?$collate@D@std@@8    7c0b25a8     instances.obj
 0002:000025b4       ??_R3?$collate@D@std@@8    7c0b25b4     instances.obj
 0002:000025c4       ??_R4?$collate@D@std@@6B@  7c0b25c4     instances.obj
 0002:000025d8       ??_R1A@?0A@A@?$collate@_W@std@@8 7c0b25d8     instances.obj
 0002:000025f0       ??_R2?$collate@_W@std@@8   7c0b25f0     instances.obj
 0002:000025fc       ??_R3?$collate@_W@std@@8   7c0b25fc     instances.obj
 0002:0000260c       ??_R4?$collate@_W@std@@6B@ 7c0b260c     instances.obj
 0002:00002620       ??_R1A@?0A@A@?$collate@G@std@@8 7c0b2620     instances.obj
 0002:00002638       ??_R2?$collate@G@std@@8    7c0b2638     instances.obj
 0002:00002644       ??_R3?$collate@G@std@@8    7c0b2644     instances.obj
 0002:00002654       ??_R4?$collate@G@std@@6B@  7c0b2654     instances.obj
 0002:00002668       ??_R1A@?0A@A@?$basic_stringbuf@DU?$char_traits@D@std@@V?$allocator@D@2@@std@@8 7c0b2668     instances.obj
 0002:00002680       ??_R2?$basic_stringbuf@DU?$char_traits@D@std@@V?$allocator@D@2@@std@@8 7c0b2680     instances.obj
 0002:0000268c       ??_R3?$basic_stringbuf@DU?$char_traits@D@std@@V?$allocator@D@2@@std@@8 7c0b268c     instances.obj
 0002:0000269c       ??_R4?$basic_stringbuf@DU?$char_traits@D@std@@V?$allocator@D@2@@std@@6B@ 7c0b269c     instances.obj
 0002:000026b0       ??_R1A@?0A@A@?$basic_stringbuf@_WU?$char_traits@_W@std@@V?$allocator@_W@2@@std@@8 7c0b26b0     instances.obj
 0002:000026c8       ??_R2?$basic_stringbuf@_WU?$char_traits@_W@std@@V?$allocator@_W@2@@std@@8 7c0b26c8     instances.obj
 0002:000026d4       ??_R3?$basic_stringbuf@_WU?$char_traits@_W@std@@V?$allocator@_W@2@@std@@8 7c0b26d4     instances.obj
 0002:000026e4       ??_R4?$basic_stringbuf@_WU?$char_traits@_W@std@@V?$allocator@_W@2@@std@@6B@ 7c0b26e4     instances.obj
 0002:000026f8       ??_R1A@?0A@A@?$basic_stringbuf@GU?$char_traits@G@std@@V?$allocator@G@2@@std@@8 7c0b26f8     instances.obj
 0002:00002710       ??_R2?$basic_stringbuf@GU?$char_traits@G@std@@V?$allocator@G@2@@std@@8 7c0b2710     instances.obj
 0002:0000271c       ??_R3?$basic_stringbuf@GU?$char_traits@G@std@@V?$allocator@G@2@@std@@8 7c0b271c     instances.obj
 0002:0000272c       ??_R4?$basic_stringbuf@GU?$char_traits@G@std@@V?$allocator@G@2@@std@@6B@ 7c0b272c     instances.obj
 0002:00002740       ??_R1A@?0A@A@?$basic_istringstream@DU?$char_traits@D@std@@V?$allocator@D@2@@std@@8 7c0b2740     instances.obj
 0002:00002758       ??_R2?$basic_istringstream@DU?$char_traits@D@std@@V?$allocator@D@2@@std@@8 7c0b2758     instances.obj
 0002:00002770       ??_R3?$basic_istringstream@DU?$char_traits@D@std@@V?$allocator@D@2@@std@@8 7c0b2770     instances.obj
 0002:00002780       ??_R4?$basic_istringstream@DU?$char_traits@D@std@@V?$allocator@D@2@@std@@6B@ 7c0b2780     instances.obj
 0002:00002794       ??_R1A@?0A@A@?$basic_istringstream@_WU?$char_traits@_W@std@@V?$allocator@_W@2@@std@@8 7c0b2794     instances.obj
 0002:000027ac       ??_R2?$basic_istringstream@_WU?$char_traits@_W@std@@V?$allocator@_W@2@@std@@8 7c0b27ac     instances.obj
 0002:000027c4       ??_R3?$basic_istringstream@_WU?$char_traits@_W@std@@V?$allocator@_W@2@@std@@8 7c0b27c4     instances.obj
 0002:000027d4       ??_R4?$basic_istringstream@_WU?$char_traits@_W@std@@V?$allocator@_W@2@@std@@6B@ 7c0b27d4     instances.obj
 0002:000027e8       ??_R1A@?0A@A@?$basic_istringstream@GU?$char_traits@G@std@@V?$allocator@G@2@@std@@8 7c0b27e8     instances.obj
 0002:00002800       ??_R2?$basic_istringstream@GU?$char_traits@G@std@@V?$allocator@G@2@@std@@8 7c0b2800     instances.obj
 0002:00002818       ??_R3?$basic_istringstream@GU?$char_traits@G@std@@V?$allocator@G@2@@std@@8 7c0b2818     instances.obj
 0002:00002828       ??_R4?$basic_istringstream@GU?$char_traits@G@std@@V?$allocator@G@2@@std@@6B@ 7c0b2828     instances.obj
 0002:0000283c       ??_R1A@?0A@A@?$basic_ostringstream@DU?$char_traits@D@std@@V?$allocator@D@2@@std@@8 7c0b283c     instances.obj
 0002:00002854       ??_R2?$basic_ostringstream@DU?$char_traits@D@std@@V?$allocator@D@2@@std@@8 7c0b2854     instances.obj
 0002:0000286c       ??_R3?$basic_ostringstream@DU?$char_traits@D@std@@V?$allocator@D@2@@std@@8 7c0b286c     instances.obj
 0002:0000287c       ??_R4?$basic_ostringstream@DU?$char_traits@D@std@@V?$allocator@D@2@@std@@6B@ 7c0b287c     instances.obj
 0002:00002890       ??_R1A@?0A@A@?$basic_ostringstream@_WU?$char_traits@_W@std@@V?$allocator@_W@2@@std@@8 7c0b2890     instances.obj
 0002:000028a8       ??_R2?$basic_ostringstream@_WU?$char_traits@_W@std@@V?$allocator@_W@2@@std@@8 7c0b28a8     instances.obj
 0002:000028c0       ??_R3?$basic_ostringstream@_WU?$char_traits@_W@std@@V?$allocator@_W@2@@std@@8 7c0b28c0     instances.obj
 0002:000028d0       ??_R4?$basic_ostringstream@_WU?$char_traits@_W@std@@V?$allocator@_W@2@@std@@6B@ 7c0b28d0     instances.obj
 0002:000028e4       ??_R1A@?0A@A@?$basic_ostringstream@GU?$char_traits@G@std@@V?$allocator@G@2@@std@@8 7c0b28e4     instances.obj
 0002:000028fc       ??_R2?$basic_ostringstream@GU?$char_traits@G@std@@V?$allocator@G@2@@std@@8 7c0b28fc     instances.obj
 0002:00002914       ??_R3?$basic_ostringstream@GU?$char_traits@G@std@@V?$allocator@G@2@@std@@8 7c0b2914     instances.obj
 0002:00002924       ??_R4?$basic_ostringstream@GU?$char_traits@G@std@@V?$allocator@G@2@@std@@6B@ 7c0b2924     instances.obj
 0002:00002938       ??_R1A@?0A@A@?$basic_stringstream@DU?$char_traits@D@std@@V?$allocator@D@2@@std@@8 7c0b2938     instances.obj
 0002:00002950       ??_R2?$basic_stringstream@DU?$char_traits@D@std@@V?$allocator@D@2@@std@@8 7c0b2950     instances.obj
 0002:0000297c       ??_R3?$basic_stringstream@DU?$char_traits@D@std@@V?$allocator@D@2@@std@@8 7c0b297c     instances.obj
 0002:0000298c       ??_R4?$basic_stringstream@DU?$char_traits@D@std@@V?$allocator@D@2@@std@@6B@ 7c0b298c     instances.obj
 0002:000029a0       ??_R1A@?0A@A@?$basic_stringstream@_WU?$char_traits@_W@std@@V?$allocator@_W@2@@std@@8 7c0b29a0     instances.obj
 0002:000029b8       ??_R2?$basic_stringstream@_WU?$char_traits@_W@std@@V?$allocator@_W@2@@std@@8 7c0b29b8     instances.obj
 0002:000029e4       ??_R3?$basic_stringstream@_WU?$char_traits@_W@std@@V?$allocator@_W@2@@std@@8 7c0b29e4     instances.obj
 0002:000029f4       ??_R4?$basic_stringstream@_WU?$char_traits@_W@std@@V?$allocator@_W@2@@std@@6B@ 7c0b29f4     instances.obj
 0002:00002a08       ??_R1A@?0A@A@?$basic_stringstream@GU?$char_traits@G@std@@V?$allocator@G@2@@std@@8 7c0b2a08     instances.obj
 0002:00002a20       ??_R2?$basic_stringstream@GU?$char_traits@G@std@@V?$allocator@G@2@@std@@8 7c0b2a20     instances.obj
 0002:00002a4c       ??_R3?$basic_stringstream@GU?$char_traits@G@std@@V?$allocator@G@2@@std@@8 7c0b2a4c     instances.obj
 0002:00002a5c       ??_R4?$basic_stringstream@GU?$char_traits@G@std@@V?$allocator@G@2@@std@@6B@ 7c0b2a5c     instances.obj
 0002:00002a70       ??_R1A@?0A@A@?$moneypunct@D$0A@@std@@8 7c0b2a70     instances.obj
 0002:00002a88       ??_R2?$moneypunct@D$0A@@std@@8 7c0b2a88     instances.obj
 0002:00002a9c       ??_R3?$moneypunct@D$0A@@std@@8 7c0b2a9c     instances.obj
 0002:00002aac       ??_R4?$moneypunct@D$0A@@std@@6B@ 7c0b2aac     instances.obj
 0002:00002ac0       ??_R1A@?0A@A@?$moneypunct@_W$0A@@std@@8 7c0b2ac0     instances.obj
 0002:00002ad8       ??_R2?$moneypunct@_W$0A@@std@@8 7c0b2ad8     instances.obj
 0002:00002aec       ??_R3?$moneypunct@_W$0A@@std@@8 7c0b2aec     instances.obj
 0002:00002afc       ??_R4?$moneypunct@_W$0A@@std@@6B@ 7c0b2afc     instances.obj
 0002:00002b10       ??_R1A@?0A@A@?$moneypunct@G$0A@@std@@8 7c0b2b10     instances.obj
 0002:00002b28       ??_R2?$moneypunct@G$0A@@std@@8 7c0b2b28     instances.obj
 0002:00002b3c       ??_R3?$moneypunct@G$0A@@std@@8 7c0b2b3c     instances.obj
 0002:00002b4c       ??_R4?$moneypunct@G$0A@@std@@6B@ 7c0b2b4c     instances.obj
 0002:00002b60       ??_R1A@?0A@A@?$moneypunct@D$00@std@@8 7c0b2b60     instances.obj
 0002:00002b78       ??_R2?$moneypunct@D$00@std@@8 7c0b2b78     instances.obj
 0002:00002b8c       ??_R3?$moneypunct@D$00@std@@8 7c0b2b8c     instances.obj
 0002:00002b9c       ??_R4?$moneypunct@D$00@std@@6B@ 7c0b2b9c     instances.obj
 0002:00002bb0       ??_R1A@?0A@A@?$moneypunct@_W$00@std@@8 7c0b2bb0     instances.obj
 0002:00002bc8       ??_R2?$moneypunct@_W$00@std@@8 7c0b2bc8     instances.obj
 0002:00002bdc       ??_R3?$moneypunct@_W$00@std@@8 7c0b2bdc     instances.obj
 0002:00002bec       ??_R4?$moneypunct@_W$00@std@@6B@ 7c0b2bec     instances.obj
 0002:00002c00       ??_R1A@?0A@A@?$moneypunct@G$00@std@@8 7c0b2c00     instances.obj
 0002:00002c18       ??_R2?$moneypunct@G$00@std@@8 7c0b2c18     instances.obj
 0002:00002c2c       ??_R3?$moneypunct@G$00@std@@8 7c0b2c2c     instances.obj
 0002:00002c3c       ??_R4?$moneypunct@G$00@std@@6B@ 7c0b2c3c     instances.obj
 0002:00002c50       ??_R1A@?0A@A@?$basic_ifstream@DU?$char_traits@D@std@@@std@@8 7c0b2c50     instances.obj
 0002:00002c68       ??_R2?$basic_ifstream@DU?$char_traits@D@std@@@std@@8 7c0b2c68     instances.obj
 0002:00002c80       ??_R3?$basic_ifstream@DU?$char_traits@D@std@@@std@@8 7c0b2c80     instances.obj
 0002:00002c90       ??_R4?$basic_ifstream@DU?$char_traits@D@std@@@std@@6B@ 7c0b2c90     instances.obj
 0002:00002ca4       ??_R1A@?0A@A@?$basic_ifstream@_WU?$char_traits@_W@std@@@std@@8 7c0b2ca4     instances.obj
 0002:00002cbc       ??_R2?$basic_ifstream@_WU?$char_traits@_W@std@@@std@@8 7c0b2cbc     instances.obj
 0002:00002cd4       ??_R3?$basic_ifstream@_WU?$char_traits@_W@std@@@std@@8 7c0b2cd4     instances.obj
 0002:00002ce4       ??_R4?$basic_ifstream@_WU?$char_traits@_W@std@@@std@@6B@ 7c0b2ce4     instances.obj
 0002:00002cf8       ??_R1A@?0A@A@?$basic_ifstream@GU?$char_traits@G@std@@@std@@8 7c0b2cf8     instances.obj
 0002:00002d10       ??_R2?$basic_ifstream@GU?$char_traits@G@std@@@std@@8 7c0b2d10     instances.obj
 0002:00002d28       ??_R3?$basic_ifstream@GU?$char_traits@G@std@@@std@@8 7c0b2d28     instances.obj
 0002:00002d38       ??_R4?$basic_ifstream@GU?$char_traits@G@std@@@std@@6B@ 7c0b2d38     instances.obj
 0002:00002d4c       ??_R1A@?0A@A@?$basic_ofstream@DU?$char_traits@D@std@@@std@@8 7c0b2d4c     instances.obj
 0002:00002d64       ??_R2?$basic_ofstream@DU?$char_traits@D@std@@@std@@8 7c0b2d64     instances.obj
 0002:00002d7c       ??_R3?$basic_ofstream@DU?$char_traits@D@std@@@std@@8 7c0b2d7c     instances.obj
 0002:00002d8c       ??_R4?$basic_ofstream@DU?$char_traits@D@std@@@std@@6B@ 7c0b2d8c     instances.obj
 0002:00002da0       ??_R1A@?0A@A@?$basic_ofstream@_WU?$char_traits@_W@std@@@std@@8 7c0b2da0     instances.obj
 0002:00002db8       ??_R2?$basic_ofstream@_WU?$char_traits@_W@std@@@std@@8 7c0b2db8     instances.obj
 0002:00002dd0       ??_R3?$basic_ofstream@_WU?$char_traits@_W@std@@@std@@8 7c0b2dd0     instances.obj
 0002:00002de0       ??_R4?$basic_ofstream@_WU?$char_traits@_W@std@@@std@@6B@ 7c0b2de0     instances.obj
 0002:00002df4       ??_R1A@?0A@A@?$basic_ofstream@GU?$char_traits@G@std@@@std@@8 7c0b2df4     instances.obj
 0002:00002e0c       ??_R2?$basic_ofstream@GU?$char_traits@G@std@@@std@@8 7c0b2e0c     instances.obj
 0002:00002e24       ??_R3?$basic_ofstream@GU?$char_traits@G@std@@@std@@8 7c0b2e24     instances.obj
 0002:00002e34       ??_R4?$basic_ofstream@GU?$char_traits@G@std@@@std@@6B@ 7c0b2e34     instances.obj
 0002:00002e48       ??_R1A@?0A@A@?$basic_fstream@DU?$char_traits@D@std@@@std@@8 7c0b2e48     instances.obj
 0002:00002e60       ??_R2?$basic_fstream@DU?$char_traits@D@std@@@std@@8 7c0b2e60     instances.obj
 0002:00002e8c       ??_R3?$basic_fstream@DU?$char_traits@D@std@@@std@@8 7c0b2e8c     instances.obj
 0002:00002e9c       ??_R4?$basic_fstream@DU?$char_traits@D@std@@@std@@6B@ 7c0b2e9c     instances.obj
 0002:00002eb0       ??_R1A@?0A@A@?$basic_fstream@_WU?$char_traits@_W@std@@@std@@8 7c0b2eb0     instances.obj
 0002:00002ec8       ??_R2?$basic_fstream@_WU?$char_traits@_W@std@@@std@@8 7c0b2ec8     instances.obj
 0002:00002ef4       ??_R3?$basic_fstream@_WU?$char_traits@_W@std@@@std@@8 7c0b2ef4     instances.obj
 0002:00002f04       ??_R4?$basic_fstream@_WU?$char_traits@_W@std@@@std@@6B@ 7c0b2f04     instances.obj
 0002:00002f18       ??_R1A@?0A@A@?$basic_fstream@GU?$char_traits@G@std@@@std@@8 7c0b2f18     instances.obj
 0002:00002f30       ??_R2?$basic_fstream@GU?$char_traits@G@std@@@std@@8 7c0b2f30     instances.obj
 0002:00002f5c       ??_R3?$basic_fstream@GU?$char_traits@G@std@@@std@@8 7c0b2f5c     instances.obj
 0002:00002f6c       ??_R4?$basic_fstream@GU?$char_traits@G@std@@@std@@6B@ 7c0b2f6c     instances.obj
 0002:00002f80       ??_R1A@?0A@A@exception@std@@8 7c0b2f80     locale.obj
 0002:00002f98       ??_R1A@?0A@A@runtime_error@std@@8 7c0b2f98     locale.obj
 0002:00002fb0       ??_R2runtime_error@std@@8  7c0b2fb0     locale.obj
 0002:00002fbc       ??_R3runtime_error@std@@8  7c0b2fbc     locale.obj
 0002:00002fcc       ??_R4runtime_error@std@@6B@ 7c0b2fcc     locale.obj
 0002:00002fe0       ??_R1A@?0A@A@_Locimp@locale@std@@8 7c0b2fe0     locale.obj
 0002:00002ff8       ??_R2_Locimp@locale@std@@8 7c0b2ff8     locale.obj
 0002:00003004       ??_R3_Locimp@locale@std@@8 7c0b3004     locale.obj
 0002:00003014       ??_R4_Locimp@locale@std@@6B@ 7c0b3014     locale.obj
 0002:00003028       ??_R1A@?0A@A@bad_alloc@std@@8 7c0b3028     nomemory.obj
 0002:00003040       ??_R2bad_alloc@std@@8      7c0b3040     nomemory.obj
 0002:0000304c       ??_R3bad_alloc@std@@8      7c0b304c     nomemory.obj
 0002:0000305c       ??_R4bad_alloc@std@@6B@    7c0b305c     nomemory.obj
 0002:00003070       ??_R1A@?0A@A@logic_error@std@@8 7c0b3070     string.obj
 0002:00003088       ??_R2logic_error@std@@8    7c0b3088     string.obj
 0002:00003094       ??_R3logic_error@std@@8    7c0b3094     string.obj
 0002:000030a4       ??_R4logic_error@std@@6B@  7c0b30a4     string.obj
 0002:000030b8       ??_R1A@?0A@A@length_error@std@@8 7c0b30b8     string.obj
 0002:000030d0       ??_R2length_error@std@@8   7c0b30d0     string.obj
 0002:000030e0       ??_R3length_error@std@@8   7c0b30e0     string.obj
 0002:000030f0       ??_R4length_error@std@@6B@ 7c0b30f0     string.obj
 0002:00003104       ??_R1A@?0A@A@out_of_range@std@@8 7c0b3104     string.obj
 0002:0000311c       ??_R2out_of_range@std@@8   7c0b311c     string.obj
 0002:0000312c       ??_R3out_of_range@std@@8   7c0b312c     string.obj
 0002:0000313c       ??_R4out_of_range@std@@6B@ 7c0b313c     string.obj
 0002:00003150       ??_R1A@?0A@A@strstreambuf@std@@8 7c0b3150     strstrea.obj
 0002:00003168       ??_R2strstreambuf@std@@8   7c0b3168     strstrea.obj
 0002:00003174       ??_R3strstreambuf@std@@8   7c0b3174     strstrea.obj
 0002:00003184       ??_R4strstreambuf@std@@6B@ 7c0b3184     strstrea.obj
 0002:00003198       ??_R1A@?0A@A@istrstream@std@@8 7c0b3198     strstrea.obj
 0002:000031b0       ??_R2istrstream@std@@8     7c0b31b0     strstrea.obj
 0002:000031c8       ??_R3istrstream@std@@8     7c0b31c8     strstrea.obj
 0002:000031d8       ??_R4istrstream@std@@6B@   7c0b31d8     strstrea.obj
 0002:000031ec       ??_R1A@?0A@A@ostrstream@std@@8 7c0b31ec     strstrea.obj
 0002:00003204       ??_R2ostrstream@std@@8     7c0b3204     strstrea.obj
 0002:0000321c       ??_R3ostrstream@std@@8     7c0b321c     strstrea.obj
 0002:0000322c       ??_R4ostrstream@std@@6B@   7c0b322c     strstrea.obj
 0002:00003240       ??_R1A@?0A@A@strstream@std@@8 7c0b3240     strstrea.obj
 0002:00003258       ??_R2strstream@std@@8      7c0b3258     strstrea.obj
 0002:00003284       ??_R3strstream@std@@8      7c0b3284     strstrea.obj
 0002:00003294       ??_R4strstream@std@@6B@    7c0b3294     strstrea.obj
 0002:000032a8       ??_R1A@?0A@A@failure@ios_base@std@@8 7c0b32a8     stdcpp:ios.obj
 0002:000032c0       ??_R2failure@ios_base@std@@8 7c0b32c0     stdcpp:ios.obj
 0002:000032d0       ??_R3failure@ios_base@std@@8 7c0b32d0     stdcpp:ios.obj
 0002:000032e0       ??_R4failure@ios_base@std@@6B@ 7c0b32e0     stdcpp:ios.obj
 0002:000032f4       ??_R1A@?0A@A@type_info@@8  7c0b32f4     msvcrt:ti_inst.obj
 0002:0000330c       ??_R2type_info@@8          7c0b330c     msvcrt:ti_inst.obj
 0002:00003314       ??_R3type_info@@8          7c0b3314     msvcrt:ti_inst.obj
 0002:00003324       ??_R4type_info@@6B@        7c0b3324     msvcrt:ti_inst.obj
 0002:00003340       ___safe_se_handler_table   7c0b3340     <linker-defined>
 0002:0000374c       ___rtc_iaa                 7c0b374c     msvcrt:initsect.obj
 0002:00003750       ___rtc_izz                 7c0b3750     msvcrt:initsect.obj
 0002:00003754       ___rtc_taa                 7c0b3754     msvcrt:initsect.obj
 0002:00003758       ___rtc_tzz                 7c0b3758     msvcrt:initsect.obj
 0002:00003760       __CT??_R0?AVexception@std@@@8??0exception@std@@QAE@ABV01@@Z12 7c0b3760     cerr.obj
 0002:0000377c       __CT??_R0?AVbad_cast@std@@@8??0bad_cast@std@@QAE@ABV01@@Z12 7c0b377c     cerr.obj
 0002:00003798       __CTA2?AVbad_cast@std@@    7c0b3798     cerr.obj
 0002:000037a4       __TI2?AVbad_cast@std@@     7c0b37a4     cerr.obj
 0002:00007e70       __CT??_R0?AVruntime_error@std@@@8??0runtime_error@std@@QAE@ABV01@@Z40 7c0b7e70     locale.obj
 0002:00007e8c       __CTA2?AVruntime_error@std@@ 7c0b7e8c     locale.obj
 0002:00007e98       __TI2?AVruntime_error@std@@ 7c0b7e98     locale.obj
 0002:00007fb4       __CT??_R0?AVbad_alloc@std@@@8??0bad_alloc@std@@QAE@ABV01@@Z12 7c0b7fb4     nomemory.obj
 0002:00007fd0       __CTA2?AVbad_alloc@std@@   7c0b7fd0     nomemory.obj
 0002:00007fdc       __TI2?AVbad_alloc@std@@    7c0b7fdc     nomemory.obj
 0002:00007fec       __CT??_R0?AVlogic_error@std@@@8??0logic_error@std@@QAE@ABV01@@Z40 7c0b7fec     string.obj
 0002:00008008       __CT??_R0?AVout_of_range@std@@@8??0out_of_range@std@@QAE@ABV01@@Z40 7c0b8008     string.obj
 0002:00008024       __CTA3?AVout_of_range@std@@ 7c0b8024     string.obj
 0002:00008034       __TI3?AVout_of_range@std@@ 7c0b8034     string.obj
 0002:00008068       __CT??_R0?AVlength_error@std@@@8??0length_error@std@@QAE@ABV01@@Z40 7c0b8068     string.obj
 0002:00008084       __CTA3?AVlength_error@std@@ 7c0b8084     string.obj
 0002:00008094       __TI3?AVlength_error@std@@ 7c0b8094     string.obj
 0002:00008378       __CT??_R0?AVfailure@ios_base@std@@@8??0failure@ios_base@std@@QAE@ABV012@@Z40 7c0b8378     stdcpp:ios.obj
 0002:00008394       __CTA3?AVfailure@ios_base@std@@ 7c0b8394     stdcpp:ios.obj
 0002:000083a4       __TI3?AVfailure@ios_base@std@@ 7c0b83a4     stdcpp:ios.obj
 0002:0000858c       __IMPORT_DESCRIPTOR_MSVCR80 7c0b858c     msvcrt:MSVCR80.dll
 0002:000085a0       __IMPORT_DESCRIPTOR_KERNEL32 7c0b85a0     kernel32:KERNEL32.dll
 0002:000085b4       __NULL_IMPORT_DESCRIPTOR   7c0b85b4     msvcrt:MSVCR80.dll
 0003:00000000       ___xc_a                    7c0f3000     msvcrt:cinitexe.obj
 0003:000000d8       ___xc_z                    7c0f30d8     msvcrt:cinitexe.obj
 0003:000000dc       ___xi_a                    7c0f30dc     msvcrt:cinitexe.obj
 0003:000000e0       ___xi_z                    7c0f30e0     msvcrt:cinitexe.obj
 0003:000000f4       ??_R0?AVfacet@locale@std@@@8 7c0f30f4     cerr.obj
 0003:00000114       ??_R0?AVcodecvt_base@std@@@8 7c0f3114     cerr.obj
 0003:00000134       ??_R0?AUctype_base@std@@@8 7c0f3134     cerr.obj
 0003:00000154       ??_R0?AV?$ctype@_W@std@@@8 7c0f3154     cerr.obj
 0003:00000174       ??_R0?AV?$ctype@G@std@@@8  7c0f3174     cerr.obj
 0003:00000190       ??_R0?AV?$_Iosb@H@std@@@8  7c0f3190     cerr.obj
 0003:000001ac       ??_R0?AVios_base@std@@@8   7c0f31ac     cerr.obj
 0003:000001c8       ??_R0?AV?$basic_ios@DU?$char_traits@D@std@@@std@@@8 7c0f31c8     cerr.obj
 0003:00000200       ??_R0?AV?$basic_ostream@DU?$char_traits@D@std@@@std@@@8 7c0f3200     cerr.obj
 0003:0000023c       ??_R0?AV?$codecvt@_WDH@std@@@8 7c0f323c     cerr.obj
 0003:00000260       ??_R0?AV?$codecvt@GDH@std@@@8 7c0f3260     cerr.obj
 0003:00000280       ??_R0?AV?$ctype@D@std@@@8  7c0f3280     cerr.obj
 0003:0000029c       ??_R0?AV?$basic_streambuf@DU?$char_traits@D@std@@@std@@@8 7c0f329c     cerr.obj
 0003:000002d8       ??_R0?AVexception@std@@@8  7c0f32d8     cerr.obj
 0003:000002f4       ??_R0?AVbad_cast@std@@@8   7c0f32f4     cerr.obj
 0003:00000310       ??_R0?AV?$basic_filebuf@DU?$char_traits@D@std@@@std@@@8 7c0f3310     cerr.obj
 0003:0000034c       ??_R0?AV?$codecvt@DDH@std@@@8 7c0f334c     cerr.obj
 0003:00000370       ??_R0?AV?$basic_istream@DU?$char_traits@D@std@@@std@@@8 7c0f3370     cin.obj
 0003:000003f8       ??_R0?AUmessages_base@std@@@8 7c0f33f8     instances.obj
 0003:00000418       ??_R0?AUmoney_base@std@@@8 7c0f3418     instances.obj
 0003:00000438       ??_R0?AUtime_base@std@@@8  7c0f3438     instances.obj
 0003:00000454       ??_R0?AV?$basic_streambuf@_WU?$char_traits@_W@std@@@std@@@8 7c0f3454     instances.obj
 0003:00000494       ??_R0?AV?$basic_streambuf@GU?$char_traits@G@std@@@std@@@8 7c0f3494     instances.obj
 0003:000004d0       ??_R0?AV?$num_get@DV?$istreambuf_iterator@DU?$char_traits@D@std@@@std@@@std@@@8 7c0f34d0     instances.obj
 0003:00000528       ??_R0?AV?$num_put@DV?$ostreambuf_iterator@DU?$char_traits@D@std@@@std@@@std@@@8 7c0f3528     instances.obj
 0003:00000580       ??_R0?AV?$num_get@_WV?$istreambuf_iterator@_WU?$char_traits@_W@std@@@std@@@std@@@8 7c0f3580     instances.obj
 0003:000005d8       ??_R0?AV?$num_put@_WV?$ostreambuf_iterator@_WU?$char_traits@_W@std@@@std@@@std@@@8 7c0f35d8     instances.obj
 0003:00000630       ??_R0?AV?$num_get@GV?$istreambuf_iterator@GU?$char_traits@G@std@@@std@@@std@@@8 7c0f3630     instances.obj
 0003:00000688       ??_R0?AV?$num_put@GV?$ostreambuf_iterator@GU?$char_traits@G@std@@@std@@@std@@@8 7c0f3688     instances.obj
 0003:000006dc       ??_R0?AV?$basic_ios@_WU?$char_traits@_W@std@@@std@@@8 7c0f36dc     instances.obj
 0003:00000714       ??_R0?AV?$basic_ios@GU?$char_traits@G@std@@@std@@@8 7c0f3714     instances.obj
 0003:0000074c       ??_R0?AV?$basic_ostream@_WU?$char_traits@_W@std@@@std@@@8 7c0f374c     instances.obj
 0003:00000788       ??_R0?AV?$basic_ostream@GU?$char_traits@G@std@@@std@@@8 7c0f3788     instances.obj
 0003:000007c4       ??_R0?AV?$basic_istream@_WU?$char_traits@_W@std@@@std@@@8 7c0f37c4     instances.obj
 0003:00000800       ??_R0?AV?$basic_istream@GU?$char_traits@G@std@@@std@@@8 7c0f3800     instances.obj
 0003:0000083c       ??_R0?AV?$basic_iostream@DU?$char_traits@D@std@@@std@@@8 7c0f383c     instances.obj
 0003:00000878       ??_R0?AV?$basic_iostream@_WU?$char_traits@_W@std@@@std@@@8 7c0f3878     instances.obj
 0003:000008b8       ??_R0?AV?$basic_iostream@GU?$char_traits@G@std@@@std@@@8 7c0f38b8     instances.obj
 0003:000008f8       ??_R0?AV?$time_put@DV?$ostreambuf_iterator@DU?$char_traits@D@std@@@std@@@std@@@8 7c0f38f8     instances.obj
 0003:00000950       ??_R0?AV?$time_put@_WV?$ostreambuf_iterator@_WU?$char_traits@_W@std@@@std@@@std@@@8 7c0f3950     instances.obj
 0003:000009a8       ??_R0?AV?$time_put@GV?$ostreambuf_iterator@GU?$char_traits@G@std@@@std@@@std@@@8 7c0f39a8     instances.obj
 0003:000009fc       ??_R0?AV?$numpunct@D@std@@@8 7c0f39fc     instances.obj
 0003:00000a1c       ??_R0?AV?$numpunct@_W@std@@@8 7c0f3a1c     instances.obj
 0003:00000a3c       ??_R0?AV?$numpunct@G@std@@@8 7c0f3a3c     instances.obj
 0003:00000a5c       ??_R0?AV?$basic_filebuf@_WU?$char_traits@_W@std@@@std@@@8 7c0f3a5c     instances.obj
 0003:00000a98       ??_R0?AV?$basic_filebuf@GU?$char_traits@G@std@@@std@@@8 7c0f3a98     instances.obj
 0003:00000ad4       ??_R0?AV?$messages@D@std@@@8 7c0f3ad4     instances.obj
 0003:00000af4       ??_R0?AV?$messages@_W@std@@@8 7c0f3af4     instances.obj
 0003:00000b14       ??_R0?AV?$messages@G@std@@@8 7c0f3b14     instances.obj
 0003:00000b34       ??_R0?AV?$_Mpunct@D@std@@@8 7c0f3b34     instances.obj
 0003:00000b58       ??_R0?AV?$money_get@DV?$istreambuf_iterator@DU?$char_traits@D@std@@@std@@@std@@@8 7c0f3b58     instances.obj
 0003:00000bb0       ??_R0?AV?$money_put@DV?$ostreambuf_iterator@DU?$char_traits@D@std@@@std@@@std@@@8 7c0f3bb0     instances.obj
 0003:00000c04       ??_R0?AV?$_Mpunct@_W@std@@@8 7c0f3c04     instances.obj
 0003:00000c28       ??_R0?AV?$money_get@_WV?$istreambuf_iterator@_WU?$char_traits@_W@std@@@std@@@std@@@8 7c0f3c28     instances.obj
 0003:00000c80       ??_R0?AV?$money_put@_WV?$ostreambuf_iterator@_WU?$char_traits@_W@std@@@std@@@std@@@8 7c0f3c80     instances.obj
 0003:00000cd8       ??_R0?AV?$_Mpunct@G@std@@@8 7c0f3cd8     instances.obj
 0003:00000cf8       ??_R0?AV?$money_get@GV?$istreambuf_iterator@GU?$char_traits@G@std@@@std@@@std@@@8 7c0f3cf8     instances.obj
 0003:00000d50       ??_R0?AV?$money_put@GV?$ostreambuf_iterator@GU?$char_traits@G@std@@@std@@@std@@@8 7c0f3d50     instances.obj
 0003:00000da8       ??_R0?AV?$time_get@DV?$istreambuf_iterator@DU?$char_traits@D@std@@@std@@@std@@@8 7c0f3da8     instances.obj
 0003:00000e00       ??_R0?AV?$time_get@_WV?$istreambuf_iterator@_WU?$char_traits@_W@std@@@std@@@std@@@8 7c0f3e00     instances.obj
 0003:00000e58       ??_R0?AV?$time_get@GV?$istreambuf_iterator@GU?$char_traits@G@std@@@std@@@std@@@8 7c0f3e58     instances.obj
 0003:00000eac       ??_R0?AV?$collate@D@std@@@8 7c0f3eac     instances.obj
 0003:00000ecc       ??_R0?AV?$collate@_W@std@@@8 7c0f3ecc     instances.obj
 0003:00000eec       ??_R0?AV?$collate@G@std@@@8 7c0f3eec     instances.obj
 0003:00000f10       ??_R0?AV?$basic_stringbuf@DU?$char_traits@D@std@@V?$allocator@D@2@@std@@@8 7c0f3f10     instances.obj
 0003:00000f60       ??_R0?AV?$basic_stringbuf@_WU?$char_traits@_W@std@@V?$allocator@_W@2@@std@@@8 7c0f3f60     instances.obj
 0003:00000fb0       ??_R0?AV?$basic_stringbuf@GU?$char_traits@G@std@@V?$allocator@G@2@@std@@@8 7c0f3fb0     instances.obj
 0003:00001000       ??_R0?AV?$basic_istringstream@DU?$char_traits@D@std@@V?$allocator@D@2@@std@@@8 7c0f4000     instances.obj
 0003:00001058       ??_R0?AV?$basic_istringstream@_WU?$char_traits@_W@std@@V?$allocator@_W@2@@std@@@8 7c0f4058     instances.obj
 0003:000010b0       ??_R0?AV?$basic_istringstream@GU?$char_traits@G@std@@V?$allocator@G@2@@std@@@8 7c0f40b0     instances.obj
 0003:00001108       ??_R0?AV?$basic_ostringstream@DU?$char_traits@D@std@@V?$allocator@D@2@@std@@@8 7c0f4108     instances.obj
 0003:00001160       ??_R0?AV?$basic_ostringstream@_WU?$char_traits@_W@std@@V?$allocator@_W@2@@std@@@8 7c0f4160     instances.obj
 0003:000011b8       ??_R0?AV?$basic_ostringstream@GU?$char_traits@G@std@@V?$allocator@G@2@@std@@@8 7c0f41b8     instances.obj
 0003:00001210       ??_R0?AV?$basic_stringstream@DU?$char_traits@D@std@@V?$allocator@D@2@@std@@@8 7c0f4210     instances.obj
 0003:00001260       ??_R0?AV?$basic_stringstream@_WU?$char_traits@_W@std@@V?$allocator@_W@2@@std@@@8 7c0f4260     instances.obj
 0003:000012b8       ??_R0?AV?$basic_stringstream@GU?$char_traits@G@std@@V?$allocator@G@2@@std@@@8 7c0f42b8     instances.obj
 0003:00001308       ??_R0?AV?$moneypunct@D$0A@@std@@@8 7c0f4308     instances.obj
 0003:00001330       ??_R0?AV?$moneypunct@_W$0A@@std@@@8 7c0f4330     instances.obj
 0003:00001358       ??_R0?AV?$moneypunct@G$0A@@std@@@8 7c0f4358     instances.obj
 0003:00001380       ??_R0?AV?$moneypunct@D$00@std@@@8 7c0f4380     instances.obj
 0003:000013a4       ??_R0?AV?$moneypunct@_W$00@std@@@8 7c0f43a4     instances.obj
 0003:000013cc       ??_R0?AV?$moneypunct@G$00@std@@@8 7c0f43cc     instances.obj
 0003:000013f0       ??_R0?AV?$basic_ifstream@DU?$char_traits@D@std@@@std@@@8 7c0f43f0     instances.obj
 0003:0000142c       ??_R0?AV?$basic_ifstream@_WU?$char_traits@_W@std@@@std@@@8 7c0f442c     instances.obj
 0003:0000146c       ??_R0?AV?$basic_ifstream@GU?$char_traits@G@std@@@std@@@8 7c0f446c     instances.obj
 0003:000014a8       ??_R0?AV?$basic_ofstream@DU?$char_traits@D@std@@@std@@@8 7c0f44a8     instances.obj
 0003:000014e4       ??_R0?AV?$basic_ofstream@_WU?$char_traits@_W@std@@@std@@@8 7c0f44e4     instances.obj
 0003:00001524       ??_R0?AV?$basic_ofstream@GU?$char_traits@G@std@@@std@@@8 7c0f4524     instances.obj
 0003:00001560       ??_R0?AV?$basic_fstream@DU?$char_traits@D@std@@@std@@@8 7c0f4560     instances.obj
 0003:0000159c       ??_R0?AV?$basic_fstream@_WU?$char_traits@_W@std@@@std@@@8 7c0f459c     instances.obj
 0003:000015d8       ??_R0?AV?$basic_fstream@GU?$char_traits@G@std@@@std@@@8 7c0f45d8     instances.obj
 0003:00001620       ?_PJP_CPP_Copyright@@3PADA 7c0f4620     iosptrs.obj
 0003:00001680       ?_Init_cnt@Init@ios_base@std@@0HA 7c0f4680     iostream.obj
 0003:00001688       ??_R0?AVruntime_error@std@@@8 7c0f4688     locale.obj
 0003:000016a8       ??_R0?AV_Locimp@locale@std@@@8 7c0f46a8     locale.obj
 0003:000016d0       ??_R0?AVbad_alloc@std@@@8  7c0f46d0     nomemory.obj
 0003:000016f4       ??_R0?AVlogic_error@std@@@8 7c0f46f4     string.obj
 0003:00001714       ??_R0?AVlength_error@std@@@8 7c0f4714     string.obj
 0003:00001734       ??_R0?AVout_of_range@std@@@8 7c0f4734     string.obj
 0003:00001758       ??_R0?AVstrstreambuf@std@@@8 7c0f4758     strstrea.obj
 0003:00001778       ??_R0?AVistrstream@std@@@8 7c0f4778     strstrea.obj
 0003:00001798       ??_R0?AVostrstream@std@@@8 7c0f4798     strstrea.obj
 0003:000017b8       ??_R0?AVstrstream@std@@@8  7c0f47b8     strstrea.obj
 0003:000017e8       ?_Init_cnt@_UShinit@std@@0HA 7c0f47e8     ushiostr.obj
 0003:00001800       ?_Init_cnt@_Winit@std@@0HA 7c0f4800     wiostrea.obj
 0003:00001814       ?_Sync@ios_base@std@@0_NA  7c0f4814     stdcpp:ios.obj
 0003:00001818       ??_R0?AVfailure@ios_base@std@@@8 7c0f4818     stdcpp:ios.obj
 0003:0000184c       ??_R0?AVtype_info@@@8      7c0f484c     msvcrt:ti_inst.obj
 0003:00001864       ___security_cookie         7c0f4864     msvcrt:seccook.obj
 0003:00001870       ?_Stz@?$fpos@H@std@@0HA    7c0f4870     cerr.obj
 0003:00001874       ?_Psave@?$_Facetptr@V?$ctype@D@std@@@std@@2PBVfacet@locale@2@B 7c0f4874     cerr.obj
 0003:00001878       ?_Psave@?$_Facetptr@V?$ctype@_W@std@@@std@@2PBVfacet@locale@2@B 7c0f4878     cerr.obj
 0003:0000187c       ?_Psave@?$_Facetptr@V?$ctype@G@std@@@std@@2PBVfacet@locale@2@B 7c0f487c     cerr.obj
 0003:00001880       ?_Stinit@?1??_Init@?$basic_filebuf@DU?$char_traits@D@std@@@std@@IAEXPAU_iobuf@@W4_Initfl@23@@Z@4HA 7c0f4880     cerr.obj
 0003:00001884       ?_Psave@?$_Facetptr@V?$codecvt@DDH@std@@@std@@2PBVfacet@locale@2@B 7c0f4884     cerr.obj
 0003:000018e4       ?cerr@std@@3V?$basic_ostream@DU?$char_traits@D@std@@@1@A 7c0f48e4     cerr.obj
 0003:00001920       ?id@?$codecvt@DDH@std@@2V0locale@2@A 7c0f4920     cerr.obj
 0003:00001988       ?cin@std@@3V?$basic_istream@DU?$char_traits@D@std@@@1@A 7c0f4988     cin.obj
 0003:00001a2c       ?clog@std@@3V?$basic_ostream@DU?$char_traits@D@std@@@1@A 7c0f4a2c     clog.obj
 0003:00001ad0       ?cout@std@@3V?$basic_ostream@DU?$char_traits@D@std@@@1@A 7c0f4ad0     cout.obj
 0003:00001b08       ?_Stinit@?1??_Init@?$basic_filebuf@_WU?$char_traits@_W@std@@@std@@IAEXPAU_iobuf@@W4_Initfl@23@@Z@4HA 7c0f4b08     instances.obj
 0003:00001b0c       ?_Stinit@?1??_Init@?$basic_filebuf@GU?$char_traits@G@std@@@std@@IAEXPAU_iobuf@@W4_Initfl@23@@Z@4HA 7c0f4b0c     instances.obj
 0003:00001b10       ?_Psave@?$_Facetptr@V?$num_put@DV?$ostreambuf_iterator@DU?$char_traits@D@std@@@std@@@std@@@std@@2PBVfacet@locale@2@B 7c0f4b10     instances.obj
 0003:00001b14       ?_Psave@?$_Facetptr@V?$num_put@_WV?$ostreambuf_iterator@_WU?$char_traits@_W@std@@@std@@@std@@@std@@2PBVfacet@locale@2@B 7c0f4b14     instances.obj
 0003:00001b18       ?_Psave@?$_Facetptr@V?$num_put@GV?$ostreambuf_iterator@GU?$char_traits@G@std@@@std@@@std@@@std@@2PBVfacet@locale@2@B 7c0f4b18     instances.obj
 0003:00001b1c       ?_Psave@?$_Facetptr@V?$num_get@DV?$istreambuf_iterator@DU?$char_traits@D@std@@@std@@@std@@@std@@2PBVfacet@locale@2@B 7c0f4b1c     instances.obj
 0003:00001b20       ?_Psave@?$_Facetptr@V?$num_get@_WV?$istreambuf_iterator@_WU?$char_traits@_W@std@@@std@@@std@@@std@@2PBVfacet@locale@2@B 7c0f4b20     instances.obj
 0003:00001b24       ?_Psave@?$_Facetptr@V?$num_get@GV?$istreambuf_iterator@GU?$char_traits@G@std@@@std@@@std@@@std@@2PBVfacet@locale@2@B 7c0f4b24     instances.obj
 0003:00001b28       ?_Psave@?$_Facetptr@V?$codecvt@_WDH@std@@@std@@2PBVfacet@locale@2@B 7c0f4b28     instances.obj
 0003:00001b2c       ?_Psave@?$_Facetptr@V?$codecvt@GDH@std@@@std@@2PBVfacet@locale@2@B 7c0f4b2c     instances.obj
 0003:00001b30       ?_Psave@?$_Facetptr@V?$numpunct@D@std@@@std@@2PBVfacet@locale@2@B 7c0f4b30     instances.obj
 0003:00001b34       ?_Psave@?$_Facetptr@V?$numpunct@_W@std@@@std@@2PBVfacet@locale@2@B 7c0f4b34     instances.obj
 0003:00001b38       ?_Psave@?$_Facetptr@V?$numpunct@G@std@@@std@@2PBVfacet@locale@2@B 7c0f4b38     instances.obj
 0003:00001b3c       ?_Psave@?$_Facetptr@V?$moneypunct@D$0A@@std@@@std@@2PBVfacet@locale@2@B 7c0f4b3c     instances.obj
 0003:00001b40       ?_Psave@?$_Facetptr@V?$moneypunct@_W$0A@@std@@@std@@2PBVfacet@locale@2@B 7c0f4b40     instances.obj
 0003:00001b44       ?_Psave@?$_Facetptr@V?$moneypunct@G$0A@@std@@@std@@2PBVfacet@locale@2@B 7c0f4b44     instances.obj
 0003:00001b48       ?_Psave@?$_Facetptr@V?$moneypunct@D$00@std@@@std@@2PBVfacet@locale@2@B 7c0f4b48     instances.obj
 0003:00001b4c       ?_Psave@?$_Facetptr@V?$moneypunct@_W$00@std@@@std@@2PBVfacet@locale@2@B 7c0f4b4c     instances.obj
 0003:00001b50       ?_Psave@?$_Facetptr@V?$moneypunct@G$00@std@@@std@@2PBVfacet@locale@2@B 7c0f4b50     instances.obj
 0003:00001b54       ?id@?$money_get@_WV?$istreambuf_iterator@_WU?$char_traits@_W@std@@@std@@@std@@2V0locale@2@A 7c0f4b54     instances.obj
 0003:00001b58       ?id@?$num_get@_WV?$istreambuf_iterator@_WU?$char_traits@_W@std@@@std@@@std@@2V0locale@2@A 7c0f4b58     instances.obj
 0003:00001b5c       ?id@?$money_put@DV?$ostreambuf_iterator@DU?$char_traits@D@std@@@std@@@std@@2V0locale@2@A 7c0f4b5c     instances.obj
 0003:00001b60       ?id@?$money_get@GV?$istreambuf_iterator@GU?$char_traits@G@std@@@std@@@std@@2V0locale@2@A 7c0f4b60     instances.obj
 0003:00001b64       ?id@?$moneypunct@D$00@std@@2V0locale@2@A 7c0f4b64     instances.obj
 0003:00001b68       ?id@?$money_put@GV?$ostreambuf_iterator@GU?$char_traits@G@std@@@std@@@std@@2V0locale@2@A 7c0f4b68     instances.obj
 0003:00001b6c       ?id@?$time_put@GV?$ostreambuf_iterator@GU?$char_traits@G@std@@@std@@@std@@2V0locale@2@A 7c0f4b6c     instances.obj
 0003:00001b70       ?id@?$time_get@GV?$istreambuf_iterator@GU?$char_traits@G@std@@@std@@@std@@2V0locale@2@A 7c0f4b70     instances.obj
 0003:00001b74       ?id@?$num_put@_WV?$ostreambuf_iterator@_WU?$char_traits@_W@std@@@std@@@std@@2V0locale@2@A 7c0f4b74     instances.obj
 0003:00001b78       ?id@?$numpunct@G@std@@2V0locale@2@A 7c0f4b78     instances.obj
 0003:00001b7c       ?id@?$collate@D@std@@2V0locale@2@A 7c0f4b7c     instances.obj
 0003:00001b80       ?id@?$numpunct@D@std@@2V0locale@2@A 7c0f4b80     instances.obj
 0003:00001b84       ?id@?$num_get@DV?$istreambuf_iterator@DU?$char_traits@D@std@@@std@@@std@@2V0locale@2@A 7c0f4b84     instances.obj
 0003:00001b88       ?id@?$num_put@DV?$ostreambuf_iterator@DU?$char_traits@D@std@@@std@@@std@@2V0locale@2@A 7c0f4b88     instances.obj
 0003:00001b8c       ?id@?$time_get@DV?$istreambuf_iterator@DU?$char_traits@D@std@@@std@@@std@@2V0locale@2@A 7c0f4b8c     instances.obj
 0003:00001b90       ?id@?$messages@D@std@@2V0locale@2@A 7c0f4b90     instances.obj
 0003:00001b94       ?id@?$moneypunct@D$0A@@std@@2V0locale@2@A 7c0f4b94     instances.obj
 0003:00001b98       ?id@?$collate@G@std@@2V0locale@2@A 7c0f4b98     instances.obj
 0003:00001b9c       ?id@?$time_put@_WV?$ostreambuf_iterator@_WU?$char_traits@_W@std@@@std@@@std@@2V0locale@2@A 7c0f4b9c     instances.obj
 0003:00001ba0       ?id@?$messages@_W@std@@2V0locale@2@A 7c0f4ba0     instances.obj
 0003:00001ba4       ?id@?$money_put@_WV?$ostreambuf_iterator@_WU?$char_traits@_W@std@@@std@@@std@@2V0locale@2@A 7c0f4ba4     instances.obj
 0003:00001ba8       ?id@?$money_get@DV?$istreambuf_iterator@DU?$char_traits@D@std@@@std@@@std@@2V0locale@2@A 7c0f4ba8     instances.obj
 0003:00001bac       ?id@?$numpunct@_W@std@@2V0locale@2@A 7c0f4bac     instances.obj
 0003:00001bb0       ?id@?$time_get@_WV?$istreambuf_iterator@_WU?$char_traits@_W@std@@@std@@@std@@2V0locale@2@A 7c0f4bb0     instances.obj
 0003:00001bb4       ?id@?$moneypunct@G$0A@@std@@2V0locale@2@A 7c0f4bb4     instances.obj
 0003:00001bb8       ?id@?$collate@_W@std@@2V0locale@2@A 7c0f4bb8     instances.obj
 0003:00001bbc       ?id@?$messages@G@std@@2V0locale@2@A 7c0f4bbc     instances.obj
 0003:00001bc0       ?id@?$num_put@GV?$ostreambuf_iterator@GU?$char_traits@G@std@@@std@@@std@@2V0locale@2@A 7c0f4bc0     instances.obj
 0003:00001bc4       ?id@?$time_put@DV?$ostreambuf_iterator@DU?$char_traits@D@std@@@std@@@std@@2V0locale@2@A 7c0f4bc4     instances.obj
 0003:00001bc8       ?id@?$moneypunct@_W$0A@@std@@2V0locale@2@A 7c0f4bc8     instances.obj
 0003:00001bcc       ?id@?$num_get@GV?$istreambuf_iterator@GU?$char_traits@G@std@@@std@@@std@@2V0locale@2@A 7c0f4bcc     instances.obj
 0003:00001bd0       ?id@?$moneypunct@_W$00@std@@2V0locale@2@A 7c0f4bd0     instances.obj
 0003:00001bd4       ?id@?$moneypunct@G$00@std@@2V0locale@2@A 7c0f4bd4     instances.obj
 0003:00001bd8       ?_Ptr_cin@std@@3PAV?$basic_istream@DU?$char_traits@D@std@@@1@A 7c0f4bd8     iosptrs.obj
 0003:00001bdc       ?_Ptr_cout@std@@3PAV?$basic_ostream@DU?$char_traits@D@std@@@1@A 7c0f4bdc     iosptrs.obj
 0003:00001be0       ?_Ptr_cerr@std@@3PAV?$basic_ostream@DU?$char_traits@D@std@@@1@A 7c0f4be0     iosptrs.obj
 0003:00001be4       ?_Ptr_clog@std@@3PAV?$basic_ostream@DU?$char_traits@D@std@@@1@A 7c0f4be4     iosptrs.obj
 0003:00001be8       ?_Ptr_wcin@std@@3PAV?$basic_istream@_WU?$char_traits@_W@std@@@1@A 7c0f4be8     iosptrs.obj
 0003:00001bec       ?_Ptr_wcout@std@@3PAV?$basic_ostream@_WU?$char_traits@_W@std@@@1@A 7c0f4bec     iosptrs.obj
 0003:00001bf0       ?_Ptr_wcerr@std@@3PAV?$basic_ostream@_WU?$char_traits@_W@std@@@1@A 7c0f4bf0     iosptrs.obj
 0003:00001bf4       ?_Ptr_wclog@std@@3PAV?$basic_ostream@_WU?$char_traits@_W@std@@@1@A 7c0f4bf4     iosptrs.obj
 0003:00001c9c       ?wcerr@std@@3V?$basic_ostream@GU?$char_traits@G@std@@@1@A 7c0f4c9c     ushcerr.obj
 0003:00001cd8       ?wcout@std@@3V?$basic_ostream@GU?$char_traits@G@std@@@1@A 7c0f4cd8     ushcout.obj
 0003:00001ddc       ?wcin@std@@3V?$basic_istream@GU?$char_traits@G@std@@@1@A 7c0f4ddc     ushcin.obj
 0003:00001e18       ?wclog@std@@3V?$basic_ostream@GU?$char_traits@G@std@@@1@A 7c0f4e18     ushclog.obj
 0003:00001eb4       ?_Ptr_wcin@std@@3PAV?$basic_istream@GU?$char_traits@G@std@@@1@A 7c0f4eb4     ushiostr.obj
 0003:00001eb8       ?_Ptr_wcout@std@@3PAV?$basic_ostream@GU?$char_traits@G@std@@@1@A 7c0f4eb8     ushiostr.obj
 0003:00001ebc       ?_Ptr_wcerr@std@@3PAV?$basic_ostream@GU?$char_traits@G@std@@@1@A 7c0f4ebc     ushiostr.obj
 0003:00001ec0       ?_Ptr_wclog@std@@3PAV?$basic_ostream@GU?$char_traits@G@std@@@1@A 7c0f4ec0     ushiostr.obj
 0003:00001f2c       ?wcerr@std@@3V?$basic_ostream@_WU?$char_traits@_W@std@@@1@A 7c0f4f2c     wcerr.obj
 0003:00001fcc       ?wcin@std@@3V?$basic_istream@_WU?$char_traits@_W@std@@@1@A 7c0f4fcc     wcin.obj
 0003:00002008       ?wclog@std@@3V?$basic_ostream@_WU?$char_traits@_W@std@@@1@A 7c0f5008     wclog.obj
 0003:000020a8       ?wcout@std@@3V?$basic_ostream@_WU?$char_traits@_W@std@@@1@A 7c0f50a8     wcout.obj
 0003:00002144       ?mbst@?1??mbrlen@@9@9      7c0f5144     xmbtowc.obj
 0003:00002148       ?mbst@?1??mbrtowc@@9@9     7c0f5148     xmbtowc.obj
 0003:0000214c       ?mbst@?1??mbsrtowcs@@9@9   7c0f514c     xmbtowc.obj
 0003:00002158       ?_Clocptr@_Locimp@locale@std@@0PAV123@A 7c0f5158     stdcpp:locale0.obj
 0003:0000215c       ?_Id_cnt@id@locale@std@@0HA 7c0f515c     stdcpp:locale0.obj
 0003:00002160       ?id@?$codecvt@GDH@std@@2V0locale@2@A 7c0f5160     stdcpp:locale0.obj
 0003:00002164       ?id@?$ctype@_W@std@@2V0locale@2@A 7c0f5164     stdcpp:locale0.obj
 0003:00002168       ?id@?$ctype@G@std@@2V0locale@2@A 7c0f5168     stdcpp:locale0.obj
 0003:0000216c       ?id@?$ctype@D@std@@2V0locale@2@A 7c0f516c     stdcpp:locale0.obj
 0003:00002174       ?id@?$codecvt@_WDH@std@@2V0locale@2@A 7c0f5174     stdcpp:locale0.obj
 0003:000021e8       ?_Fpz@std@@3_JA            7c0f51e8     stdcpp:ios.obj
 0003:000021f0       ?_Index@ios_base@std@@0HA  7c0f51f0     stdcpp:ios.obj
 0003:0000223c       ?_Psave@?$_Facetptr@V?$collate@_W@std@@@std@@2PBVfacet@locale@2@B 7c0f523c     stdcpp:wlocale.obj
 0003:00002240       ?_Psave@?$_Facetptr@V?$messages@_W@std@@@std@@2PBVfacet@locale@2@B 7c0f5240     stdcpp:wlocale.obj
 0003:00002244       ?_Psave@?$_Facetptr@V?$money_get@_WV?$istreambuf_iterator@_WU?$char_traits@_W@std@@@std@@@std@@@std@@2PBVfacet@locale@2@B 7c0f5244     stdcpp:wlocale.obj
 0003:00002248       ?_Psave@?$_Facetptr@V?$money_put@_WV?$ostreambuf_iterator@_WU?$char_traits@_W@std@@@std@@@std@@@std@@2PBVfacet@locale@2@B 7c0f5248     stdcpp:wlocale.obj
 0003:0000224c       ?_Psave@?$_Facetptr@V?$time_put@_WV?$ostreambuf_iterator@_WU?$char_traits@_W@std@@@std@@@std@@@std@@2PBVfacet@locale@2@B 7c0f524c     stdcpp:wlocale.obj
 0003:00002250       ?_Psave@?$_Facetptr@V?$collate@G@std@@@std@@2PBVfacet@locale@2@B 7c0f5250     stdcpp:wlocale.obj
 0003:00002254       ?_Psave@?$_Facetptr@V?$messages@G@std@@@std@@2PBVfacet@locale@2@B 7c0f5254     stdcpp:wlocale.obj
 0003:00002258       ?_Psave@?$_Facetptr@V?$money_get@GV?$istreambuf_iterator@GU?$char_traits@G@std@@@std@@@std@@@std@@2PBVfacet@locale@2@B 7c0f5258     stdcpp:wlocale.obj
 0003:0000225c       ?_Psave@?$_Facetptr@V?$money_put@GV?$ostreambuf_iterator@GU?$char_traits@G@std@@@std@@@std@@@std@@2PBVfacet@locale@2@B 7c0f525c     stdcpp:wlocale.obj
 0003:00002260       ?_Psave@?$_Facetptr@V?$time_put@GV?$ostreambuf_iterator@GU?$char_traits@G@std@@@std@@@std@@@std@@2PBVfacet@locale@2@B 7c0f5260     stdcpp:wlocale.obj
 0003:00002264       ?_Psave@?$_Facetptr@V?$time_get@_WV?$istreambuf_iterator@_WU?$char_traits@_W@std@@@std@@@std@@@std@@2PBVfacet@locale@2@B 7c0f5264     stdcpp:wlocale.obj
 0003:00002268       ?_Psave@?$_Facetptr@V?$time_get@GV?$istreambuf_iterator@GU?$char_traits@G@std@@@std@@@std@@@std@@2PBVfacet@locale@2@B 7c0f5268     stdcpp:wlocale.obj
 0003:0000226c       ?_Psave@?$_Facetptr@V?$collate@D@std@@@std@@2PBVfacet@locale@2@B 7c0f526c     stdcpp:xlocale.obj
 0003:00002270       ?_Psave@?$_Facetptr@V?$messages@D@std@@@std@@2PBVfacet@locale@2@B 7c0f5270     stdcpp:xlocale.obj
 0003:00002274       ?_Psave@?$_Facetptr@V?$money_get@DV?$istreambuf_iterator@DU?$char_traits@D@std@@@std@@@std@@@std@@2PBVfacet@locale@2@B 7c0f5274     stdcpp:xlocale.obj
 0003:00002278       ?_Psave@?$_Facetptr@V?$money_put@DV?$ostreambuf_iterator@DU?$char_traits@D@std@@@std@@@std@@@std@@2PBVfacet@locale@2@B 7c0f5278     stdcpp:xlocale.obj
 0003:0000227c       ?_Psave@?$_Facetptr@V?$time_put@DV?$ostreambuf_iterator@DU?$char_traits@D@std@@@std@@@std@@@std@@2PBVfacet@locale@2@B 7c0f527c     stdcpp:xlocale.obj
 0003:00002280       ?_Psave@?$_Facetptr@V?$time_get@DV?$istreambuf_iterator@DU?$char_traits@D@std@@@std@@@std@@@std@@2PBVfacet@locale@2@B 7c0f5280     stdcpp:xlocale.obj
 0003:00002288       ?__type_info_root_node@@3U__type_info_node@@A 7c0f5288     msvcrt:tncleanup.obj
 0003:00002290       __adjust_fdiv              7c0f5290     <common>
 0003:00002294       __pRawDllMain              7c0f5294     <common>
 0003:00002298       ___onexitend               7c0f5298     <common>
 0003:0000229c       ___onexitbegin             7c0f529c     <common>

 entry point at        0001:0002bc5d

 Static symbols

 0001:00002242       __catch$?_Copy@?$basic_string@DU?$char_traits@D@std@@V?$allocator@D@2@@std@@IAEXII@Z$0 7c083242 f i cerr.obj
 0001:000022b6       __catch$?_Copy@?$basic_string@DU?$char_traits@D@std@@V?$allocator@D@2@@std@@IAEXII@Z$1 7c0832b6 f i cerr.obj
 0001:0000247a       __catch$?_Ipfx@?$basic_istream@DU?$char_traits@D@std@@@std@@QAE_N_N@Z$0 7c08347a f i cerr.obj
 0001:000025ec       __catch$?_Ipfx@?$basic_istream@_WU?$char_traits@_W@std@@@std@@QAE_N_N@Z$0 7c0835ec f i cerr.obj
 0001:0000270b       __catch$?_Ipfx@?$basic_istream@GU?$char_traits@G@std@@@std@@QAE_N_N@Z$0 7c08370b f i cerr.obj
 0001:00003bff       __catch$?ws@std@@YAAAV?$basic_istream@DU?$char_traits@D@std@@@1@AAV21@@Z$0 7c084bff f i cerr.obj
 0001:00003cf9       __catch$?ws@std@@YAAAV?$basic_istream@_WU?$char_traits@_W@std@@@1@AAV21@@Z$0 7c084cf9 f i cerr.obj
 0001:00003df3       __catch$?ws@std@@YAAAV?$basic_istream@GU?$char_traits@G@std@@@1@AAV21@@Z$0 7c084df3 f i cerr.obj
 0001:000041ee       __catch$?put@?$basic_ostream@DU?$char_traits@D@std@@@std@@QAEAAV12@D@Z$0 7c0851ee f i cerr.obj
 0001:00004295       __catch$?put@?$basic_ostream@_WU?$char_traits@_W@std@@@std@@QAEAAV12@_W@Z$0 7c085295 f i cerr.obj
 0001:00004295       __catch$?put@?$basic_ostream@GU?$char_traits@G@std@@@std@@QAEAAV12@G@Z$0 7c085295 f i cerr.obj
 0001:000081e1       __catch$?_Init@?$numpunct@D@std@@IAEXABV_Locinfo@2@@Z$0 7c0891e1 f i instances.obj
 0001:0000841c       __catch$?_Init@?$numpunct@G@std@@IAEXABV_Locinfo@2@@Z$0 7c08941c f i instances.obj
 0001:0000841c       __catch$?_Init@?$numpunct@_W@std@@IAEXABV_Locinfo@2@@Z$0 7c08941c f i instances.obj
 0001:00008f3b       __catch$?_Init@?$_Mpunct@D@std@@IAEXABV_Locinfo@2@@Z$0 7c089f3b f i instances.obj
 0001:000093bc       __catch$?_Init@?$_Mpunct@G@std@@IAEXABV_Locinfo@2@@Z$0 7c08a3bc f i instances.obj
 0001:000093bc       __catch$?_Init@?$_Mpunct@_W@std@@IAEXABV_Locinfo@2@@Z$0 7c08a3bc f i instances.obj
 0001:00009cfc       __catch$??$?6U?$char_traits@D@std@@@std@@YAAAV?$basic_ostream@DU?$char_traits@D@std@@@0@AAV10@PBD@Z$0 7c08acfc f i instances.obj
 0001:00009e28       __catch$??$?6U?$char_traits@D@std@@@std@@YAAAV?$basic_ostream@DU?$char_traits@D@std@@@0@AAV10@D@Z$0 7c08ae28 f i instances.obj
 0001:00009f83       __catch$??$?6GU?$char_traits@G@std@@@std@@YAAAV?$basic_ostream@GU?$char_traits@G@std@@@0@AAV10@PBG@Z$0 7c08af83 f i instances.obj
 0001:00009f83       __catch$??$?6_WU?$char_traits@_W@std@@@std@@YAAAV?$basic_ostream@_WU?$char_traits@_W@std@@@0@AAV10@PB_W@Z$0 7c08af83 f i instances.obj
 0001:0000a0b3       __catch$??$?6_WU?$char_traits@_W@std@@@std@@YAAAV?$basic_ostream@_WU?$char_traits@_W@std@@@0@AAV10@_W@Z$0 7c08b0b3 f i instances.obj
 0001:0000a0b3       __catch$??$?6GU?$char_traits@G@std@@@std@@YAAAV?$basic_ostream@GU?$char_traits@G@std@@@0@AAV10@G@Z$0 7c08b0b3 f i instances.obj
 0001:0000a224       __catch$??$?6DU?$char_traits@D@std@@V?$allocator@D@1@@std@@YAAAV?$basic_ostream@DU?$char_traits@D@std@@@0@AAV10@ABV?$basic_string@DU?$char_traits@D@std@@V?$allocator@D@2@@0@@Z$0 7c08b224 f i instances.obj
 0001:0000a38f       __catch$??$?6GU?$char_traits@G@std@@V?$allocator@G@1@@std@@YAAAV?$basic_ostream@GU?$char_traits@G@std@@@0@AAV10@ABV?$basic_string@GU?$char_traits@G@std@@V?$allocator@G@2@@0@@Z$0 7c08b38f f i instances.obj
 0001:0000a38f       __catch$??$?6_WU?$char_traits@_W@std@@V?$allocator@_W@1@@std@@YAAAV?$basic_ostream@_WU?$char_traits@_W@std@@@0@AAV10@ABV?$basic_string@_WU?$char_traits@_W@std@@V?$allocator@_W@2@@0@@Z$0 7c08b38f f i instances.obj
 0001:0000c914       __catch$?_Copy@?$basic_string@GU?$char_traits@G@std@@V?$allocator@G@2@@std@@IAEXII@Z$0 7c08d914 f i instances.obj
 0001:0000c914       __catch$?_Copy@?$basic_string@_WU?$char_traits@_W@std@@V?$allocator@_W@2@@std@@IAEXII@Z$0 7c08d914 f i instances.obj
 0001:0000c98b       __catch$?_Copy@?$basic_string@_WU?$char_traits@_W@std@@V?$allocator@_W@2@@std@@IAEXII@Z$1 7c08d98b f i instances.obj
 0001:0000c98b       __catch$?_Copy@?$basic_string@GU?$char_traits@G@std@@V?$allocator@G@2@@std@@IAEXII@Z$1 7c08d98b f i instances.obj
 0001:0000d053       __catch$??6?$basic_ostream@DU?$char_traits@D@std@@@std@@QAEAAV01@_N@Z$0 7c08e053 f i instances.obj
 0001:0000d15d       __catch$??6?$basic_ostream@DU?$char_traits@D@std@@@std@@QAEAAV01@F@Z$0 7c08e15d f i instances.obj
 0001:0000d247       __catch$??6?$basic_ostream@DU?$char_traits@D@std@@@std@@QAEAAV01@G@Z$0 7c08e247 f i instances.obj
 0001:0000d32f       __catch$??6?$basic_ostream@DU?$char_traits@D@std@@@std@@QAEAAV01@J@Z$0 7c08e32f f i instances.obj
 0001:0000d32f       __catch$??6?$basic_ostream@DU?$char_traits@D@std@@@std@@QAEAAV01@H@Z$0 7c08e32f f i instances.obj
 0001:0000d417       __catch$??6?$basic_ostream@DU?$char_traits@D@std@@@std@@QAEAAV01@I@Z$0 7c08e417 f i instances.obj
 0001:0000d417       __catch$??6?$basic_ostream@DU?$char_traits@D@std@@@std@@QAEAAV01@K@Z$0 7c08e417 f i instances.obj
 0001:0000d502       __catch$??6?$basic_ostream@DU?$char_traits@D@std@@@std@@QAEAAV01@_J@Z$0 7c08e502 f i instances.obj
 0001:0000d5ed       __catch$??6?$basic_ostream@DU?$char_traits@D@std@@@std@@QAEAAV01@_K@Z$0 7c08e5ed f i instances.obj
 0001:0000d6da       __catch$??6?$basic_ostream@DU?$char_traits@D@std@@@std@@QAEAAV01@M@Z$0 7c08e6da f i instances.obj
 0001:0000d7c7       __catch$??6?$basic_ostream@DU?$char_traits@D@std@@@std@@QAEAAV01@N@Z$0 7c08e7c7 f i instances.obj
 0001:0000d8b4       __catch$??6?$basic_ostream@DU?$char_traits@D@std@@@std@@QAEAAV01@O@Z$0 7c08e8b4 f i instances.obj
 0001:0000d99c       __catch$??6?$basic_ostream@DU?$char_traits@D@std@@@std@@QAEAAV01@PBX@Z$0 7c08e99c f i instances.obj
 0001:0000dab2       __catch$??6?$basic_ostream@DU?$char_traits@D@std@@@std@@QAEAAV01@PAV?$basic_streambuf@DU?$char_traits@D@std@@@1@@Z$2 7c08eab2 f i instances.obj
 0001:0000dae1       __catch$??6?$basic_ostream@DU?$char_traits@D@std@@@std@@QAEAAV01@PAV?$basic_streambuf@DU?$char_traits@D@std@@@1@@Z$0 7c08eae1 f i instances.obj
 0001:0000dbf3       __catch$??6?$basic_ostream@_WU?$char_traits@_W@std@@@std@@QAEAAV01@_N@Z$0 7c08ebf3 f i instances.obj
 0001:0000dcf9       __catch$??6?$basic_ostream@_WU?$char_traits@_W@std@@@std@@QAEAAV01@F@Z$0 7c08ecf9 f i instances.obj
 0001:0000dde0       __catch$??6?$basic_ostream@_WU?$char_traits@_W@std@@@std@@QAEAAV01@G@Z$0 7c08ede0 f i instances.obj
 0001:0000dec4       __catch$??6?$basic_ostream@_WU?$char_traits@_W@std@@@std@@QAEAAV01@H@Z$0 7c08eec4 f i instances.obj
 0001:0000dec4       __catch$??6?$basic_ostream@_WU?$char_traits@_W@std@@@std@@QAEAAV01@J@Z$0 7c08eec4 f i instances.obj
 0001:0000dfa8       __catch$??6?$basic_ostream@_WU?$char_traits@_W@std@@@std@@QAEAAV01@I@Z$0 7c08efa8 f i instances.obj
 0001:0000dfa8       __catch$??6?$basic_ostream@_WU?$char_traits@_W@std@@@std@@QAEAAV01@K@Z$0 7c08efa8 f i instances.obj
 0001:0000e08f       __catch$??6?$basic_ostream@_WU?$char_traits@_W@std@@@std@@QAEAAV01@_J@Z$0 7c08f08f f i instances.obj
 0001:0000e176       __catch$??6?$basic_ostream@_WU?$char_traits@_W@std@@@std@@QAEAAV01@_K@Z$0 7c08f176 f i instances.obj
 0001:0000e25f       __catch$??6?$basic_ostream@_WU?$char_traits@_W@std@@@std@@QAEAAV01@M@Z$0 7c08f25f f i instances.obj
 0001:0000e348       __catch$??6?$basic_ostream@_WU?$char_traits@_W@std@@@std@@QAEAAV01@N@Z$0 7c08f348 f i instances.obj
 0001:0000e431       __catch$??6?$basic_ostream@_WU?$char_traits@_W@std@@@std@@QAEAAV01@O@Z$0 7c08f431 f i instances.obj
 0001:0000e515       __catch$??6?$basic_ostream@_WU?$char_traits@_W@std@@@std@@QAEAAV01@PBX@Z$0 7c08f515 f i instances.obj
 0001:0000e5bb       __catch$?write@?$basic_ostream@DU?$char_traits@D@std@@@std@@QAEAAV12@PBDH@Z$0 7c08f5bb f i instances.obj
 0001:0000e5bb       __catch$?write@?$basic_ostream@GU?$char_traits@G@std@@@std@@QAEAAV12@PBGH@Z$0 7c08f5bb f i instances.obj
 0001:0000e5bb       __catch$?write@?$basic_ostream@_WU?$char_traits@_W@std@@@std@@QAEAAV12@PB_WH@Z$0 7c08f5bb f i instances.obj
 0001:0000e713       __catch$??6?$basic_ostream@GU?$char_traits@G@std@@@std@@QAEAAV01@_N@Z$0 7c08f713 f i instances.obj
 0001:0000e819       __catch$??6?$basic_ostream@GU?$char_traits@G@std@@@std@@QAEAAV01@F@Z$0 7c08f819 f i instances.obj
 0001:0000e900       __catch$??6?$basic_ostream@GU?$char_traits@G@std@@@std@@QAEAAV01@G@Z$0 7c08f900 f i instances.obj
 0001:0000e9e4       __catch$??6?$basic_ostream@GU?$char_traits@G@std@@@std@@QAEAAV01@H@Z$0 7c08f9e4 f i instances.obj
 0001:0000e9e4       __catch$??6?$basic_ostream@GU?$char_traits@G@std@@@std@@QAEAAV01@J@Z$0 7c08f9e4 f i instances.obj
 0001:0000eac8       __catch$??6?$basic_ostream@GU?$char_traits@G@std@@@std@@QAEAAV01@I@Z$0 7c08fac8 f i instances.obj
 0001:0000eac8       __catch$??6?$basic_ostream@GU?$char_traits@G@std@@@std@@QAEAAV01@K@Z$0 7c08fac8 f i instances.obj
 0001:0000ebaf       __catch$??6?$basic_ostream@GU?$char_traits@G@std@@@std@@QAEAAV01@_J@Z$0 7c08fbaf f i instances.obj
 0001:0000ec96       __catch$??6?$basic_ostream@GU?$char_traits@G@std@@@std@@QAEAAV01@_K@Z$0 7c08fc96 f i instances.obj
 0001:0000ed7f       __catch$??6?$basic_ostream@GU?$char_traits@G@std@@@std@@QAEAAV01@M@Z$0 7c08fd7f f i instances.obj
 0001:0000ee68       __catch$??6?$basic_ostream@GU?$char_traits@G@std@@@std@@QAEAAV01@N@Z$0 7c08fe68 f i instances.obj
 0001:0000ef51       __catch$??6?$basic_ostream@GU?$char_traits@G@std@@@std@@QAEAAV01@O@Z$0 7c08ff51 f i instances.obj
 0001:0000f035       __catch$??6?$basic_ostream@GU?$char_traits@G@std@@@std@@QAEAAV01@PBX@Z$0 7c090035 f i instances.obj
 0001:0000f157       __catch$??6?$basic_ostream@_WU?$char_traits@_W@std@@@std@@QAEAAV01@PAV?$basic_streambuf@_WU?$char_traits@_W@std@@@1@@Z$2 7c090157 f i instances.obj
 0001:0000f157       __catch$??6?$basic_ostream@GU?$char_traits@G@std@@@std@@QAEAAV01@PAV?$basic_streambuf@GU?$char_traits@G@std@@@1@@Z$2 7c090157 f i instances.obj
 0001:0000f186       __catch$??6?$basic_ostream@_WU?$char_traits@_W@std@@@std@@QAEAAV01@PAV?$basic_streambuf@_WU?$char_traits@_W@std@@@1@@Z$0 7c090186 f i instances.obj
 0001:0000f186       __catch$??6?$basic_ostream@GU?$char_traits@G@std@@@std@@QAEAAV01@PAV?$basic_streambuf@GU?$char_traits@G@std@@@1@@Z$0 7c090186 f i instances.obj
 0001:00010290       __catch$??$?5DU?$char_traits@D@std@@@std@@YAAAV?$basic_istream@DU?$char_traits@D@std@@@0@AAV10@PAD@Z$0 7c091290 f i instances.obj
 0001:0001034c       __catch$??$?5DU?$char_traits@D@std@@@std@@YAAAV?$basic_istream@DU?$char_traits@D@std@@@0@AAV10@AAD@Z$0 7c09134c f i instances.obj
 0001:0001046e       __catch$??$?5_WU?$char_traits@_W@std@@@std@@YAAAV?$basic_istream@_WU?$char_traits@_W@std@@@0@AAV10@PA_W@Z$0 7c09146e f i instances.obj
 0001:00010533       __catch$??$?5_WU?$char_traits@_W@std@@@std@@YAAAV?$basic_istream@_WU?$char_traits@_W@std@@@0@AAV10@AA_W@Z$0 7c091533 f i instances.obj
 0001:0001064b       __catch$??$?5GU?$char_traits@G@std@@@std@@YAAAV?$basic_istream@GU?$char_traits@G@std@@@0@AAV10@PAG@Z$0 7c09164b f i instances.obj
 0001:00010710       __catch$??$?5GU?$char_traits@G@std@@@std@@YAAAV?$basic_istream@GU?$char_traits@G@std@@@0@AAV10@AAG@Z$0 7c091710 f i instances.obj
 0001:00012145       __catch$??5?$basic_istream@DU?$char_traits@D@std@@@std@@QAEAAV01@AA_N@Z$0 7c093145 f i instances.obj
 0001:0001222f       __catch$??5?$basic_istream@DU?$char_traits@D@std@@@std@@QAEAAV01@AAF@Z$0 7c09322f f i instances.obj
 0001:00012331       __catch$??5?$basic_istream@DU?$char_traits@D@std@@@std@@QAEAAV01@AAG@Z$0 7c093331 f i instances.obj
 0001:0001241b       __catch$??5?$basic_istream@DU?$char_traits@D@std@@@std@@QAEAAV01@AAH@Z$0 7c09341b f i instances.obj
 0001:00012519       __catch$??5?$basic_istream@DU?$char_traits@D@std@@@std@@QAEAAV01@AAI@Z$0 7c093519 f i instances.obj
 0001:000125f8       __catch$??5?$basic_istream@DU?$char_traits@D@std@@@std@@QAEAAV01@AAJ@Z$0 7c0935f8 f i instances.obj
 0001:000126d7       __catch$??5?$basic_istream@DU?$char_traits@D@std@@@std@@QAEAAV01@AAK@Z$0 7c0936d7 f i instances.obj
 0001:000127b6       __catch$??5?$basic_istream@DU?$char_traits@D@std@@@std@@QAEAAV01@AA_J@Z$0 7c0937b6 f i instances.obj
 0001:00012895       __catch$??5?$basic_istream@DU?$char_traits@D@std@@@std@@QAEAAV01@AA_K@Z$0 7c093895 f i instances.obj
 0001:00012974       __catch$??5?$basic_istream@DU?$char_traits@D@std@@@std@@QAEAAV01@AAM@Z$0 7c093974 f i instances.obj
 0001:00012a53       __catch$??5?$basic_istream@DU?$char_traits@D@std@@@std@@QAEAAV01@AAN@Z$0 7c093a53 f i instances.obj
 0001:00012b32       __catch$??5?$basic_istream@DU?$char_traits@D@std@@@std@@QAEAAV01@AAO@Z$0 7c093b32 f i instances.obj
 0001:00012c11       __catch$??5?$basic_istream@DU?$char_traits@D@std@@@std@@QAEAAV01@AAPAX@Z$0 7c093c11 f i instances.obj
 0001:00012cdf       __catch$??5?$basic_istream@DU?$char_traits@D@std@@@std@@QAEAAV01@PAV?$basic_streambuf@DU?$char_traits@D@std@@@1@@Z$0 7c093cdf f i instances.obj
 0001:00012ce5       __catch$??5?$basic_istream@DU?$char_traits@D@std@@@std@@QAEAAV01@PAV?$basic_streambuf@DU?$char_traits@D@std@@@1@@Z$2 7c093ce5 f i instances.obj
 0001:00012da0       __catch$?get@?$basic_istream@DU?$char_traits@D@std@@@std@@QAEHXZ$0 7c093da0 f i instances.obj
 0001:00012e6d       __catch$?get@?$basic_istream@DU?$char_traits@D@std@@@std@@QAEAAV12@PADHD@Z$0 7c093e6d f i instances.obj
 0001:00012f65       __catch$?get@?$basic_istream@DU?$char_traits@D@std@@@std@@QAEAAV12@AAV?$basic_streambuf@DU?$char_traits@D@std@@@2@D@Z$0 7c093f65 f i instances.obj
 0001:00012f6b       __catch$?get@?$basic_istream@DU?$char_traits@D@std@@@std@@QAEAAV12@AAV?$basic_streambuf@DU?$char_traits@D@std@@@2@D@Z$2 7c093f6b f i instances.obj
 0001:00013066       __catch$?getline@?$basic_istream@DU?$char_traits@D@std@@@std@@QAEAAV12@PADHD@Z$0 7c094066 f i instances.obj
 0001:00013137       __catch$?ignore@?$basic_istream@DU?$char_traits@D@std@@@std@@QAEAAV12@HH@Z$0 7c094137 f i instances.obj
 0001:000131e5       __catch$?read@?$basic_istream@DU?$char_traits@D@std@@@std@@QAEAAV12@PADH@Z$0 7c0941e5 f i instances.obj
 0001:0001331c       __catch$?peek@?$basic_istream@DU?$char_traits@D@std@@@std@@QAEHXZ$0 7c09431c f i instances.obj
 0001:000133c4       __catch$?putback@?$basic_istream@DU?$char_traits@D@std@@@std@@QAEAAV12@D@Z$0 7c0943c4 f i instances.obj
 0001:00013469       __catch$?unget@?$basic_istream@DU?$char_traits@D@std@@@std@@QAEAAV12@XZ$0 7c094469 f i instances.obj
 0001:00013546       __catch$??5?$basic_istream@_WU?$char_traits@_W@std@@@std@@QAEAAV01@AA_N@Z$0 7c094546 f i instances.obj
 0001:00013630       __catch$??5?$basic_istream@_WU?$char_traits@_W@std@@@std@@QAEAAV01@AAF@Z$0 7c094630 f i instances.obj
 0001:00013732       __catch$??5?$basic_istream@_WU?$char_traits@_W@std@@@std@@QAEAAV01@AAG@Z$0 7c094732 f i instances.obj
 0001:0001381c       __catch$??5?$basic_istream@_WU?$char_traits@_W@std@@@std@@QAEAAV01@AAH@Z$0 7c09481c f i instances.obj
 0001:0001391a       __catch$??5?$basic_istream@_WU?$char_traits@_W@std@@@std@@QAEAAV01@AAI@Z$0 7c09491a f i instances.obj
 0001:000139f9       __catch$??5?$basic_istream@_WU?$char_traits@_W@std@@@std@@QAEAAV01@AAJ@Z$0 7c0949f9 f i instances.obj
 0001:00013ad8       __catch$??5?$basic_istream@_WU?$char_traits@_W@std@@@std@@QAEAAV01@AAK@Z$0 7c094ad8 f i instances.obj
 0001:00013bb7       __catch$??5?$basic_istream@_WU?$char_traits@_W@std@@@std@@QAEAAV01@AA_J@Z$0 7c094bb7 f i instances.obj
 0001:00013c96       __catch$??5?$basic_istream@_WU?$char_traits@_W@std@@@std@@QAEAAV01@AA_K@Z$0 7c094c96 f i instances.obj
 0001:00013d75       __catch$??5?$basic_istream@_WU?$char_traits@_W@std@@@std@@QAEAAV01@AAM@Z$0 7c094d75 f i instances.obj
 0001:00013e54       __catch$??5?$basic_istream@_WU?$char_traits@_W@std@@@std@@QAEAAV01@AAN@Z$0 7c094e54 f i instances.obj
 0001:00013f33       __catch$??5?$basic_istream@_WU?$char_traits@_W@std@@@std@@QAEAAV01@AAO@Z$0 7c094f33 f i instances.obj
 0001:00014012       __catch$??5?$basic_istream@_WU?$char_traits@_W@std@@@std@@QAEAAV01@AAPAX@Z$0 7c095012 f i instances.obj
 0001:000140ef       __catch$??5?$basic_istream@_WU?$char_traits@_W@std@@@std@@QAEAAV01@PAV?$basic_streambuf@_WU?$char_traits@_W@std@@@1@@Z$0 7c0950ef f i instances.obj
 0001:000140f5       __catch$??5?$basic_istream@_WU?$char_traits@_W@std@@@std@@QAEAAV01@PAV?$basic_streambuf@_WU?$char_traits@_W@std@@@1@@Z$2 7c0950f5 f i instances.obj
 0001:000141b8       __catch$?get@?$basic_istream@_WU?$char_traits@_W@std@@@std@@QAEGXZ$0 7c0951b8 f i instances.obj
 0001:00014290       __catch$?get@?$basic_istream@_WU?$char_traits@_W@std@@@std@@QAEAAV12@PA_WH_W@Z$0 7c095290 f i instances.obj
 0001:0001439a       __catch$?get@?$basic_istream@_WU?$char_traits@_W@std@@@std@@QAEAAV12@AAV?$basic_streambuf@_WU?$char_traits@_W@std@@@2@_W@Z$0 7c09539a f i instances.obj
 0001:000143a0       __catch$?get@?$basic_istream@_WU?$char_traits@_W@std@@@std@@QAEAAV12@AAV?$basic_streambuf@_WU?$char_traits@_W@std@@@2@_W@Z$2 7c0953a0 f i instances.obj
 0001:000144a5       __catch$?getline@?$basic_istream@_WU?$char_traits@_W@std@@@std@@QAEAAV12@PA_WH_W@Z$0 7c0954a5 f i instances.obj
 0001:0001457e       __catch$?ignore@?$basic_istream@_WU?$char_traits@_W@std@@@std@@QAEAAV12@HG@Z$0 7c09557e f i instances.obj
 0001:0001462c       __catch$?read@?$basic_istream@_WU?$char_traits@_W@std@@@std@@QAEAAV12@PA_WH@Z$0 7c09562c f i instances.obj
 0001:0001476b       __catch$?peek@?$basic_istream@_WU?$char_traits@_W@std@@@std@@QAEGXZ$0 7c09576b f i instances.obj
 0001:00014818       __catch$?putback@?$basic_istream@_WU?$char_traits@_W@std@@@std@@QAEAAV12@_W@Z$0 7c095818 f i instances.obj
 0001:000148c1       __catch$?unget@?$basic_istream@_WU?$char_traits@_W@std@@@std@@QAEAAV12@XZ$0 7c0958c1 f i instances.obj
 0001:0001499e       __catch$??5?$basic_istream@GU?$char_traits@G@std@@@std@@QAEAAV01@AA_N@Z$0 7c09599e f i instances.obj
 0001:00014a88       __catch$??5?$basic_istream@GU?$char_traits@G@std@@@std@@QAEAAV01@AAF@Z$0 7c095a88 f i instances.obj
 0001:00014b8a       __catch$??5?$basic_istream@GU?$char_traits@G@std@@@std@@QAEAAV01@AAG@Z$0 7c095b8a f i instances.obj
 0001:00014c74       __catch$??5?$basic_istream@GU?$char_traits@G@std@@@std@@QAEAAV01@AAH@Z$0 7c095c74 f i instances.obj
 0001:00014d72       __catch$??5?$basic_istream@GU?$char_traits@G@std@@@std@@QAEAAV01@AAI@Z$0 7c095d72 f i instances.obj
 0001:00014e51       __catch$??5?$basic_istream@GU?$char_traits@G@std@@@std@@QAEAAV01@AAJ@Z$0 7c095e51 f i instances.obj
 0001:00014f30       __catch$??5?$basic_istream@GU?$char_traits@G@std@@@std@@QAEAAV01@AAK@Z$0 7c095f30 f i instances.obj
 0001:0001500f       __catch$??5?$basic_istream@GU?$char_traits@G@std@@@std@@QAEAAV01@AA_J@Z$0 7c09600f f i instances.obj
 0001:000150ee       __catch$??5?$basic_istream@GU?$char_traits@G@std@@@std@@QAEAAV01@AA_K@Z$0 7c0960ee f i instances.obj
 0001:000151cd       __catch$??5?$basic_istream@GU?$char_traits@G@std@@@std@@QAEAAV01@AAM@Z$0 7c0961cd f i instances.obj
 0001:000152ac       __catch$??5?$basic_istream@GU?$char_traits@G@std@@@std@@QAEAAV01@AAN@Z$0 7c0962ac f i instances.obj
 0001:0001538b       __catch$??5?$basic_istream@GU?$char_traits@G@std@@@std@@QAEAAV01@AAO@Z$0 7c09638b f i instances.obj
 0001:0001546a       __catch$??5?$basic_istream@GU?$char_traits@G@std@@@std@@QAEAAV01@AAPAX@Z$0 7c09646a f i instances.obj
 0001:00015547       __catch$??5?$basic_istream@GU?$char_traits@G@std@@@std@@QAEAAV01@PAV?$basic_streambuf@GU?$char_traits@G@std@@@1@@Z$0 7c096547 f i instances.obj
 0001:0001554d       __catch$??5?$basic_istream@GU?$char_traits@G@std@@@std@@QAEAAV01@PAV?$basic_streambuf@GU?$char_traits@G@std@@@1@@Z$2 7c09654d f i instances.obj
 0001:00015610       __catch$?get@?$basic_istream@GU?$char_traits@G@std@@@std@@QAEGXZ$0 7c096610 f i instances.obj
 0001:000156e8       __catch$?get@?$basic_istream@GU?$char_traits@G@std@@@std@@QAEAAV12@PAGHG@Z$0 7c0966e8 f i instances.obj
 0001:000157f2       __catch$?get@?$basic_istream@GU?$char_traits@G@std@@@std@@QAEAAV12@AAV?$basic_streambuf@GU?$char_traits@G@std@@@2@G@Z$0 7c0967f2 f i instances.obj
 0001:000157f8       __catch$?get@?$basic_istream@GU?$char_traits@G@std@@@std@@QAEAAV12@AAV?$basic_streambuf@GU?$char_traits@G@std@@@2@G@Z$2 7c0967f8 f i instances.obj
 0001:000158fd       __catch$?getline@?$basic_istream@GU?$char_traits@G@std@@@std@@QAEAAV12@PAGHG@Z$0 7c0968fd f i instances.obj
 0001:000159d6       __catch$?ignore@?$basic_istream@GU?$char_traits@G@std@@@std@@QAEAAV12@HG@Z$0 7c0969d6 f i instances.obj
 0001:00015a84       __catch$?read@?$basic_istream@GU?$char_traits@G@std@@@std@@QAEAAV12@PAGH@Z$0 7c096a84 f i instances.obj
 0001:00015bc3       __catch$?peek@?$basic_istream@GU?$char_traits@G@std@@@std@@QAEGXZ$0 7c096bc3 f i instances.obj
 0001:00015c70       __catch$?putback@?$basic_istream@GU?$char_traits@G@std@@@std@@QAEAAV12@G@Z$0 7c096c70 f i instances.obj
 0001:00015d19       __catch$?unget@?$basic_istream@GU?$char_traits@G@std@@@std@@QAEAAV12@XZ$0 7c096d19 f i instances.obj
 0001:000174da       __catch$??$?5DU?$char_traits@D@std@@V?$allocator@D@1@@std@@YAAAV?$basic_istream@DU?$char_traits@D@std@@@0@AAV10@AAV?$basic_string@DU?$char_traits@D@std@@V?$allocator@D@2@@0@@Z$0 7c0984da f i instances.obj
 0001:0001761a       __catch$??$?5_WU?$char_traits@_W@std@@V?$allocator@_W@1@@std@@YAAAV?$basic_istream@_WU?$char_traits@_W@std@@@0@AAV10@AAV?$basic_string@_WU?$char_traits@_W@std@@V?$allocator@_W@2@@0@@Z$0 7c09861a f i instances.obj
 0001:0001775a       __catch$??$?5GU?$char_traits@G@std@@V?$allocator@G@1@@std@@YAAAV?$basic_istream@GU?$char_traits@G@std@@@0@AAV10@AAV?$basic_string@GU?$char_traits@G@std@@V?$allocator@G@2@@0@@Z$0 7c09875a f i instances.obj
 0001:0001cbbe       __catch$??$getline@DU?$char_traits@D@std@@V?$allocator@D@2@@std@@YAAAV?$basic_istream@DU?$char_traits@D@std@@@0@AAV10@AAV?$basic_string@DU?$char_traits@D@std@@V?$allocator@D@2@@0@D@Z$0 7c09dbbe f i instances.obj
 0001:0001cd18       __catch$??$getline@_WU?$char_traits@_W@std@@V?$allocator@_W@2@@std@@YAAAV?$basic_istream@_WU?$char_traits@_W@std@@@0@AAV10@AAV?$basic_string@_WU?$char_traits@_W@std@@V?$allocator@_W@2@@0@_W@Z$0 7c09dd18 f i instances.obj
 0001:0001ce74       __catch$??$getline@GU?$char_traits@G@std@@V?$allocator@G@2@@std@@YAAAV?$basic_istream@GU?$char_traits@G@std@@@0@AAV10@AAV?$basic_string@GU?$char_traits@G@std@@V?$allocator@G@2@@0@G@Z$0 7c09de74 f i instances.obj
 0001:000232ee       __catch$?_Init@?$time_get@DV?$istreambuf_iterator@DU?$char_traits@D@std@@@std@@@std@@IAEXABV_Locinfo@2@@Z$0 7c0a42ee f i instances.obj
 0001:000233f0       __catch$?_Init@?$time_get@_WV?$istreambuf_iterator@_WU?$char_traits@_W@std@@@std@@@std@@IAEXABV_Locinfo@2@@Z$0 7c0a43f0 f i instances.obj
 0001:000233f0       __catch$?_Init@?$time_get@GV?$istreambuf_iterator@GU?$char_traits@G@std@@@std@@@std@@IAEXABV_Locinfo@2@@Z$0 7c0a43f0 f i instances.obj
 0001:00025a7b       ?rsfun@std@@YAXAAVios_base@1@H@Z 7c0a6a7b f   iomanip.obj
 0001:00025a89       ?sifun@std@@YAXAAVios_base@1@H@Z 7c0a6a89 f   iomanip.obj
 0001:00025aa3       ?sbfun@std@@YAXAAVios_base@1@H@Z 7c0a6aa3 f   iomanip.obj
 0001:00025ae2       ?spfun@std@@YAXAAVios_base@1@H@Z 7c0a6ae2 f   iomanip.obj
 0001:00025aee       ?swfun@std@@YAXAAVios_base@1@H@Z 7c0a6aee f   iomanip.obj
 0001:00026310       __catch$??0locale@std@@QAE@ABV01@0H@Z$0 7c0a7310 f   locale.obj
 0001:0002644d       __catch$??0locale@std@@QAE@PBDH@Z$0 7c0a744d f   locale.obj
 0001:0002664d       __catch$??0locale@std@@QAE@ABV01@PBDH@Z$0 7c0a764d f   locale.obj
 0001:000275af       __Mbrtowc_lk               7c0a85af f   xmbtowc.obj
 0001:0002831f       _tidy_global               7c0a931f f   stdcpp:locale0.obj
 0001:0002ba18       _report_failure            7c0aca18 f   msvcrt:secchk.obj
 0001:0002bf82       __unwindfunclet$??$use_facet@V?$num_put@_WV?$ostreambuf_iterator@_WU?$char_traits@_W@std@@@std@@@std@@@std@@YAABV?$num_put@_WV?$ostreambuf_iterator@_WU?$char_traits@_W@std@@@std@@@0@ABVlocale@0@@Z$0 7c0acf82 f   cerr.obj
 0001:0002bf82       __unwindfunclet$??$use_facet@V?$time_get@DV?$istreambuf_iterator@DU?$char_traits@D@std@@@std@@@std@@@std@@YAABV?$time_get@DV?$istreambuf_iterator@DU?$char_traits@D@std@@@std@@@0@ABVlocale@0@@Z$0 7c0acf82 f   cerr.obj
 0001:0002bf82       __unwindfunclet$??$use_facet@V?$num_put@GV?$ostreambuf_iterator@GU?$char_traits@G@std@@@std@@@std@@@std@@YAABV?$num_put@GV?$ostreambuf_iterator@GU?$char_traits@G@std@@@std@@@0@ABVlocale@0@@Z$0 7c0acf82 f   cerr.obj
 0001:0002bf82       __unwindfunclet$??$use_facet@V?$time_put@DV?$ostreambuf_iterator@DU?$char_traits@D@std@@@std@@@std@@@std@@YAABV?$time_put@DV?$ostreambuf_iterator@DU?$char_traits@D@std@@@std@@@0@ABVlocale@0@@Z$0 7c0acf82 f   cerr.obj
 0001:0002bf82       __unwindfunclet$??$use_facet@V?$num_get@DV?$istreambuf_iterator@DU?$char_traits@D@std@@@std@@@std@@@std@@YAABV?$num_get@DV?$istreambuf_iterator@DU?$char_traits@D@std@@@std@@@0@ABVlocale@0@@Z$0 7c0acf82 f   cerr.obj
 0001:0002bf82       __unwindfunclet$??$use_facet@V?$num_get@_WV?$istreambuf_iterator@_WU?$char_traits@_W@std@@@std@@@std@@@std@@YAABV?$num_get@_WV?$istreambuf_iterator@_WU?$char_traits@_W@std@@@std@@@0@ABVlocale@0@@Z$0 7c0acf82 f   cerr.obj
 0001:0002bf82       __unwindfunclet$??$use_facet@V?$money_put@DV?$ostreambuf_iterator@DU?$char_traits@D@std@@@std@@@std@@@std@@YAABV?$money_put@DV?$ostreambuf_iterator@DU?$char_traits@D@std@@@std@@@0@ABVlocale@0@@Z$0 7c0acf82 f   cerr.obj
 0001:0002bf82       __unwindfunclet$??$use_facet@V?$moneypunct@D$00@std@@@std@@YAABV?$moneypunct@D$00@0@ABVlocale@0@@Z$0 7c0acf82 f   cerr.obj
 0001:0002bf82       __unwindfunclet$??$use_facet@V?$money_get@DV?$istreambuf_iterator@DU?$char_traits@D@std@@@std@@@std@@@std@@YAABV?$money_get@DV?$istreambuf_iterator@DU?$char_traits@D@std@@@std@@@0@ABVlocale@0@@Z$0 7c0acf82 f   cerr.obj
 0001:0002bf82       __unwindfunclet$??$use_facet@V?$codecvt@_WDH@std@@@std@@YAABV?$codecvt@_WDH@0@ABVlocale@0@@Z$0 7c0acf82 f   cerr.obj
 0001:0002bf82       __unwindfunclet$??$use_facet@V?$moneypunct@_W$00@std@@@std@@YAABV?$moneypunct@_W$00@0@ABVlocale@0@@Z$0 7c0acf82 f   cerr.obj
 0001:0002bf82       __unwindfunclet$??$use_facet@V?$codecvt@GDH@std@@@std@@YAABV?$codecvt@GDH@0@ABVlocale@0@@Z$0 7c0acf82 f   cerr.obj
 0001:0002bf82       __unwindfunclet$??$use_facet@V?$messages@D@std@@@std@@YAABV?$messages@D@0@ABVlocale@0@@Z$0 7c0acf82 f   cerr.obj
 0001:0002bf82       __unwindfunclet$??$use_facet@V?$codecvt@DDH@std@@@std@@YAABV?$codecvt@DDH@0@ABVlocale@0@@Z$0 7c0acf82 f   cerr.obj
 0001:0002bf82       __unwindfunclet$??$use_facet@V?$moneypunct@G$00@std@@@std@@YAABV?$moneypunct@G$00@0@ABVlocale@0@@Z$0 7c0acf82 f   cerr.obj
 0001:0002bf82       __unwindfunclet$??$use_facet@V?$num_get@GV?$istreambuf_iterator@GU?$char_traits@G@std@@@std@@@std@@@std@@YAABV?$num_get@GV?$istreambuf_iterator@GU?$char_traits@G@std@@@std@@@0@ABVlocale@0@@Z$0 7c0acf82 f   cerr.obj
 0001:0002bf82       __unwindfunclet$??$use_facet@V?$collate@D@std@@@std@@YAABV?$collate@D@0@ABVlocale@0@@Z$0 7c0acf82 f   cerr.obj
 0001:0002bf82       __unwindfunclet$??$use_facet@V?$collate@_W@std@@@std@@YAABV?$collate@_W@0@ABVlocale@0@@Z$0 7c0acf82 f   cerr.obj
 0001:0002bf82       __unwindfunclet$??$use_facet@V?$ctype@D@std@@@std@@YAABV?$ctype@D@0@ABVlocale@0@@Z$0 7c0acf82 f   cerr.obj
 0001:0002bf82       __unwindfunclet$??$use_facet@V?$messages@_W@std@@@std@@YAABV?$messages@_W@0@ABVlocale@0@@Z$0 7c0acf82 f   cerr.obj
 0001:0002bf82       __unwindfunclet$??$use_facet@V?$time_get@GV?$istreambuf_iterator@GU?$char_traits@G@std@@@std@@@std@@@std@@YAABV?$time_get@GV?$istreambuf_iterator@GU?$char_traits@G@std@@@std@@@0@ABVlocale@0@@Z$0 7c0acf82 f   cerr.obj
 0001:0002bf82       __unwindfunclet$??$use_facet@V?$money_get@_WV?$istreambuf_iterator@_WU?$char_traits@_W@std@@@std@@@std@@@std@@YAABV?$money_get@_WV?$istreambuf_iterator@_WU?$char_traits@_W@std@@@std@@@0@ABVlocale@0@@Z$0 7c0acf82 f   cerr.obj
 0001:0002bf82       __unwindfunclet$??$use_facet@V?$time_get@_WV?$istreambuf_iterator@_WU?$char_traits@_W@std@@@std@@@std@@@std@@YAABV?$time_get@_WV?$istreambuf_iterator@_WU?$char_traits@_W@std@@@std@@@0@ABVlocale@0@@Z$0 7c0acf82 f   cerr.obj
 0001:0002bf82       __unwindfunclet$??$use_facet@V?$ctype@_W@std@@@std@@YAABV?$ctype@_W@0@ABVlocale@0@@Z$0 7c0acf82 f   cerr.obj
 0001:0002bf82       __unwindfunclet$??$use_facet@V?$money_put@_WV?$ostreambuf_iterator@_WU?$char_traits@_W@std@@@std@@@std@@@std@@YAABV?$money_put@_WV?$ostreambuf_iterator@_WU?$char_traits@_W@std@@@std@@@0@ABVlocale@0@@Z$0 7c0acf82 f   cerr.obj
 0001:0002bf82       __unwindfunclet$??$use_facet@V?$ctype@G@std@@@std@@YAABV?$ctype@G@0@ABVlocale@0@@Z$0 7c0acf82 f   cerr.obj
 0001:0002bf82       __unwindfunclet$??$use_facet@V?$numpunct@D@std@@@std@@YAABV?$numpunct@D@0@ABVlocale@0@@Z$0 7c0acf82 f   cerr.obj
 0001:0002bf82       __unwindfunclet$??$use_facet@V?$time_put@GV?$ostreambuf_iterator@GU?$char_traits@G@std@@@std@@@std@@@std@@YAABV?$time_put@GV?$ostreambuf_iterator@GU?$char_traits@G@std@@@std@@@0@ABVlocale@0@@Z$0 7c0acf82 f   cerr.obj
 0001:0002bf82       __unwindfunclet$??$use_facet@V?$time_put@_WV?$ostreambuf_iterator@_WU?$char_traits@_W@std@@@std@@@std@@@std@@YAABV?$time_put@_WV?$ostreambuf_iterator@_WU?$char_traits@_W@std@@@std@@@0@ABVlocale@0@@Z$0 7c0acf82 f   cerr.obj
 0001:0002bf82       __unwindfunclet$??$use_facet@V?$numpunct@_W@std@@@std@@YAABV?$numpunct@_W@0@ABVlocale@0@@Z$0 7c0acf82 f   cerr.obj
 0001:0002bf82       __unwindfunclet$??$use_facet@V?$collate@G@std@@@std@@YAABV?$collate@G@0@ABVlocale@0@@Z$0 7c0acf82 f   cerr.obj
 0001:0002bf82       __unwindfunclet$??$use_facet@V?$money_put@GV?$ostreambuf_iterator@GU?$char_traits@G@std@@@std@@@std@@@std@@YAABV?$money_put@GV?$ostreambuf_iterator@GU?$char_traits@G@std@@@std@@@0@ABVlocale@0@@Z$0 7c0acf82 f   cerr.obj
 0001:0002bf82       __unwindfunclet$??$use_facet@V?$numpunct@G@std@@@std@@YAABV?$numpunct@G@0@ABVlocale@0@@Z$0 7c0acf82 f   cerr.obj
 0001:0002bf82       __unwindfunclet$??$use_facet@V?$moneypunct@D$0A@@std@@@std@@YAABV?$moneypunct@D$0A@@0@ABVlocale@0@@Z$0 7c0acf82 f   cerr.obj
 0001:0002bf82       __unwindfunclet$??$use_facet@V?$moneypunct@G$0A@@std@@@std@@YAABV?$moneypunct@G$0A@@0@ABVlocale@0@@Z$0 7c0acf82 f   cerr.obj
 0001:0002bf82       __unwindfunclet$??$use_facet@V?$messages@G@std@@@std@@YAABV?$messages@G@0@ABVlocale@0@@Z$0 7c0acf82 f   cerr.obj
 0001:0002bf82       __unwindfunclet$??$use_facet@V?$money_get@GV?$istreambuf_iterator@GU?$char_traits@G@std@@@std@@@std@@@std@@YAABV?$money_get@GV?$istreambuf_iterator@GU?$char_traits@G@std@@@std@@@0@ABVlocale@0@@Z$0 7c0acf82 f   cerr.obj
 0001:0002bf82       __unwindfunclet$??$use_facet@V?$moneypunct@_W$0A@@std@@@std@@YAABV?$moneypunct@_W$0A@@0@ABVlocale@0@@Z$0 7c0acf82 f   cerr.obj
 0001:0002bf82       __unwindfunclet$??$use_facet@V?$num_put@DV?$ostreambuf_iterator@DU?$char_traits@D@std@@@std@@@std@@@std@@YAABV?$num_put@DV?$ostreambuf_iterator@DU?$char_traits@D@std@@@std@@@0@ABVlocale@0@@Z$0 7c0acf82 f   cerr.obj
 0001:0002bf8a       __ehhandler$??$use_facet@V?$moneypunct@D$0A@@std@@@std@@YAABV?$moneypunct@D$0A@@0@ABVlocale@0@@Z 7c0acf8a f   cerr.obj
 0001:0002bf8a       __ehhandler$??$use_facet@V?$moneypunct@_W$0A@@std@@@std@@YAABV?$moneypunct@_W$0A@@0@ABVlocale@0@@Z 7c0acf8a f   cerr.obj
 0001:0002bf8a       __ehhandler$??$use_facet@V?$collate@G@std@@@std@@YAABV?$collate@G@0@ABVlocale@0@@Z 7c0acf8a f   cerr.obj
 0001:0002bf8a       __ehhandler$??$use_facet@V?$moneypunct@G$0A@@std@@@std@@YAABV?$moneypunct@G$0A@@0@ABVlocale@0@@Z 7c0acf8a f   cerr.obj
 0001:0002bf8a       __ehhandler$??$use_facet@V?$numpunct@G@std@@@std@@YAABV?$numpunct@G@0@ABVlocale@0@@Z 7c0acf8a f   cerr.obj
 0001:0002bf8a       __ehhandler$??$use_facet@V?$money_get@GV?$istreambuf_iterator@GU?$char_traits@G@std@@@std@@@std@@@std@@YAABV?$money_get@GV?$istreambuf_iterator@GU?$char_traits@G@std@@@std@@@0@ABVlocale@0@@Z 7c0acf8a f   cerr.obj
 0001:0002bf8a       __ehhandler$??$use_facet@V?$numpunct@_W@std@@@std@@YAABV?$numpunct@_W@0@ABVlocale@0@@Z 7c0acf8a f   cerr.obj
 0001:0002bf8a       __ehhandler$??$use_facet@V?$money_put@GV?$ostreambuf_iterator@GU?$char_traits@G@std@@@std@@@std@@@std@@YAABV?$money_put@GV?$ostreambuf_iterator@GU?$char_traits@G@std@@@std@@@0@ABVlocale@0@@Z 7c0acf8a f   cerr.obj
 0001:0002bf8a       __ehhandler$??$use_facet@V?$time_put@_WV?$ostreambuf_iterator@_WU?$char_traits@_W@std@@@std@@@std@@@std@@YAABV?$time_put@_WV?$ostreambuf_iterator@_WU?$char_traits@_W@std@@@std@@@0@ABVlocale@0@@Z 7c0acf8a f   cerr.obj
 0001:0002bf8a       __ehhandler$??$use_facet@V?$num_put@DV?$ostreambuf_iterator@DU?$char_traits@D@std@@@std@@@std@@@std@@YAABV?$num_put@DV?$ostreambuf_iterator@DU?$char_traits@D@std@@@std@@@0@ABVlocale@0@@Z 7c0acf8a f   cerr.obj
 0001:0002bf8a       __ehhandler$??$use_facet@V?$numpunct@D@std@@@std@@YAABV?$numpunct@D@0@ABVlocale@0@@Z 7c0acf8a f   cerr.obj
 0001:0002bf8a       __ehhandler$??$use_facet@V?$ctype@G@std@@@std@@YAABV?$ctype@G@0@ABVlocale@0@@Z 7c0acf8a f   cerr.obj
 0001:0002bf8a       __ehhandler$??$use_facet@V?$money_put@_WV?$ostreambuf_iterator@_WU?$char_traits@_W@std@@@std@@@std@@@std@@YAABV?$money_put@_WV?$ostreambuf_iterator@_WU?$char_traits@_W@std@@@std@@@0@ABVlocale@0@@Z 7c0acf8a f   cerr.obj
 0001:0002bf8a       __ehhandler$??$use_facet@V?$time_put@GV?$ostreambuf_iterator@GU?$char_traits@G@std@@@std@@@std@@@std@@YAABV?$time_put@GV?$ostreambuf_iterator@GU?$char_traits@G@std@@@std@@@0@ABVlocale@0@@Z 7c0acf8a f   cerr.obj
 0001:0002bf8a       __ehhandler$??$use_facet@V?$time_get@DV?$istreambuf_iterator@DU?$char_traits@D@std@@@std@@@std@@@std@@YAABV?$time_get@DV?$istreambuf_iterator@DU?$char_traits@D@std@@@std@@@0@ABVlocale@0@@Z 7c0acf8a f   cerr.obj
 0001:0002bf8a       __ehhandler$??$use_facet@V?$num_put@_WV?$ostreambuf_iterator@_WU?$char_traits@_W@std@@@std@@@std@@@std@@YAABV?$num_put@_WV?$ostreambuf_iterator@_WU?$char_traits@_W@std@@@std@@@0@ABVlocale@0@@Z 7c0acf8a f   cerr.obj
 0001:0002bf8a       __ehhandler$??$use_facet@V?$ctype@_W@std@@@std@@YAABV?$ctype@_W@0@ABVlocale@0@@Z 7c0acf8a f   cerr.obj
 0001:0002bf8a       __ehhandler$??$use_facet@V?$money_get@_WV?$istreambuf_iterator@_WU?$char_traits@_W@std@@@std@@@std@@@std@@YAABV?$money_get@_WV?$istreambuf_iterator@_WU?$char_traits@_W@std@@@std@@@0@ABVlocale@0@@Z 7c0acf8a f   cerr.obj
 0001:0002bf8a       __ehhandler$??$use_facet@V?$time_put@DV?$ostreambuf_iterator@DU?$char_traits@D@std@@@std@@@std@@@std@@YAABV?$time_put@DV?$ostreambuf_iterator@DU?$char_traits@D@std@@@std@@@0@ABVlocale@0@@Z 7c0acf8a f   cerr.obj
 0001:0002bf8a       __ehhandler$??$use_facet@V?$num_put@GV?$ostreambuf_iterator@GU?$char_traits@G@std@@@std@@@std@@@std@@YAABV?$num_put@GV?$ostreambuf_iterator@GU?$char_traits@G@std@@@std@@@0@ABVlocale@0@@Z 7c0acf8a f   cerr.obj
 0001:0002bf8a       __ehhandler$??$use_facet@V?$money_put@DV?$ostreambuf_iterator@DU?$char_traits@D@std@@@std@@@std@@@std@@YAABV?$money_put@DV?$ostreambuf_iterator@DU?$char_traits@D@std@@@std@@@0@ABVlocale@0@@Z 7c0acf8a f   cerr.obj
 0001:0002bf8a       __ehhandler$??$use_facet@V?$time_get@_WV?$istreambuf_iterator@_WU?$char_traits@_W@std@@@std@@@std@@@std@@YAABV?$time_get@_WV?$istreambuf_iterator@_WU?$char_traits@_W@std@@@std@@@0@ABVlocale@0@@Z 7c0acf8a f   cerr.obj
 0001:0002bf8a       __ehhandler$??$use_facet@V?$messages@_W@std@@@std@@YAABV?$messages@_W@0@ABVlocale@0@@Z 7c0acf8a f   cerr.obj
 0001:0002bf8a       __ehhandler$??$use_facet@V?$num_get@DV?$istreambuf_iterator@DU?$char_traits@D@std@@@std@@@std@@@std@@YAABV?$num_get@DV?$istreambuf_iterator@DU?$char_traits@D@std@@@std@@@0@ABVlocale@0@@Z 7c0acf8a f   cerr.obj
 0001:0002bf8a       __ehhandler$??$use_facet@V?$moneypunct@D$00@std@@@std@@YAABV?$moneypunct@D$00@0@ABVlocale@0@@Z 7c0acf8a f   cerr.obj
 0001:0002bf8a       __ehhandler$??$use_facet@V?$num_get@_WV?$istreambuf_iterator@_WU?$char_traits@_W@std@@@std@@@std@@@std@@YAABV?$num_get@_WV?$istreambuf_iterator@_WU?$char_traits@_W@std@@@std@@@0@ABVlocale@0@@Z 7c0acf8a f   cerr.obj
 0001:0002bf8a       __ehhandler$??$use_facet@V?$ctype@D@std@@@std@@YAABV?$ctype@D@0@ABVlocale@0@@Z 7c0acf8a f   cerr.obj
 0001:0002bf8a       __ehhandler$??$use_facet@V?$collate@_W@std@@@std@@YAABV?$collate@_W@0@ABVlocale@0@@Z 7c0acf8a f   cerr.obj
 0001:0002bf8a       __ehhandler$??$use_facet@V?$money_get@DV?$istreambuf_iterator@DU?$char_traits@D@std@@@std@@@std@@@std@@YAABV?$money_get@DV?$istreambuf_iterator@DU?$char_traits@D@std@@@std@@@0@ABVlocale@0@@Z 7c0acf8a f   cerr.obj
 0001:0002bf8a       __ehhandler$??$use_facet@V?$num_get@GV?$istreambuf_iterator@GU?$char_traits@G@std@@@std@@@std@@@std@@YAABV?$num_get@GV?$istreambuf_iterator@GU?$char_traits@G@std@@@std@@@0@ABVlocale@0@@Z 7c0acf8a f   cerr.obj
 0001:0002bf8a       __ehhandler$??$use_facet@V?$time_get@GV?$istreambuf_iterator@GU?$char_traits@G@std@@@std@@@std@@@std@@YAABV?$time_get@GV?$istreambuf_iterator@GU?$char_traits@G@std@@@std@@@0@ABVlocale@0@@Z 7c0acf8a f   cerr.obj
 0001:0002bf8a       __ehhandler$??$use_facet@V?$messages@G@std@@@std@@YAABV?$messages@G@0@ABVlocale@0@@Z 7c0acf8a f   cerr.obj
 0001:0002bf8a       __ehhandler$??$use_facet@V?$messages@D@std@@@std@@YAABV?$messages@D@0@ABVlocale@0@@Z 7c0acf8a f   cerr.obj
 0001:0002bf8a       __ehhandler$??$use_facet@V?$codecvt@_WDH@std@@@std@@YAABV?$codecvt@_WDH@0@ABVlocale@0@@Z 7c0acf8a f   cerr.obj
 0001:0002bf8a       __ehhandler$??$use_facet@V?$moneypunct@_W$00@std@@@std@@YAABV?$moneypunct@_W$00@0@ABVlocale@0@@Z 7c0acf8a f   cerr.obj
 0001:0002bf8a       __ehhandler$??$use_facet@V?$moneypunct@G$00@std@@@std@@YAABV?$moneypunct@G$00@0@ABVlocale@0@@Z 7c0acf8a f   cerr.obj
 0001:0002bf8a       __ehhandler$??$use_facet@V?$codecvt@GDH@std@@@std@@YAABV?$codecvt@GDH@0@ABVlocale@0@@Z 7c0acf8a f   cerr.obj
 0001:0002bf8a       __ehhandler$??$use_facet@V?$codecvt@DDH@std@@@std@@YAABV?$codecvt@DDH@0@ABVlocale@0@@Z 7c0acf8a f   cerr.obj
 0001:0002bf8a       __ehhandler$??$use_facet@V?$collate@D@std@@@std@@YAABV?$collate@D@0@ABVlocale@0@@Z 7c0acf8a f   cerr.obj
 0001:0002bf94       __ehhandler$?_Copy@?$basic_string@DU?$char_traits@D@std@@V?$allocator@D@2@@std@@IAEXII@Z 7c0acf94 f   cerr.obj
 0001:0002bf9e       __unwindfunclet$?_Ipfx@?$basic_istream@DU?$char_traits@D@std@@@std@@QAE_N_N@Z$2 7c0acf9e f   cerr.obj
 0001:0002bfa6       __ehhandler$?_Ipfx@?$basic_istream@DU?$char_traits@D@std@@@std@@QAE_N_N@Z 7c0acfa6 f   cerr.obj
 0001:0002bfb0       __unwindfunclet$?_Ipfx@?$basic_istream@_WU?$char_traits@_W@std@@@std@@QAE_N_N@Z$2 7c0acfb0 f   cerr.obj
 0001:0002bfb8       __ehhandler$?_Ipfx@?$basic_istream@_WU?$char_traits@_W@std@@@std@@QAE_N_N@Z 7c0acfb8 f   cerr.obj
 0001:0002bfc2       __unwindfunclet$?_Ipfx@?$basic_istream@GU?$char_traits@G@std@@@std@@QAE_N_N@Z$2 7c0acfc2 f   cerr.obj
 0001:0002bfca       __ehhandler$?_Ipfx@?$basic_istream@GU?$char_traits@G@std@@@std@@QAE_N_N@Z 7c0acfca f   cerr.obj
 0001:0002bfd4       __unwindfunclet$??1sentry@?$basic_ostream@_WU?$char_traits@_W@std@@@std@@QAE@XZ$0 7c0acfd4 f   cerr.obj
 0001:0002bfd4       __unwindfunclet$??0sentry@?$basic_istream@_WU?$char_traits@_W@std@@@std@@QAE@AAV12@_N@Z$0 7c0acfd4 f   cerr.obj
 0001:0002bfd4       __unwindfunclet$??1sentry@?$basic_ostream@DU?$char_traits@D@std@@@std@@QAE@XZ$0 7c0acfd4 f   cerr.obj
 0001:0002bfd4       __unwindfunclet$??0sentry@?$basic_istream@DU?$char_traits@D@std@@@std@@QAE@AAV12@_N@Z$0 7c0acfd4 f   cerr.obj
 0001:0002bfd4       __unwindfunclet$??0sentry@?$basic_ostream@GU?$char_traits@G@std@@@std@@QAE@AAV12@@Z$0 7c0acfd4 f   cerr.obj
 0001:0002bfd4       __unwindfunclet$??0sentry@?$basic_istream@GU?$char_traits@G@std@@@std@@QAE@AAV12@_N@Z$0 7c0acfd4 f   cerr.obj
